
gameBobMainMenu.elf:     file format elf32-littlearm


Disassembly of section .text:

08000110 <__do_global_dtors_aux>:
 8000110:	b510      	push	{r4, lr}
 8000112:	4c05      	ldr	r4, [pc, #20]	@ (8000128 <__do_global_dtors_aux+0x18>)
 8000114:	7823      	ldrb	r3, [r4, #0]
 8000116:	b933      	cbnz	r3, 8000126 <__do_global_dtors_aux+0x16>
 8000118:	4b04      	ldr	r3, [pc, #16]	@ (800012c <__do_global_dtors_aux+0x1c>)
 800011a:	b113      	cbz	r3, 8000122 <__do_global_dtors_aux+0x12>
 800011c:	4804      	ldr	r0, [pc, #16]	@ (8000130 <__do_global_dtors_aux+0x20>)
 800011e:	f3af 8000 	nop.w
 8000122:	2301      	movs	r3, #1
 8000124:	7023      	strb	r3, [r4, #0]
 8000126:	bd10      	pop	{r4, pc}
 8000128:	200000a0 	.word	0x200000a0
 800012c:	00000000 	.word	0x00000000
 8000130:	0800739c 	.word	0x0800739c

08000134 <frame_dummy>:
 8000134:	b508      	push	{r3, lr}
 8000136:	4b03      	ldr	r3, [pc, #12]	@ (8000144 <frame_dummy+0x10>)
 8000138:	b11b      	cbz	r3, 8000142 <frame_dummy+0xe>
 800013a:	4903      	ldr	r1, [pc, #12]	@ (8000148 <frame_dummy+0x14>)
 800013c:	4803      	ldr	r0, [pc, #12]	@ (800014c <frame_dummy+0x18>)
 800013e:	f3af 8000 	nop.w
 8000142:	bd08      	pop	{r3, pc}
 8000144:	00000000 	.word	0x00000000
 8000148:	200000a4 	.word	0x200000a4
 800014c:	0800739c 	.word	0x0800739c

08000150 <strlen>:
 8000150:	4603      	mov	r3, r0
 8000152:	f813 2b01 	ldrb.w	r2, [r3], #1
 8000156:	2a00      	cmp	r2, #0
 8000158:	d1fb      	bne.n	8000152 <strlen+0x2>
 800015a:	1a18      	subs	r0, r3, r0
 800015c:	3801      	subs	r0, #1
 800015e:	4770      	bx	lr

08000160 <SystemInit>:
 8000160:	4770      	bx	lr
	...

08000164 <TIM_OC1_SetConfig>:
 8000164:	6a03      	ldr	r3, [r0, #32]
 8000166:	6a02      	ldr	r2, [r0, #32]
 8000168:	b570      	push	{r4, r5, r6, lr}
 800016a:	f022 0201 	bic.w	r2, r2, #1
 800016e:	6202      	str	r2, [r0, #32]
 8000170:	6844      	ldr	r4, [r0, #4]
 8000172:	6982      	ldr	r2, [r0, #24]
 8000174:	680d      	ldr	r5, [r1, #0]
 8000176:	f022 0273 	bic.w	r2, r2, #115	@ 0x73
 800017a:	432a      	orrs	r2, r5
 800017c:	688d      	ldr	r5, [r1, #8]
 800017e:	f023 0302 	bic.w	r3, r3, #2
 8000182:	432b      	orrs	r3, r5
 8000184:	4d0a      	ldr	r5, [pc, #40]	@ (80001b0 <TIM_OC1_SetConfig+0x4c>)
 8000186:	42a8      	cmp	r0, r5
 8000188:	d10b      	bne.n	80001a2 <TIM_OC1_SetConfig+0x3e>
 800018a:	68cd      	ldr	r5, [r1, #12]
 800018c:	f023 0308 	bic.w	r3, r3, #8
 8000190:	432b      	orrs	r3, r5
 8000192:	f424 7440 	bic.w	r4, r4, #768	@ 0x300
 8000196:	e9d1 5605 	ldrd	r5, r6, [r1, #20]
 800019a:	4335      	orrs	r5, r6
 800019c:	f023 0304 	bic.w	r3, r3, #4
 80001a0:	432c      	orrs	r4, r5
 80001a2:	6044      	str	r4, [r0, #4]
 80001a4:	6182      	str	r2, [r0, #24]
 80001a6:	684a      	ldr	r2, [r1, #4]
 80001a8:	6342      	str	r2, [r0, #52]	@ 0x34
 80001aa:	6203      	str	r3, [r0, #32]
 80001ac:	bd70      	pop	{r4, r5, r6, pc}
 80001ae:	bf00      	nop
 80001b0:	40012c00 	.word	0x40012c00

080001b4 <TIM_OC3_SetConfig>:
 80001b4:	6a03      	ldr	r3, [r0, #32]
 80001b6:	6a02      	ldr	r2, [r0, #32]
 80001b8:	b570      	push	{r4, r5, r6, lr}
 80001ba:	f422 7280 	bic.w	r2, r2, #256	@ 0x100
 80001be:	6202      	str	r2, [r0, #32]
 80001c0:	6844      	ldr	r4, [r0, #4]
 80001c2:	69c2      	ldr	r2, [r0, #28]
 80001c4:	680d      	ldr	r5, [r1, #0]
 80001c6:	f022 0273 	bic.w	r2, r2, #115	@ 0x73
 80001ca:	432a      	orrs	r2, r5
 80001cc:	688d      	ldr	r5, [r1, #8]
 80001ce:	f423 7300 	bic.w	r3, r3, #512	@ 0x200
 80001d2:	ea43 2305 	orr.w	r3, r3, r5, lsl #8
 80001d6:	4d0b      	ldr	r5, [pc, #44]	@ (8000204 <TIM_OC3_SetConfig+0x50>)
 80001d8:	42a8      	cmp	r0, r5
 80001da:	d10d      	bne.n	80001f8 <TIM_OC3_SetConfig+0x44>
 80001dc:	68cd      	ldr	r5, [r1, #12]
 80001de:	f423 6300 	bic.w	r3, r3, #2048	@ 0x800
 80001e2:	ea43 2305 	orr.w	r3, r3, r5, lsl #8
 80001e6:	f424 5440 	bic.w	r4, r4, #12288	@ 0x3000
 80001ea:	e9d1 5605 	ldrd	r5, r6, [r1, #20]
 80001ee:	4335      	orrs	r5, r6
 80001f0:	f423 6380 	bic.w	r3, r3, #1024	@ 0x400
 80001f4:	ea44 1405 	orr.w	r4, r4, r5, lsl #4
 80001f8:	6044      	str	r4, [r0, #4]
 80001fa:	61c2      	str	r2, [r0, #28]
 80001fc:	684a      	ldr	r2, [r1, #4]
 80001fe:	63c2      	str	r2, [r0, #60]	@ 0x3c
 8000200:	6203      	str	r3, [r0, #32]
 8000202:	bd70      	pop	{r4, r5, r6, pc}
 8000204:	40012c00 	.word	0x40012c00

08000208 <TIM_OC4_SetConfig>:
 8000208:	6a03      	ldr	r3, [r0, #32]
 800020a:	6a02      	ldr	r2, [r0, #32]
 800020c:	b530      	push	{r4, r5, lr}
 800020e:	f422 5280 	bic.w	r2, r2, #4096	@ 0x1000
 8000212:	6202      	str	r2, [r0, #32]
 8000214:	6844      	ldr	r4, [r0, #4]
 8000216:	69c2      	ldr	r2, [r0, #28]
 8000218:	680d      	ldr	r5, [r1, #0]
 800021a:	f422 42e6 	bic.w	r2, r2, #29440	@ 0x7300
 800021e:	ea42 2205 	orr.w	r2, r2, r5, lsl #8
 8000222:	688d      	ldr	r5, [r1, #8]
 8000224:	f423 5300 	bic.w	r3, r3, #8192	@ 0x2000
 8000228:	ea43 3305 	orr.w	r3, r3, r5, lsl #12
 800022c:	4d06      	ldr	r5, [pc, #24]	@ (8000248 <TIM_OC4_SetConfig+0x40>)
 800022e:	42a8      	cmp	r0, r5
 8000230:	bf02      	ittt	eq
 8000232:	694d      	ldreq	r5, [r1, #20]
 8000234:	f424 4480 	biceq.w	r4, r4, #16384	@ 0x4000
 8000238:	ea44 1485 	orreq.w	r4, r4, r5, lsl #6
 800023c:	6044      	str	r4, [r0, #4]
 800023e:	61c2      	str	r2, [r0, #28]
 8000240:	684a      	ldr	r2, [r1, #4]
 8000242:	6402      	str	r2, [r0, #64]	@ 0x40
 8000244:	6203      	str	r3, [r0, #32]
 8000246:	bd30      	pop	{r4, r5, pc}
 8000248:	40012c00 	.word	0x40012c00

0800024c <HAL_TIM_Base_MspInit>:
 800024c:	4770      	bx	lr
	...

08000250 <HAL_TIM_Base_Start_IT>:
 8000250:	f890 303d 	ldrb.w	r3, [r0, #61]	@ 0x3d
 8000254:	2b01      	cmp	r3, #1
 8000256:	d120      	bne.n	800029a <HAL_TIM_Base_Start_IT+0x4a>
 8000258:	2302      	movs	r3, #2
 800025a:	f880 303d 	strb.w	r3, [r0, #61]	@ 0x3d
 800025e:	6803      	ldr	r3, [r0, #0]
 8000260:	68da      	ldr	r2, [r3, #12]
 8000262:	f042 0201 	orr.w	r2, r2, #1
 8000266:	60da      	str	r2, [r3, #12]
 8000268:	4a0d      	ldr	r2, [pc, #52]	@ (80002a0 <HAL_TIM_Base_Start_IT+0x50>)
 800026a:	4293      	cmp	r3, r2
 800026c:	d00a      	beq.n	8000284 <HAL_TIM_Base_Start_IT+0x34>
 800026e:	f1b3 4f80 	cmp.w	r3, #1073741824	@ 0x40000000
 8000272:	d007      	beq.n	8000284 <HAL_TIM_Base_Start_IT+0x34>
 8000274:	f5a2 3294 	sub.w	r2, r2, #75776	@ 0x12800
 8000278:	4293      	cmp	r3, r2
 800027a:	d003      	beq.n	8000284 <HAL_TIM_Base_Start_IT+0x34>
 800027c:	f502 6280 	add.w	r2, r2, #1024	@ 0x400
 8000280:	4293      	cmp	r3, r2
 8000282:	d104      	bne.n	800028e <HAL_TIM_Base_Start_IT+0x3e>
 8000284:	689a      	ldr	r2, [r3, #8]
 8000286:	f002 0207 	and.w	r2, r2, #7
 800028a:	2a06      	cmp	r2, #6
 800028c:	d003      	beq.n	8000296 <HAL_TIM_Base_Start_IT+0x46>
 800028e:	681a      	ldr	r2, [r3, #0]
 8000290:	f042 0201 	orr.w	r2, r2, #1
 8000294:	601a      	str	r2, [r3, #0]
 8000296:	2000      	movs	r0, #0
 8000298:	4770      	bx	lr
 800029a:	2001      	movs	r0, #1
 800029c:	4770      	bx	lr
 800029e:	bf00      	nop
 80002a0:	40012c00 	.word	0x40012c00

080002a4 <HAL_TIM_PWM_DeInit>:
 80002a4:	2302      	movs	r3, #2
 80002a6:	f241 1211 	movw	r2, #4369	@ 0x1111
 80002aa:	b510      	push	{r4, lr}
 80002ac:	f880 303d 	strb.w	r3, [r0, #61]	@ 0x3d
 80002b0:	6803      	ldr	r3, [r0, #0]
 80002b2:	4604      	mov	r4, r0
 80002b4:	6a19      	ldr	r1, [r3, #32]
 80002b6:	4211      	tst	r1, r2
 80002b8:	d108      	bne.n	80002cc <HAL_TIM_PWM_DeInit+0x28>
 80002ba:	f240 4244 	movw	r2, #1092	@ 0x444
 80002be:	6a19      	ldr	r1, [r3, #32]
 80002c0:	4211      	tst	r1, r2
 80002c2:	bf02      	ittt	eq
 80002c4:	681a      	ldreq	r2, [r3, #0]
 80002c6:	f022 0201 	biceq.w	r2, r2, #1
 80002ca:	601a      	streq	r2, [r3, #0]
 80002cc:	4620      	mov	r0, r4
 80002ce:	f003 fa8f 	bl	80037f0 <HAL_TIM_PWM_MspDeInit>
 80002d2:	2000      	movs	r0, #0
 80002d4:	f884 0046 	strb.w	r0, [r4, #70]	@ 0x46
 80002d8:	f884 003c 	strb.w	r0, [r4, #60]	@ 0x3c
 80002dc:	f884 003e 	strb.w	r0, [r4, #62]	@ 0x3e
 80002e0:	f884 003f 	strb.w	r0, [r4, #63]	@ 0x3f
 80002e4:	f884 0040 	strb.w	r0, [r4, #64]	@ 0x40
 80002e8:	f884 0041 	strb.w	r0, [r4, #65]	@ 0x41
 80002ec:	f884 0042 	strb.w	r0, [r4, #66]	@ 0x42
 80002f0:	f884 0043 	strb.w	r0, [r4, #67]	@ 0x43
 80002f4:	f884 0044 	strb.w	r0, [r4, #68]	@ 0x44
 80002f8:	f884 0045 	strb.w	r0, [r4, #69]	@ 0x45
 80002fc:	f884 003d 	strb.w	r0, [r4, #61]	@ 0x3d
 8000300:	bd10      	pop	{r4, pc}

08000302 <HAL_TIM_OC_DelayElapsedCallback>:
 8000302:	4770      	bx	lr

08000304 <HAL_TIM_IC_CaptureCallback>:
 8000304:	4770      	bx	lr

08000306 <HAL_TIM_PWM_PulseFinishedCallback>:
 8000306:	4770      	bx	lr

08000308 <HAL_TIM_TriggerCallback>:
 8000308:	4770      	bx	lr

0800030a <HAL_TIM_IRQHandler>:
 800030a:	6803      	ldr	r3, [r0, #0]
 800030c:	b570      	push	{r4, r5, r6, lr}
 800030e:	68dd      	ldr	r5, [r3, #12]
 8000310:	691e      	ldr	r6, [r3, #16]
 8000312:	4604      	mov	r4, r0
 8000314:	07b1      	lsls	r1, r6, #30
 8000316:	d50d      	bpl.n	8000334 <HAL_TIM_IRQHandler+0x2a>
 8000318:	07aa      	lsls	r2, r5, #30
 800031a:	d50b      	bpl.n	8000334 <HAL_TIM_IRQHandler+0x2a>
 800031c:	f06f 0202 	mvn.w	r2, #2
 8000320:	611a      	str	r2, [r3, #16]
 8000322:	2201      	movs	r2, #1
 8000324:	7702      	strb	r2, [r0, #28]
 8000326:	699b      	ldr	r3, [r3, #24]
 8000328:	079b      	lsls	r3, r3, #30
 800032a:	d069      	beq.n	8000400 <HAL_TIM_IRQHandler+0xf6>
 800032c:	f7ff ffea 	bl	8000304 <HAL_TIM_IC_CaptureCallback>
 8000330:	2300      	movs	r3, #0
 8000332:	7723      	strb	r3, [r4, #28]
 8000334:	0771      	lsls	r1, r6, #29
 8000336:	d510      	bpl.n	800035a <HAL_TIM_IRQHandler+0x50>
 8000338:	076a      	lsls	r2, r5, #29
 800033a:	d50e      	bpl.n	800035a <HAL_TIM_IRQHandler+0x50>
 800033c:	f06f 0204 	mvn.w	r2, #4
 8000340:	6823      	ldr	r3, [r4, #0]
 8000342:	4620      	mov	r0, r4
 8000344:	611a      	str	r2, [r3, #16]
 8000346:	2202      	movs	r2, #2
 8000348:	7722      	strb	r2, [r4, #28]
 800034a:	699b      	ldr	r3, [r3, #24]
 800034c:	f413 7f40 	tst.w	r3, #768	@ 0x300
 8000350:	d05c      	beq.n	800040c <HAL_TIM_IRQHandler+0x102>
 8000352:	f7ff ffd7 	bl	8000304 <HAL_TIM_IC_CaptureCallback>
 8000356:	2300      	movs	r3, #0
 8000358:	7723      	strb	r3, [r4, #28]
 800035a:	0733      	lsls	r3, r6, #28
 800035c:	d50f      	bpl.n	800037e <HAL_TIM_IRQHandler+0x74>
 800035e:	0728      	lsls	r0, r5, #28
 8000360:	d50d      	bpl.n	800037e <HAL_TIM_IRQHandler+0x74>
 8000362:	f06f 0208 	mvn.w	r2, #8
 8000366:	6823      	ldr	r3, [r4, #0]
 8000368:	4620      	mov	r0, r4
 800036a:	611a      	str	r2, [r3, #16]
 800036c:	2204      	movs	r2, #4
 800036e:	7722      	strb	r2, [r4, #28]
 8000370:	69db      	ldr	r3, [r3, #28]
 8000372:	0799      	lsls	r1, r3, #30
 8000374:	d050      	beq.n	8000418 <HAL_TIM_IRQHandler+0x10e>
 8000376:	f7ff ffc5 	bl	8000304 <HAL_TIM_IC_CaptureCallback>
 800037a:	2300      	movs	r3, #0
 800037c:	7723      	strb	r3, [r4, #28]
 800037e:	06f2      	lsls	r2, r6, #27
 8000380:	d510      	bpl.n	80003a4 <HAL_TIM_IRQHandler+0x9a>
 8000382:	06eb      	lsls	r3, r5, #27
 8000384:	d50e      	bpl.n	80003a4 <HAL_TIM_IRQHandler+0x9a>
 8000386:	f06f 0210 	mvn.w	r2, #16
 800038a:	6823      	ldr	r3, [r4, #0]
 800038c:	4620      	mov	r0, r4
 800038e:	611a      	str	r2, [r3, #16]
 8000390:	2208      	movs	r2, #8
 8000392:	7722      	strb	r2, [r4, #28]
 8000394:	69db      	ldr	r3, [r3, #28]
 8000396:	f413 7f40 	tst.w	r3, #768	@ 0x300
 800039a:	d043      	beq.n	8000424 <HAL_TIM_IRQHandler+0x11a>
 800039c:	f7ff ffb2 	bl	8000304 <HAL_TIM_IC_CaptureCallback>
 80003a0:	2300      	movs	r3, #0
 80003a2:	7723      	strb	r3, [r4, #28]
 80003a4:	07f0      	lsls	r0, r6, #31
 80003a6:	d508      	bpl.n	80003ba <HAL_TIM_IRQHandler+0xb0>
 80003a8:	07e9      	lsls	r1, r5, #31
 80003aa:	d506      	bpl.n	80003ba <HAL_TIM_IRQHandler+0xb0>
 80003ac:	f06f 0201 	mvn.w	r2, #1
 80003b0:	6823      	ldr	r3, [r4, #0]
 80003b2:	4620      	mov	r0, r4
 80003b4:	611a      	str	r2, [r3, #16]
 80003b6:	f003 f8b7 	bl	8003528 <HAL_TIM_PeriodElapsedCallback>
 80003ba:	0632      	lsls	r2, r6, #24
 80003bc:	d508      	bpl.n	80003d0 <HAL_TIM_IRQHandler+0xc6>
 80003be:	062b      	lsls	r3, r5, #24
 80003c0:	d506      	bpl.n	80003d0 <HAL_TIM_IRQHandler+0xc6>
 80003c2:	f06f 0280 	mvn.w	r2, #128	@ 0x80
 80003c6:	6823      	ldr	r3, [r4, #0]
 80003c8:	4620      	mov	r0, r4
 80003ca:	611a      	str	r2, [r3, #16]
 80003cc:	f000 f995 	bl	80006fa <HAL_TIMEx_BreakCallback>
 80003d0:	0670      	lsls	r0, r6, #25
 80003d2:	d508      	bpl.n	80003e6 <HAL_TIM_IRQHandler+0xdc>
 80003d4:	0669      	lsls	r1, r5, #25
 80003d6:	d506      	bpl.n	80003e6 <HAL_TIM_IRQHandler+0xdc>
 80003d8:	f06f 0240 	mvn.w	r2, #64	@ 0x40
 80003dc:	6823      	ldr	r3, [r4, #0]
 80003de:	4620      	mov	r0, r4
 80003e0:	611a      	str	r2, [r3, #16]
 80003e2:	f7ff ff91 	bl	8000308 <HAL_TIM_TriggerCallback>
 80003e6:	06b2      	lsls	r2, r6, #26
 80003e8:	d522      	bpl.n	8000430 <HAL_TIM_IRQHandler+0x126>
 80003ea:	06ab      	lsls	r3, r5, #26
 80003ec:	d520      	bpl.n	8000430 <HAL_TIM_IRQHandler+0x126>
 80003ee:	f06f 0220 	mvn.w	r2, #32
 80003f2:	6823      	ldr	r3, [r4, #0]
 80003f4:	4620      	mov	r0, r4
 80003f6:	e8bd 4070 	ldmia.w	sp!, {r4, r5, r6, lr}
 80003fa:	611a      	str	r2, [r3, #16]
 80003fc:	f000 b97c 	b.w	80006f8 <HAL_TIMEx_CommutCallback>
 8000400:	f7ff ff7f 	bl	8000302 <HAL_TIM_OC_DelayElapsedCallback>
 8000404:	4620      	mov	r0, r4
 8000406:	f7ff ff7e 	bl	8000306 <HAL_TIM_PWM_PulseFinishedCallback>
 800040a:	e791      	b.n	8000330 <HAL_TIM_IRQHandler+0x26>
 800040c:	f7ff ff79 	bl	8000302 <HAL_TIM_OC_DelayElapsedCallback>
 8000410:	4620      	mov	r0, r4
 8000412:	f7ff ff78 	bl	8000306 <HAL_TIM_PWM_PulseFinishedCallback>
 8000416:	e79e      	b.n	8000356 <HAL_TIM_IRQHandler+0x4c>
 8000418:	f7ff ff73 	bl	8000302 <HAL_TIM_OC_DelayElapsedCallback>
 800041c:	4620      	mov	r0, r4
 800041e:	f7ff ff72 	bl	8000306 <HAL_TIM_PWM_PulseFinishedCallback>
 8000422:	e7aa      	b.n	800037a <HAL_TIM_IRQHandler+0x70>
 8000424:	f7ff ff6d 	bl	8000302 <HAL_TIM_OC_DelayElapsedCallback>
 8000428:	4620      	mov	r0, r4
 800042a:	f7ff ff6c 	bl	8000306 <HAL_TIM_PWM_PulseFinishedCallback>
 800042e:	e7b7      	b.n	80003a0 <HAL_TIM_IRQHandler+0x96>
 8000430:	bd70      	pop	{r4, r5, r6, pc}
	...

08000434 <TIM_Base_SetConfig>:
 8000434:	4a17      	ldr	r2, [pc, #92]	@ (8000494 <TIM_Base_SetConfig+0x60>)
 8000436:	6803      	ldr	r3, [r0, #0]
 8000438:	4290      	cmp	r0, r2
 800043a:	d00a      	beq.n	8000452 <TIM_Base_SetConfig+0x1e>
 800043c:	f1b0 4f80 	cmp.w	r0, #1073741824	@ 0x40000000
 8000440:	d007      	beq.n	8000452 <TIM_Base_SetConfig+0x1e>
 8000442:	f5a2 3294 	sub.w	r2, r2, #75776	@ 0x12800
 8000446:	4290      	cmp	r0, r2
 8000448:	d003      	beq.n	8000452 <TIM_Base_SetConfig+0x1e>
 800044a:	f502 6280 	add.w	r2, r2, #1024	@ 0x400
 800044e:	4290      	cmp	r0, r2
 8000450:	d107      	bne.n	8000462 <TIM_Base_SetConfig+0x2e>
 8000452:	684a      	ldr	r2, [r1, #4]
 8000454:	f023 0370 	bic.w	r3, r3, #112	@ 0x70
 8000458:	4313      	orrs	r3, r2
 800045a:	68ca      	ldr	r2, [r1, #12]
 800045c:	f423 7340 	bic.w	r3, r3, #768	@ 0x300
 8000460:	4313      	orrs	r3, r2
 8000462:	694a      	ldr	r2, [r1, #20]
 8000464:	f023 0380 	bic.w	r3, r3, #128	@ 0x80
 8000468:	4313      	orrs	r3, r2
 800046a:	6003      	str	r3, [r0, #0]
 800046c:	688b      	ldr	r3, [r1, #8]
 800046e:	62c3      	str	r3, [r0, #44]	@ 0x2c
 8000470:	680b      	ldr	r3, [r1, #0]
 8000472:	6283      	str	r3, [r0, #40]	@ 0x28
 8000474:	4b07      	ldr	r3, [pc, #28]	@ (8000494 <TIM_Base_SetConfig+0x60>)
 8000476:	4298      	cmp	r0, r3
 8000478:	bf04      	itt	eq
 800047a:	690b      	ldreq	r3, [r1, #16]
 800047c:	6303      	streq	r3, [r0, #48]	@ 0x30
 800047e:	2301      	movs	r3, #1
 8000480:	6143      	str	r3, [r0, #20]
 8000482:	6903      	ldr	r3, [r0, #16]
 8000484:	07db      	lsls	r3, r3, #31
 8000486:	bf42      	ittt	mi
 8000488:	6903      	ldrmi	r3, [r0, #16]
 800048a:	f023 0301 	bicmi.w	r3, r3, #1
 800048e:	6103      	strmi	r3, [r0, #16]
 8000490:	4770      	bx	lr
 8000492:	bf00      	nop
 8000494:	40012c00 	.word	0x40012c00

08000498 <HAL_TIM_Base_Init>:
 8000498:	b510      	push	{r4, lr}
 800049a:	4604      	mov	r4, r0
 800049c:	b330      	cbz	r0, 80004ec <HAL_TIM_Base_Init+0x54>
 800049e:	f890 303d 	ldrb.w	r3, [r0, #61]	@ 0x3d
 80004a2:	f003 02ff 	and.w	r2, r3, #255	@ 0xff
 80004a6:	b91b      	cbnz	r3, 80004b0 <HAL_TIM_Base_Init+0x18>
 80004a8:	f880 203c 	strb.w	r2, [r0, #60]	@ 0x3c
 80004ac:	f7ff fece 	bl	800024c <HAL_TIM_Base_MspInit>
 80004b0:	2302      	movs	r3, #2
 80004b2:	6820      	ldr	r0, [r4, #0]
 80004b4:	f884 303d 	strb.w	r3, [r4, #61]	@ 0x3d
 80004b8:	1d21      	adds	r1, r4, #4
 80004ba:	f7ff ffbb 	bl	8000434 <TIM_Base_SetConfig>
 80004be:	2301      	movs	r3, #1
 80004c0:	2000      	movs	r0, #0
 80004c2:	f884 3046 	strb.w	r3, [r4, #70]	@ 0x46
 80004c6:	f884 303e 	strb.w	r3, [r4, #62]	@ 0x3e
 80004ca:	f884 303f 	strb.w	r3, [r4, #63]	@ 0x3f
 80004ce:	f884 3040 	strb.w	r3, [r4, #64]	@ 0x40
 80004d2:	f884 3041 	strb.w	r3, [r4, #65]	@ 0x41
 80004d6:	f884 3042 	strb.w	r3, [r4, #66]	@ 0x42
 80004da:	f884 3043 	strb.w	r3, [r4, #67]	@ 0x43
 80004de:	f884 3044 	strb.w	r3, [r4, #68]	@ 0x44
 80004e2:	f884 3045 	strb.w	r3, [r4, #69]	@ 0x45
 80004e6:	f884 303d 	strb.w	r3, [r4, #61]	@ 0x3d
 80004ea:	bd10      	pop	{r4, pc}
 80004ec:	2001      	movs	r0, #1
 80004ee:	e7fc      	b.n	80004ea <HAL_TIM_Base_Init+0x52>

080004f0 <HAL_TIM_PWM_Init>:
 80004f0:	b510      	push	{r4, lr}
 80004f2:	4604      	mov	r4, r0
 80004f4:	b330      	cbz	r0, 8000544 <HAL_TIM_PWM_Init+0x54>
 80004f6:	f890 303d 	ldrb.w	r3, [r0, #61]	@ 0x3d
 80004fa:	f003 02ff 	and.w	r2, r3, #255	@ 0xff
 80004fe:	b91b      	cbnz	r3, 8000508 <HAL_TIM_PWM_Init+0x18>
 8000500:	f880 203c 	strb.w	r2, [r0, #60]	@ 0x3c
 8000504:	f003 f938 	bl	8003778 <HAL_TIM_PWM_MspInit>
 8000508:	2302      	movs	r3, #2
 800050a:	6820      	ldr	r0, [r4, #0]
 800050c:	f884 303d 	strb.w	r3, [r4, #61]	@ 0x3d
 8000510:	1d21      	adds	r1, r4, #4
 8000512:	f7ff ff8f 	bl	8000434 <TIM_Base_SetConfig>
 8000516:	2301      	movs	r3, #1
 8000518:	2000      	movs	r0, #0
 800051a:	f884 3046 	strb.w	r3, [r4, #70]	@ 0x46
 800051e:	f884 303e 	strb.w	r3, [r4, #62]	@ 0x3e
 8000522:	f884 303f 	strb.w	r3, [r4, #63]	@ 0x3f
 8000526:	f884 3040 	strb.w	r3, [r4, #64]	@ 0x40
 800052a:	f884 3041 	strb.w	r3, [r4, #65]	@ 0x41
 800052e:	f884 3042 	strb.w	r3, [r4, #66]	@ 0x42
 8000532:	f884 3043 	strb.w	r3, [r4, #67]	@ 0x43
 8000536:	f884 3044 	strb.w	r3, [r4, #68]	@ 0x44
 800053a:	f884 3045 	strb.w	r3, [r4, #69]	@ 0x45
 800053e:	f884 303d 	strb.w	r3, [r4, #61]	@ 0x3d
 8000542:	bd10      	pop	{r4, pc}
 8000544:	2001      	movs	r0, #1
 8000546:	e7fc      	b.n	8000542 <HAL_TIM_PWM_Init+0x52>

08000548 <TIM_OC2_SetConfig>:
 8000548:	6a03      	ldr	r3, [r0, #32]
 800054a:	6a02      	ldr	r2, [r0, #32]
 800054c:	b570      	push	{r4, r5, r6, lr}
 800054e:	f022 0210 	bic.w	r2, r2, #16
 8000552:	6202      	str	r2, [r0, #32]
 8000554:	6844      	ldr	r4, [r0, #4]
 8000556:	6982      	ldr	r2, [r0, #24]
 8000558:	680d      	ldr	r5, [r1, #0]
 800055a:	f422 42e6 	bic.w	r2, r2, #29440	@ 0x7300
 800055e:	ea42 2205 	orr.w	r2, r2, r5, lsl #8
 8000562:	688d      	ldr	r5, [r1, #8]
 8000564:	f023 0320 	bic.w	r3, r3, #32
 8000568:	ea43 1305 	orr.w	r3, r3, r5, lsl #4
 800056c:	4d0b      	ldr	r5, [pc, #44]	@ (800059c <TIM_OC2_SetConfig+0x54>)
 800056e:	42a8      	cmp	r0, r5
 8000570:	d10d      	bne.n	800058e <TIM_OC2_SetConfig+0x46>
 8000572:	68cd      	ldr	r5, [r1, #12]
 8000574:	f023 0380 	bic.w	r3, r3, #128	@ 0x80
 8000578:	ea43 1305 	orr.w	r3, r3, r5, lsl #4
 800057c:	f424 6440 	bic.w	r4, r4, #3072	@ 0xc00
 8000580:	e9d1 5605 	ldrd	r5, r6, [r1, #20]
 8000584:	4335      	orrs	r5, r6
 8000586:	f023 0340 	bic.w	r3, r3, #64	@ 0x40
 800058a:	ea44 0485 	orr.w	r4, r4, r5, lsl #2
 800058e:	6044      	str	r4, [r0, #4]
 8000590:	6182      	str	r2, [r0, #24]
 8000592:	684a      	ldr	r2, [r1, #4]
 8000594:	6382      	str	r2, [r0, #56]	@ 0x38
 8000596:	6203      	str	r3, [r0, #32]
 8000598:	bd70      	pop	{r4, r5, r6, pc}
 800059a:	bf00      	nop
 800059c:	40012c00 	.word	0x40012c00

080005a0 <HAL_TIM_PWM_ConfigChannel>:
 80005a0:	b538      	push	{r3, r4, r5, lr}
 80005a2:	f890 303c 	ldrb.w	r3, [r0, #60]	@ 0x3c
 80005a6:	4604      	mov	r4, r0
 80005a8:	2b01      	cmp	r3, #1
 80005aa:	d04f      	beq.n	800064c <HAL_TIM_PWM_ConfigChannel+0xac>
 80005ac:	2001      	movs	r0, #1
 80005ae:	2a08      	cmp	r2, #8
 80005b0:	f884 003c 	strb.w	r0, [r4, #60]	@ 0x3c
 80005b4:	d03a      	beq.n	800062c <HAL_TIM_PWM_ConfigChannel+0x8c>
 80005b6:	d806      	bhi.n	80005c6 <HAL_TIM_PWM_ConfigChannel+0x26>
 80005b8:	b1ba      	cbz	r2, 80005ea <HAL_TIM_PWM_ConfigChannel+0x4a>
 80005ba:	2a04      	cmp	r2, #4
 80005bc:	d026      	beq.n	800060c <HAL_TIM_PWM_ConfigChannel+0x6c>
 80005be:	2300      	movs	r3, #0
 80005c0:	f884 303c 	strb.w	r3, [r4, #60]	@ 0x3c
 80005c4:	bd38      	pop	{r3, r4, r5, pc}
 80005c6:	2a0c      	cmp	r2, #12
 80005c8:	d1f9      	bne.n	80005be <HAL_TIM_PWM_ConfigChannel+0x1e>
 80005ca:	6820      	ldr	r0, [r4, #0]
 80005cc:	f7ff fe1c 	bl	8000208 <TIM_OC4_SetConfig>
 80005d0:	69c3      	ldr	r3, [r0, #28]
 80005d2:	690a      	ldr	r2, [r1, #16]
 80005d4:	f443 6300 	orr.w	r3, r3, #2048	@ 0x800
 80005d8:	61c3      	str	r3, [r0, #28]
 80005da:	69c3      	ldr	r3, [r0, #28]
 80005dc:	f423 6380 	bic.w	r3, r3, #1024	@ 0x400
 80005e0:	61c3      	str	r3, [r0, #28]
 80005e2:	69c3      	ldr	r3, [r0, #28]
 80005e4:	ea43 2302 	orr.w	r3, r3, r2, lsl #8
 80005e8:	e02e      	b.n	8000648 <HAL_TIM_PWM_ConfigChannel+0xa8>
 80005ea:	6820      	ldr	r0, [r4, #0]
 80005ec:	f7ff fdba 	bl	8000164 <TIM_OC1_SetConfig>
 80005f0:	6983      	ldr	r3, [r0, #24]
 80005f2:	690a      	ldr	r2, [r1, #16]
 80005f4:	f043 0308 	orr.w	r3, r3, #8
 80005f8:	6183      	str	r3, [r0, #24]
 80005fa:	6983      	ldr	r3, [r0, #24]
 80005fc:	f023 0304 	bic.w	r3, r3, #4
 8000600:	6183      	str	r3, [r0, #24]
 8000602:	6983      	ldr	r3, [r0, #24]
 8000604:	4313      	orrs	r3, r2
 8000606:	6183      	str	r3, [r0, #24]
 8000608:	2000      	movs	r0, #0
 800060a:	e7d8      	b.n	80005be <HAL_TIM_PWM_ConfigChannel+0x1e>
 800060c:	6820      	ldr	r0, [r4, #0]
 800060e:	f7ff ff9b 	bl	8000548 <TIM_OC2_SetConfig>
 8000612:	6983      	ldr	r3, [r0, #24]
 8000614:	690a      	ldr	r2, [r1, #16]
 8000616:	f443 6300 	orr.w	r3, r3, #2048	@ 0x800
 800061a:	6183      	str	r3, [r0, #24]
 800061c:	6983      	ldr	r3, [r0, #24]
 800061e:	f423 6380 	bic.w	r3, r3, #1024	@ 0x400
 8000622:	6183      	str	r3, [r0, #24]
 8000624:	6983      	ldr	r3, [r0, #24]
 8000626:	ea43 2302 	orr.w	r3, r3, r2, lsl #8
 800062a:	e7ec      	b.n	8000606 <HAL_TIM_PWM_ConfigChannel+0x66>
 800062c:	6820      	ldr	r0, [r4, #0]
 800062e:	f7ff fdc1 	bl	80001b4 <TIM_OC3_SetConfig>
 8000632:	69c3      	ldr	r3, [r0, #28]
 8000634:	690a      	ldr	r2, [r1, #16]
 8000636:	f043 0308 	orr.w	r3, r3, #8
 800063a:	61c3      	str	r3, [r0, #28]
 800063c:	69c3      	ldr	r3, [r0, #28]
 800063e:	f023 0304 	bic.w	r3, r3, #4
 8000642:	61c3      	str	r3, [r0, #28]
 8000644:	69c3      	ldr	r3, [r0, #28]
 8000646:	4313      	orrs	r3, r2
 8000648:	61c3      	str	r3, [r0, #28]
 800064a:	e7dd      	b.n	8000608 <HAL_TIM_PWM_ConfigChannel+0x68>
 800064c:	2002      	movs	r0, #2
 800064e:	e7b9      	b.n	80005c4 <HAL_TIM_PWM_ConfigChannel+0x24>

08000650 <HAL_TIMEx_MasterConfigSynchronization>:
 8000650:	b530      	push	{r4, r5, lr}
 8000652:	f890 303c 	ldrb.w	r3, [r0, #60]	@ 0x3c
 8000656:	4602      	mov	r2, r0
 8000658:	2b01      	cmp	r3, #1
 800065a:	f04f 0002 	mov.w	r0, #2
 800065e:	d022      	beq.n	80006a6 <HAL_TIMEx_MasterConfigSynchronization+0x56>
 8000660:	6813      	ldr	r3, [r2, #0]
 8000662:	f882 003d 	strb.w	r0, [r2, #61]	@ 0x3d
 8000666:	685c      	ldr	r4, [r3, #4]
 8000668:	680d      	ldr	r5, [r1, #0]
 800066a:	f024 0470 	bic.w	r4, r4, #112	@ 0x70
 800066e:	432c      	orrs	r4, r5
 8000670:	6898      	ldr	r0, [r3, #8]
 8000672:	605c      	str	r4, [r3, #4]
 8000674:	4c0c      	ldr	r4, [pc, #48]	@ (80006a8 <HAL_TIMEx_MasterConfigSynchronization+0x58>)
 8000676:	42a3      	cmp	r3, r4
 8000678:	d00a      	beq.n	8000690 <HAL_TIMEx_MasterConfigSynchronization+0x40>
 800067a:	f1b3 4f80 	cmp.w	r3, #1073741824	@ 0x40000000
 800067e:	d007      	beq.n	8000690 <HAL_TIMEx_MasterConfigSynchronization+0x40>
 8000680:	f5a4 3494 	sub.w	r4, r4, #75776	@ 0x12800
 8000684:	42a3      	cmp	r3, r4
 8000686:	d003      	beq.n	8000690 <HAL_TIMEx_MasterConfigSynchronization+0x40>
 8000688:	f504 6480 	add.w	r4, r4, #1024	@ 0x400
 800068c:	42a3      	cmp	r3, r4
 800068e:	d104      	bne.n	800069a <HAL_TIMEx_MasterConfigSynchronization+0x4a>
 8000690:	6849      	ldr	r1, [r1, #4]
 8000692:	f020 0080 	bic.w	r0, r0, #128	@ 0x80
 8000696:	4301      	orrs	r1, r0
 8000698:	6099      	str	r1, [r3, #8]
 800069a:	2301      	movs	r3, #1
 800069c:	2000      	movs	r0, #0
 800069e:	f882 303d 	strb.w	r3, [r2, #61]	@ 0x3d
 80006a2:	f882 003c 	strb.w	r0, [r2, #60]	@ 0x3c
 80006a6:	bd30      	pop	{r4, r5, pc}
 80006a8:	40012c00 	.word	0x40012c00

080006ac <HAL_TIMEx_ConfigBreakDeadTime>:
 80006ac:	f890 303c 	ldrb.w	r3, [r0, #60]	@ 0x3c
 80006b0:	4602      	mov	r2, r0
 80006b2:	2b01      	cmp	r3, #1
 80006b4:	d01e      	beq.n	80006f4 <HAL_TIMEx_ConfigBreakDeadTime+0x48>
 80006b6:	68cb      	ldr	r3, [r1, #12]
 80006b8:	6888      	ldr	r0, [r1, #8]
 80006ba:	f423 7340 	bic.w	r3, r3, #768	@ 0x300
 80006be:	4303      	orrs	r3, r0
 80006c0:	6848      	ldr	r0, [r1, #4]
 80006c2:	f423 6380 	bic.w	r3, r3, #1024	@ 0x400
 80006c6:	4303      	orrs	r3, r0
 80006c8:	6808      	ldr	r0, [r1, #0]
 80006ca:	f423 6300 	bic.w	r3, r3, #2048	@ 0x800
 80006ce:	4303      	orrs	r3, r0
 80006d0:	6908      	ldr	r0, [r1, #16]
 80006d2:	f423 5380 	bic.w	r3, r3, #4096	@ 0x1000
 80006d6:	4303      	orrs	r3, r0
 80006d8:	6948      	ldr	r0, [r1, #20]
 80006da:	f423 5300 	bic.w	r3, r3, #8192	@ 0x2000
 80006de:	4303      	orrs	r3, r0
 80006e0:	2000      	movs	r0, #0
 80006e2:	69c9      	ldr	r1, [r1, #28]
 80006e4:	f423 4380 	bic.w	r3, r3, #16384	@ 0x4000
 80006e8:	430b      	orrs	r3, r1
 80006ea:	6811      	ldr	r1, [r2, #0]
 80006ec:	644b      	str	r3, [r1, #68]	@ 0x44
 80006ee:	f882 003c 	strb.w	r0, [r2, #60]	@ 0x3c
 80006f2:	4770      	bx	lr
 80006f4:	2002      	movs	r0, #2
 80006f6:	4770      	bx	lr

080006f8 <HAL_TIMEx_CommutCallback>:
 80006f8:	4770      	bx	lr

080006fa <HAL_TIMEx_BreakCallback>:
 80006fa:	4770      	bx	lr

080006fc <HAL_ADC_PollForConversion>:
 80006fc:	b5f7      	push	{r0, r1, r2, r4, r5, r6, r7, lr}
 80006fe:	2600      	movs	r6, #0
 8000700:	4604      	mov	r4, r0
 8000702:	460d      	mov	r5, r1
 8000704:	9601      	str	r6, [sp, #4]
 8000706:	f000 faf1 	bl	8000cec <HAL_GetTick>
 800070a:	6823      	ldr	r3, [r4, #0]
 800070c:	4607      	mov	r7, r0
 800070e:	689a      	ldr	r2, [r3, #8]
 8000710:	05d1      	lsls	r1, r2, #23
 8000712:	d508      	bpl.n	8000726 <HAL_ADC_PollForConversion+0x2a>
 8000714:	2001      	movs	r0, #1
 8000716:	6aa3      	ldr	r3, [r4, #40]	@ 0x28
 8000718:	f884 6024 	strb.w	r6, [r4, #36]	@ 0x24
 800071c:	f043 0320 	orr.w	r3, r3, #32
 8000720:	62a3      	str	r3, [r4, #40]	@ 0x28
 8000722:	b003      	add	sp, #12
 8000724:	bdf0      	pop	{r4, r5, r6, r7, pc}
 8000726:	685a      	ldr	r2, [r3, #4]
 8000728:	05d2      	lsls	r2, r2, #23
 800072a:	d403      	bmi.n	8000734 <HAL_ADC_PollForConversion+0x38>
 800072c:	6adb      	ldr	r3, [r3, #44]	@ 0x2c
 800072e:	f413 0f70 	tst.w	r3, #15728640	@ 0xf00000
 8000732:	d03d      	beq.n	80007b0 <HAL_ADC_PollForConversion+0xb4>
 8000734:	4b3d      	ldr	r3, [pc, #244]	@ (800082c <HAL_ADC_PollForConversion+0x130>)
 8000736:	2002      	movs	r0, #2
 8000738:	681e      	ldr	r6, [r3, #0]
 800073a:	f000 fe71 	bl	8001420 <HAL_RCCEx_GetPeriphCLKFreq>
 800073e:	6823      	ldr	r3, [r4, #0]
 8000740:	4a3b      	ldr	r2, [pc, #236]	@ (8000830 <HAL_ADC_PollForConversion+0x134>)
 8000742:	6919      	ldr	r1, [r3, #16]
 8000744:	fbb6 f6f0 	udiv	r6, r6, r0
 8000748:	4211      	tst	r1, r2
 800074a:	4a3a      	ldr	r2, [pc, #232]	@ (8000834 <HAL_ADC_PollForConversion+0x138>)
 800074c:	d151      	bne.n	80007f2 <HAL_ADC_PollForConversion+0xf6>
 800074e:	68d8      	ldr	r0, [r3, #12]
 8000750:	4939      	ldr	r1, [pc, #228]	@ (8000838 <HAL_ADC_PollForConversion+0x13c>)
 8000752:	4208      	tst	r0, r1
 8000754:	d14d      	bne.n	80007f2 <HAL_ADC_PollForConversion+0xf6>
 8000756:	6919      	ldr	r1, [r3, #16]
 8000758:	4211      	tst	r1, r2
 800075a:	d15b      	bne.n	8000814 <HAL_ADC_PollForConversion+0x118>
 800075c:	68da      	ldr	r2, [r3, #12]
 800075e:	4b37      	ldr	r3, [pc, #220]	@ (800083c <HAL_ADC_PollForConversion+0x140>)
 8000760:	421a      	tst	r2, r3
 8000762:	bf0c      	ite	eq
 8000764:	2314      	moveq	r3, #20
 8000766:	2329      	movne	r3, #41	@ 0x29
 8000768:	435e      	muls	r6, r3
 800076a:	9b01      	ldr	r3, [sp, #4]
 800076c:	42b3      	cmp	r3, r6
 800076e:	d223      	bcs.n	80007b8 <HAL_ADC_PollForConversion+0xbc>
 8000770:	1c6a      	adds	r2, r5, #1
 8000772:	d004      	beq.n	800077e <HAL_ADC_PollForConversion+0x82>
 8000774:	2d00      	cmp	r5, #0
 8000776:	d153      	bne.n	8000820 <HAL_ADC_PollForConversion+0x124>
 8000778:	9b01      	ldr	r3, [sp, #4]
 800077a:	42b3      	cmp	r3, r6
 800077c:	d30a      	bcc.n	8000794 <HAL_ADC_PollForConversion+0x98>
 800077e:	9b01      	ldr	r3, [sp, #4]
 8000780:	3301      	adds	r3, #1
 8000782:	9301      	str	r3, [sp, #4]
 8000784:	e7f1      	b.n	800076a <HAL_ADC_PollForConversion+0x6e>
 8000786:	1c6e      	adds	r6, r5, #1
 8000788:	d013      	beq.n	80007b2 <HAL_ADC_PollForConversion+0xb6>
 800078a:	b965      	cbnz	r5, 80007a6 <HAL_ADC_PollForConversion+0xaa>
 800078c:	6823      	ldr	r3, [r4, #0]
 800078e:	681b      	ldr	r3, [r3, #0]
 8000790:	0798      	lsls	r0, r3, #30
 8000792:	d40d      	bmi.n	80007b0 <HAL_ADC_PollForConversion+0xb4>
 8000794:	6aa3      	ldr	r3, [r4, #40]	@ 0x28
 8000796:	2003      	movs	r0, #3
 8000798:	f043 0304 	orr.w	r3, r3, #4
 800079c:	62a3      	str	r3, [r4, #40]	@ 0x28
 800079e:	2300      	movs	r3, #0
 80007a0:	f884 3024 	strb.w	r3, [r4, #36]	@ 0x24
 80007a4:	e7bd      	b.n	8000722 <HAL_ADC_PollForConversion+0x26>
 80007a6:	f000 faa1 	bl	8000cec <HAL_GetTick>
 80007aa:	1bc0      	subs	r0, r0, r7
 80007ac:	42a8      	cmp	r0, r5
 80007ae:	d8ed      	bhi.n	800078c <HAL_ADC_PollForConversion+0x90>
 80007b0:	6822      	ldr	r2, [r4, #0]
 80007b2:	6813      	ldr	r3, [r2, #0]
 80007b4:	0799      	lsls	r1, r3, #30
 80007b6:	d5e6      	bpl.n	8000786 <HAL_ADC_PollForConversion+0x8a>
 80007b8:	f06f 0312 	mvn.w	r3, #18
 80007bc:	6822      	ldr	r2, [r4, #0]
 80007be:	6013      	str	r3, [r2, #0]
 80007c0:	6aa3      	ldr	r3, [r4, #40]	@ 0x28
 80007c2:	f443 7300 	orr.w	r3, r3, #512	@ 0x200
 80007c6:	62a3      	str	r3, [r4, #40]	@ 0x28
 80007c8:	6893      	ldr	r3, [r2, #8]
 80007ca:	f403 2360 	and.w	r3, r3, #917504	@ 0xe0000
 80007ce:	f5b3 2f60 	cmp.w	r3, #917504	@ 0xe0000
 80007d2:	d10c      	bne.n	80007ee <HAL_ADC_PollForConversion+0xf2>
 80007d4:	7b23      	ldrb	r3, [r4, #12]
 80007d6:	b953      	cbnz	r3, 80007ee <HAL_ADC_PollForConversion+0xf2>
 80007d8:	6aa3      	ldr	r3, [r4, #40]	@ 0x28
 80007da:	f423 7380 	bic.w	r3, r3, #256	@ 0x100
 80007de:	62a3      	str	r3, [r4, #40]	@ 0x28
 80007e0:	6aa3      	ldr	r3, [r4, #40]	@ 0x28
 80007e2:	04db      	lsls	r3, r3, #19
 80007e4:	d403      	bmi.n	80007ee <HAL_ADC_PollForConversion+0xf2>
 80007e6:	6aa3      	ldr	r3, [r4, #40]	@ 0x28
 80007e8:	f043 0301 	orr.w	r3, r3, #1
 80007ec:	62a3      	str	r3, [r4, #40]	@ 0x28
 80007ee:	2000      	movs	r0, #0
 80007f0:	e797      	b.n	8000722 <HAL_ADC_PollForConversion+0x26>
 80007f2:	6919      	ldr	r1, [r3, #16]
 80007f4:	4211      	tst	r1, r2
 80007f6:	d103      	bne.n	8000800 <HAL_ADC_PollForConversion+0x104>
 80007f8:	68d9      	ldr	r1, [r3, #12]
 80007fa:	4a10      	ldr	r2, [pc, #64]	@ (800083c <HAL_ADC_PollForConversion+0x140>)
 80007fc:	4211      	tst	r1, r2
 80007fe:	d00b      	beq.n	8000818 <HAL_ADC_PollForConversion+0x11c>
 8000800:	6919      	ldr	r1, [r3, #16]
 8000802:	4a0f      	ldr	r2, [pc, #60]	@ (8000840 <HAL_ADC_PollForConversion+0x144>)
 8000804:	4211      	tst	r1, r2
 8000806:	d109      	bne.n	800081c <HAL_ADC_PollForConversion+0x120>
 8000808:	68db      	ldr	r3, [r3, #12]
 800080a:	4213      	tst	r3, r2
 800080c:	bf0c      	ite	eq
 800080e:	2354      	moveq	r3, #84	@ 0x54
 8000810:	23fc      	movne	r3, #252	@ 0xfc
 8000812:	e7a9      	b.n	8000768 <HAL_ADC_PollForConversion+0x6c>
 8000814:	2329      	movs	r3, #41	@ 0x29
 8000816:	e7a7      	b.n	8000768 <HAL_ADC_PollForConversion+0x6c>
 8000818:	2354      	movs	r3, #84	@ 0x54
 800081a:	e7a5      	b.n	8000768 <HAL_ADC_PollForConversion+0x6c>
 800081c:	23fc      	movs	r3, #252	@ 0xfc
 800081e:	e7a3      	b.n	8000768 <HAL_ADC_PollForConversion+0x6c>
 8000820:	f000 fa64 	bl	8000cec <HAL_GetTick>
 8000824:	1bc0      	subs	r0, r0, r7
 8000826:	42a8      	cmp	r0, r5
 8000828:	d8a6      	bhi.n	8000778 <HAL_ADC_PollForConversion+0x7c>
 800082a:	e7a8      	b.n	800077e <HAL_ADC_PollForConversion+0x82>
 800082c:	20000000 	.word	0x20000000
 8000830:	24924924 	.word	0x24924924
 8000834:	12492492 	.word	0x12492492
 8000838:	00924924 	.word	0x00924924
 800083c:	00492492 	.word	0x00492492
 8000840:	00249249 	.word	0x00249249

08000844 <HAL_ADC_GetValue>:
 8000844:	6803      	ldr	r3, [r0, #0]
 8000846:	6cd8      	ldr	r0, [r3, #76]	@ 0x4c
 8000848:	4770      	bx	lr
	...

0800084c <HAL_ADC_ConfigChannel>:
 800084c:	2300      	movs	r3, #0
 800084e:	b573      	push	{r0, r1, r4, r5, r6, lr}
 8000850:	9301      	str	r3, [sp, #4]
 8000852:	f890 3024 	ldrb.w	r3, [r0, #36]	@ 0x24
 8000856:	4604      	mov	r4, r0
 8000858:	2b01      	cmp	r3, #1
 800085a:	d06c      	beq.n	8000936 <HAL_ADC_ConfigChannel+0xea>
 800085c:	2301      	movs	r3, #1
 800085e:	f880 3024 	strb.w	r3, [r0, #36]	@ 0x24
 8000862:	684d      	ldr	r5, [r1, #4]
 8000864:	6802      	ldr	r2, [r0, #0]
 8000866:	2d06      	cmp	r5, #6
 8000868:	6808      	ldr	r0, [r1, #0]
 800086a:	eb05 0385 	add.w	r3, r5, r5, lsl #2
 800086e:	d822      	bhi.n	80008b6 <HAL_ADC_ConfigChannel+0x6a>
 8000870:	261f      	movs	r6, #31
 8000872:	6b55      	ldr	r5, [r2, #52]	@ 0x34
 8000874:	3b05      	subs	r3, #5
 8000876:	409e      	lsls	r6, r3
 8000878:	ea25 0506 	bic.w	r5, r5, r6
 800087c:	fa00 f303 	lsl.w	r3, r0, r3
 8000880:	432b      	orrs	r3, r5
 8000882:	6353      	str	r3, [r2, #52]	@ 0x34
 8000884:	2809      	cmp	r0, #9
 8000886:	688b      	ldr	r3, [r1, #8]
 8000888:	eb00 0540 	add.w	r5, r0, r0, lsl #1
 800088c:	f04f 0107 	mov.w	r1, #7
 8000890:	d929      	bls.n	80008e6 <HAL_ADC_ConfigChannel+0x9a>
 8000892:	68d6      	ldr	r6, [r2, #12]
 8000894:	3d1e      	subs	r5, #30
 8000896:	40a9      	lsls	r1, r5
 8000898:	ea26 0101 	bic.w	r1, r6, r1
 800089c:	40ab      	lsls	r3, r5
 800089e:	430b      	orrs	r3, r1
 80008a0:	60d3      	str	r3, [r2, #12]
 80008a2:	f1a0 0310 	sub.w	r3, r0, #16
 80008a6:	2b01      	cmp	r3, #1
 80008a8:	d925      	bls.n	80008f6 <HAL_ADC_ConfigChannel+0xaa>
 80008aa:	2000      	movs	r0, #0
 80008ac:	2300      	movs	r3, #0
 80008ae:	f884 3024 	strb.w	r3, [r4, #36]	@ 0x24
 80008b2:	b002      	add	sp, #8
 80008b4:	bd70      	pop	{r4, r5, r6, pc}
 80008b6:	2d0c      	cmp	r5, #12
 80008b8:	f04f 051f 	mov.w	r5, #31
 80008bc:	d809      	bhi.n	80008d2 <HAL_ADC_ConfigChannel+0x86>
 80008be:	6b16      	ldr	r6, [r2, #48]	@ 0x30
 80008c0:	3b23      	subs	r3, #35	@ 0x23
 80008c2:	409d      	lsls	r5, r3
 80008c4:	ea26 0505 	bic.w	r5, r6, r5
 80008c8:	fa00 f303 	lsl.w	r3, r0, r3
 80008cc:	432b      	orrs	r3, r5
 80008ce:	6313      	str	r3, [r2, #48]	@ 0x30
 80008d0:	e7d8      	b.n	8000884 <HAL_ADC_ConfigChannel+0x38>
 80008d2:	6ad6      	ldr	r6, [r2, #44]	@ 0x2c
 80008d4:	3b41      	subs	r3, #65	@ 0x41
 80008d6:	409d      	lsls	r5, r3
 80008d8:	ea26 0505 	bic.w	r5, r6, r5
 80008dc:	fa00 f303 	lsl.w	r3, r0, r3
 80008e0:	432b      	orrs	r3, r5
 80008e2:	62d3      	str	r3, [r2, #44]	@ 0x2c
 80008e4:	e7ce      	b.n	8000884 <HAL_ADC_ConfigChannel+0x38>
 80008e6:	6910      	ldr	r0, [r2, #16]
 80008e8:	40a9      	lsls	r1, r5
 80008ea:	ea20 0101 	bic.w	r1, r0, r1
 80008ee:	40ab      	lsls	r3, r5
 80008f0:	430b      	orrs	r3, r1
 80008f2:	6113      	str	r3, [r2, #16]
 80008f4:	e7d9      	b.n	80008aa <HAL_ADC_ConfigChannel+0x5e>
 80008f6:	4b11      	ldr	r3, [pc, #68]	@ (800093c <HAL_ADC_ConfigChannel+0xf0>)
 80008f8:	429a      	cmp	r2, r3
 80008fa:	d116      	bne.n	800092a <HAL_ADC_ConfigChannel+0xde>
 80008fc:	6893      	ldr	r3, [r2, #8]
 80008fe:	021b      	lsls	r3, r3, #8
 8000900:	d4d3      	bmi.n	80008aa <HAL_ADC_ConfigChannel+0x5e>
 8000902:	6893      	ldr	r3, [r2, #8]
 8000904:	2810      	cmp	r0, #16
 8000906:	f443 0300 	orr.w	r3, r3, #8388608	@ 0x800000
 800090a:	6093      	str	r3, [r2, #8]
 800090c:	d1cd      	bne.n	80008aa <HAL_ADC_ConfigChannel+0x5e>
 800090e:	4b0c      	ldr	r3, [pc, #48]	@ (8000940 <HAL_ADC_ConfigChannel+0xf4>)
 8000910:	4a0c      	ldr	r2, [pc, #48]	@ (8000944 <HAL_ADC_ConfigChannel+0xf8>)
 8000912:	681b      	ldr	r3, [r3, #0]
 8000914:	fbb3 f3f2 	udiv	r3, r3, r2
 8000918:	220a      	movs	r2, #10
 800091a:	4353      	muls	r3, r2
 800091c:	9301      	str	r3, [sp, #4]
 800091e:	9b01      	ldr	r3, [sp, #4]
 8000920:	2b00      	cmp	r3, #0
 8000922:	d0c2      	beq.n	80008aa <HAL_ADC_ConfigChannel+0x5e>
 8000924:	9b01      	ldr	r3, [sp, #4]
 8000926:	3b01      	subs	r3, #1
 8000928:	e7f8      	b.n	800091c <HAL_ADC_ConfigChannel+0xd0>
 800092a:	6aa3      	ldr	r3, [r4, #40]	@ 0x28
 800092c:	2001      	movs	r0, #1
 800092e:	f043 0320 	orr.w	r3, r3, #32
 8000932:	62a3      	str	r3, [r4, #40]	@ 0x28
 8000934:	e7ba      	b.n	80008ac <HAL_ADC_ConfigChannel+0x60>
 8000936:	2002      	movs	r0, #2
 8000938:	e7bb      	b.n	80008b2 <HAL_ADC_ConfigChannel+0x66>
 800093a:	bf00      	nop
 800093c:	40012400 	.word	0x40012400
 8000940:	20000000 	.word	0x20000000
 8000944:	000f4240 	.word	0x000f4240

08000948 <ADC_Enable>:
 8000948:	2300      	movs	r3, #0
 800094a:	b537      	push	{r0, r1, r2, r4, r5, lr}
 800094c:	9301      	str	r3, [sp, #4]
 800094e:	6803      	ldr	r3, [r0, #0]
 8000950:	4604      	mov	r4, r0
 8000952:	689a      	ldr	r2, [r3, #8]
 8000954:	07d2      	lsls	r2, r2, #31
 8000956:	d502      	bpl.n	800095e <ADC_Enable+0x16>
 8000958:	2000      	movs	r0, #0
 800095a:	b003      	add	sp, #12
 800095c:	bd30      	pop	{r4, r5, pc}
 800095e:	689a      	ldr	r2, [r3, #8]
 8000960:	f042 0201 	orr.w	r2, r2, #1
 8000964:	609a      	str	r2, [r3, #8]
 8000966:	4b14      	ldr	r3, [pc, #80]	@ (80009b8 <ADC_Enable+0x70>)
 8000968:	4a14      	ldr	r2, [pc, #80]	@ (80009bc <ADC_Enable+0x74>)
 800096a:	681b      	ldr	r3, [r3, #0]
 800096c:	fbb3 f3f2 	udiv	r3, r3, r2
 8000970:	9301      	str	r3, [sp, #4]
 8000972:	9b01      	ldr	r3, [sp, #4]
 8000974:	b9e3      	cbnz	r3, 80009b0 <ADC_Enable+0x68>
 8000976:	f000 f9b9 	bl	8000cec <HAL_GetTick>
 800097a:	4605      	mov	r5, r0
 800097c:	6823      	ldr	r3, [r4, #0]
 800097e:	689b      	ldr	r3, [r3, #8]
 8000980:	07db      	lsls	r3, r3, #31
 8000982:	d4e9      	bmi.n	8000958 <ADC_Enable+0x10>
 8000984:	f000 f9b2 	bl	8000cec <HAL_GetTick>
 8000988:	1b40      	subs	r0, r0, r5
 800098a:	2802      	cmp	r0, #2
 800098c:	d9f6      	bls.n	800097c <ADC_Enable+0x34>
 800098e:	6823      	ldr	r3, [r4, #0]
 8000990:	689b      	ldr	r3, [r3, #8]
 8000992:	f013 0301 	ands.w	r3, r3, #1
 8000996:	d1f1      	bne.n	800097c <ADC_Enable+0x34>
 8000998:	6aa2      	ldr	r2, [r4, #40]	@ 0x28
 800099a:	2001      	movs	r0, #1
 800099c:	f042 0210 	orr.w	r2, r2, #16
 80009a0:	62a2      	str	r2, [r4, #40]	@ 0x28
 80009a2:	6ae2      	ldr	r2, [r4, #44]	@ 0x2c
 80009a4:	f884 3024 	strb.w	r3, [r4, #36]	@ 0x24
 80009a8:	f042 0201 	orr.w	r2, r2, #1
 80009ac:	62e2      	str	r2, [r4, #44]	@ 0x2c
 80009ae:	e7d4      	b.n	800095a <ADC_Enable+0x12>
 80009b0:	9b01      	ldr	r3, [sp, #4]
 80009b2:	3b01      	subs	r3, #1
 80009b4:	e7dc      	b.n	8000970 <ADC_Enable+0x28>
 80009b6:	bf00      	nop
 80009b8:	20000000 	.word	0x20000000
 80009bc:	000f4240 	.word	0x000f4240

080009c0 <HAL_ADC_Start>:
 80009c0:	b510      	push	{r4, lr}
 80009c2:	f890 3024 	ldrb.w	r3, [r0, #36]	@ 0x24
 80009c6:	4604      	mov	r4, r0
 80009c8:	2b01      	cmp	r3, #1
 80009ca:	d054      	beq.n	8000a76 <HAL_ADC_Start+0xb6>
 80009cc:	2301      	movs	r3, #1
 80009ce:	f880 3024 	strb.w	r3, [r0, #36]	@ 0x24
 80009d2:	f7ff ffb9 	bl	8000948 <ADC_Enable>
 80009d6:	2800      	cmp	r0, #0
 80009d8:	d149      	bne.n	8000a6e <HAL_ADC_Start+0xae>
 80009da:	6aa3      	ldr	r3, [r4, #40]	@ 0x28
 80009dc:	4a27      	ldr	r2, [pc, #156]	@ (8000a7c <HAL_ADC_Start+0xbc>)
 80009de:	f423 7340 	bic.w	r3, r3, #768	@ 0x300
 80009e2:	f023 0301 	bic.w	r3, r3, #1
 80009e6:	f443 7380 	orr.w	r3, r3, #256	@ 0x100
 80009ea:	62a3      	str	r3, [r4, #40]	@ 0x28
 80009ec:	6823      	ldr	r3, [r4, #0]
 80009ee:	4293      	cmp	r3, r2
 80009f0:	d104      	bne.n	80009fc <HAL_ADC_Start+0x3c>
 80009f2:	4923      	ldr	r1, [pc, #140]	@ (8000a80 <HAL_ADC_Start+0xc0>)
 80009f4:	684a      	ldr	r2, [r1, #4]
 80009f6:	f412 2f70 	tst.w	r2, #983040	@ 0xf0000
 80009fa:	d12e      	bne.n	8000a5a <HAL_ADC_Start+0x9a>
 80009fc:	6aa2      	ldr	r2, [r4, #40]	@ 0x28
 80009fe:	f422 1280 	bic.w	r2, r2, #1048576	@ 0x100000
 8000a02:	62a2      	str	r2, [r4, #40]	@ 0x28
 8000a04:	685a      	ldr	r2, [r3, #4]
 8000a06:	0552      	lsls	r2, r2, #21
 8000a08:	bf41      	itttt	mi
 8000a0a:	6aa2      	ldrmi	r2, [r4, #40]	@ 0x28
 8000a0c:	f422 5240 	bicmi.w	r2, r2, #12288	@ 0x3000
 8000a10:	f442 5280 	orrmi.w	r2, r2, #4096	@ 0x1000
 8000a14:	62a2      	strmi	r2, [r4, #40]	@ 0x28
 8000a16:	6aa2      	ldr	r2, [r4, #40]	@ 0x28
 8000a18:	f412 5280 	ands.w	r2, r2, #4096	@ 0x1000
 8000a1c:	bf1c      	itt	ne
 8000a1e:	6ae2      	ldrne	r2, [r4, #44]	@ 0x2c
 8000a20:	f022 0206 	bicne.w	r2, r2, #6
 8000a24:	62e2      	str	r2, [r4, #44]	@ 0x2c
 8000a26:	2200      	movs	r2, #0
 8000a28:	f884 2024 	strb.w	r2, [r4, #36]	@ 0x24
 8000a2c:	f06f 0202 	mvn.w	r2, #2
 8000a30:	601a      	str	r2, [r3, #0]
 8000a32:	689a      	ldr	r2, [r3, #8]
 8000a34:	f402 2260 	and.w	r2, r2, #917504	@ 0xe0000
 8000a38:	f5b2 2f60 	cmp.w	r2, #917504	@ 0xe0000
 8000a3c:	d113      	bne.n	8000a66 <HAL_ADC_Start+0xa6>
 8000a3e:	4a0f      	ldr	r2, [pc, #60]	@ (8000a7c <HAL_ADC_Start+0xbc>)
 8000a40:	4293      	cmp	r3, r2
 8000a42:	d105      	bne.n	8000a50 <HAL_ADC_Start+0x90>
 8000a44:	f5a2 6280 	sub.w	r2, r2, #1024	@ 0x400
 8000a48:	6852      	ldr	r2, [r2, #4]
 8000a4a:	f412 2f70 	tst.w	r2, #983040	@ 0xf0000
 8000a4e:	d10a      	bne.n	8000a66 <HAL_ADC_Start+0xa6>
 8000a50:	689a      	ldr	r2, [r3, #8]
 8000a52:	f442 02a0 	orr.w	r2, r2, #5242880	@ 0x500000
 8000a56:	609a      	str	r2, [r3, #8]
 8000a58:	bd10      	pop	{r4, pc}
 8000a5a:	6aa2      	ldr	r2, [r4, #40]	@ 0x28
 8000a5c:	f442 1280 	orr.w	r2, r2, #1048576	@ 0x100000
 8000a60:	62a2      	str	r2, [r4, #40]	@ 0x28
 8000a62:	684a      	ldr	r2, [r1, #4]
 8000a64:	e7cf      	b.n	8000a06 <HAL_ADC_Start+0x46>
 8000a66:	689a      	ldr	r2, [r3, #8]
 8000a68:	f442 1280 	orr.w	r2, r2, #1048576	@ 0x100000
 8000a6c:	e7f3      	b.n	8000a56 <HAL_ADC_Start+0x96>
 8000a6e:	2300      	movs	r3, #0
 8000a70:	f884 3024 	strb.w	r3, [r4, #36]	@ 0x24
 8000a74:	e7f0      	b.n	8000a58 <HAL_ADC_Start+0x98>
 8000a76:	2002      	movs	r0, #2
 8000a78:	e7ee      	b.n	8000a58 <HAL_ADC_Start+0x98>
 8000a7a:	bf00      	nop
 8000a7c:	40012800 	.word	0x40012800
 8000a80:	40012400 	.word	0x40012400

08000a84 <ADC_ConversionStop_Disable>:
 8000a84:	b538      	push	{r3, r4, r5, lr}
 8000a86:	6803      	ldr	r3, [r0, #0]
 8000a88:	4604      	mov	r4, r0
 8000a8a:	689a      	ldr	r2, [r3, #8]
 8000a8c:	07d1      	lsls	r1, r2, #31
 8000a8e:	d401      	bmi.n	8000a94 <ADC_ConversionStop_Disable+0x10>
 8000a90:	2000      	movs	r0, #0
 8000a92:	bd38      	pop	{r3, r4, r5, pc}
 8000a94:	689a      	ldr	r2, [r3, #8]
 8000a96:	f022 0201 	bic.w	r2, r2, #1
 8000a9a:	609a      	str	r2, [r3, #8]
 8000a9c:	f000 f926 	bl	8000cec <HAL_GetTick>
 8000aa0:	4605      	mov	r5, r0
 8000aa2:	6823      	ldr	r3, [r4, #0]
 8000aa4:	689b      	ldr	r3, [r3, #8]
 8000aa6:	07db      	lsls	r3, r3, #31
 8000aa8:	d5f2      	bpl.n	8000a90 <ADC_ConversionStop_Disable+0xc>
 8000aaa:	f000 f91f 	bl	8000cec <HAL_GetTick>
 8000aae:	1b40      	subs	r0, r0, r5
 8000ab0:	2802      	cmp	r0, #2
 8000ab2:	d9f6      	bls.n	8000aa2 <ADC_ConversionStop_Disable+0x1e>
 8000ab4:	6823      	ldr	r3, [r4, #0]
 8000ab6:	689b      	ldr	r3, [r3, #8]
 8000ab8:	07da      	lsls	r2, r3, #31
 8000aba:	d5f2      	bpl.n	8000aa2 <ADC_ConversionStop_Disable+0x1e>
 8000abc:	6aa3      	ldr	r3, [r4, #40]	@ 0x28
 8000abe:	2001      	movs	r0, #1
 8000ac0:	f043 0310 	orr.w	r3, r3, #16
 8000ac4:	62a3      	str	r3, [r4, #40]	@ 0x28
 8000ac6:	6ae3      	ldr	r3, [r4, #44]	@ 0x2c
 8000ac8:	f043 0301 	orr.w	r3, r3, #1
 8000acc:	62e3      	str	r3, [r4, #44]	@ 0x2c
 8000ace:	e7e0      	b.n	8000a92 <ADC_ConversionStop_Disable+0xe>

08000ad0 <HAL_ADC_Init>:
 8000ad0:	b5f8      	push	{r3, r4, r5, r6, r7, lr}
 8000ad2:	4604      	mov	r4, r0
 8000ad4:	2800      	cmp	r0, #0
 8000ad6:	d06d      	beq.n	8000bb4 <HAL_ADC_Init+0xe4>
 8000ad8:	6a83      	ldr	r3, [r0, #40]	@ 0x28
 8000ada:	b923      	cbnz	r3, 8000ae6 <HAL_ADC_Init+0x16>
 8000adc:	62c3      	str	r3, [r0, #44]	@ 0x2c
 8000ade:	f880 3024 	strb.w	r3, [r0, #36]	@ 0x24
 8000ae2:	f002 fd65 	bl	80035b0 <HAL_ADC_MspInit>
 8000ae6:	4620      	mov	r0, r4
 8000ae8:	f7ff ffcc 	bl	8000a84 <ADC_ConversionStop_Disable>
 8000aec:	6aa3      	ldr	r3, [r4, #40]	@ 0x28
 8000aee:	f013 0310 	ands.w	r3, r3, #16
 8000af2:	d161      	bne.n	8000bb8 <HAL_ADC_Init+0xe8>
 8000af4:	2800      	cmp	r0, #0
 8000af6:	d15f      	bne.n	8000bb8 <HAL_ADC_Init+0xe8>
 8000af8:	6aa2      	ldr	r2, [r4, #40]	@ 0x28
 8000afa:	6861      	ldr	r1, [r4, #4]
 8000afc:	f422 5288 	bic.w	r2, r2, #4352	@ 0x1100
 8000b00:	f022 0202 	bic.w	r2, r2, #2
 8000b04:	f042 0202 	orr.w	r2, r2, #2
 8000b08:	69e5      	ldr	r5, [r4, #28]
 8000b0a:	68a6      	ldr	r6, [r4, #8]
 8000b0c:	62a2      	str	r2, [r4, #40]	@ 0x28
 8000b0e:	7b22      	ldrb	r2, [r4, #12]
 8000b10:	4329      	orrs	r1, r5
 8000b12:	f5b6 7f80 	cmp.w	r6, #256	@ 0x100
 8000b16:	ea41 0142 	orr.w	r1, r1, r2, lsl #1
 8000b1a:	d036      	beq.n	8000b8a <HAL_ADC_Init+0xba>
 8000b1c:	1e77      	subs	r7, r6, #1
 8000b1e:	427d      	negs	r5, r7
 8000b20:	417d      	adcs	r5, r7
 8000b22:	022d      	lsls	r5, r5, #8
 8000b24:	7d27      	ldrb	r7, [r4, #20]
 8000b26:	2f01      	cmp	r7, #1
 8000b28:	d106      	bne.n	8000b38 <HAL_ADC_Init+0x68>
 8000b2a:	bb82      	cbnz	r2, 8000b8e <HAL_ADC_Init+0xbe>
 8000b2c:	69a2      	ldr	r2, [r4, #24]
 8000b2e:	3a01      	subs	r2, #1
 8000b30:	ea45 3242 	orr.w	r2, r5, r2, lsl #13
 8000b34:	f442 6500 	orr.w	r5, r2, #2048	@ 0x800
 8000b38:	6822      	ldr	r2, [r4, #0]
 8000b3a:	f5b6 7f80 	cmp.w	r6, #256	@ 0x100
 8000b3e:	6857      	ldr	r7, [r2, #4]
 8000b40:	f427 4769 	bic.w	r7, r7, #59648	@ 0xe900
 8000b44:	ea45 0507 	orr.w	r5, r5, r7
 8000b48:	6055      	str	r5, [r2, #4]
 8000b4a:	6897      	ldr	r7, [r2, #8]
 8000b4c:	4d1d      	ldr	r5, [pc, #116]	@ (8000bc4 <HAL_ADC_Init+0xf4>)
 8000b4e:	ea05 0507 	and.w	r5, r5, r7
 8000b52:	ea45 0501 	orr.w	r5, r5, r1
 8000b56:	6095      	str	r5, [r2, #8]
 8000b58:	d001      	beq.n	8000b5e <HAL_ADC_Init+0x8e>
 8000b5a:	2e01      	cmp	r6, #1
 8000b5c:	d102      	bne.n	8000b64 <HAL_ADC_Init+0x94>
 8000b5e:	6923      	ldr	r3, [r4, #16]
 8000b60:	3b01      	subs	r3, #1
 8000b62:	051b      	lsls	r3, r3, #20
 8000b64:	6ad5      	ldr	r5, [r2, #44]	@ 0x2c
 8000b66:	f425 0570 	bic.w	r5, r5, #15728640	@ 0xf00000
 8000b6a:	432b      	orrs	r3, r5
 8000b6c:	62d3      	str	r3, [r2, #44]	@ 0x2c
 8000b6e:	6892      	ldr	r2, [r2, #8]
 8000b70:	4b15      	ldr	r3, [pc, #84]	@ (8000bc8 <HAL_ADC_Init+0xf8>)
 8000b72:	4013      	ands	r3, r2
 8000b74:	4299      	cmp	r1, r3
 8000b76:	d113      	bne.n	8000ba0 <HAL_ADC_Init+0xd0>
 8000b78:	2300      	movs	r3, #0
 8000b7a:	62e3      	str	r3, [r4, #44]	@ 0x2c
 8000b7c:	6aa3      	ldr	r3, [r4, #40]	@ 0x28
 8000b7e:	f023 0303 	bic.w	r3, r3, #3
 8000b82:	f043 0301 	orr.w	r3, r3, #1
 8000b86:	62a3      	str	r3, [r4, #40]	@ 0x28
 8000b88:	bdf8      	pop	{r3, r4, r5, r6, r7, pc}
 8000b8a:	4635      	mov	r5, r6
 8000b8c:	e7ca      	b.n	8000b24 <HAL_ADC_Init+0x54>
 8000b8e:	6aa2      	ldr	r2, [r4, #40]	@ 0x28
 8000b90:	f042 0220 	orr.w	r2, r2, #32
 8000b94:	62a2      	str	r2, [r4, #40]	@ 0x28
 8000b96:	6ae2      	ldr	r2, [r4, #44]	@ 0x2c
 8000b98:	f042 0201 	orr.w	r2, r2, #1
 8000b9c:	62e2      	str	r2, [r4, #44]	@ 0x2c
 8000b9e:	e7cb      	b.n	8000b38 <HAL_ADC_Init+0x68>
 8000ba0:	6aa3      	ldr	r3, [r4, #40]	@ 0x28
 8000ba2:	f023 0312 	bic.w	r3, r3, #18
 8000ba6:	f043 0310 	orr.w	r3, r3, #16
 8000baa:	62a3      	str	r3, [r4, #40]	@ 0x28
 8000bac:	6ae3      	ldr	r3, [r4, #44]	@ 0x2c
 8000bae:	f043 0301 	orr.w	r3, r3, #1
 8000bb2:	62e3      	str	r3, [r4, #44]	@ 0x2c
 8000bb4:	2001      	movs	r0, #1
 8000bb6:	e7e7      	b.n	8000b88 <HAL_ADC_Init+0xb8>
 8000bb8:	6aa3      	ldr	r3, [r4, #40]	@ 0x28
 8000bba:	f043 0310 	orr.w	r3, r3, #16
 8000bbe:	62a3      	str	r3, [r4, #40]	@ 0x28
 8000bc0:	e7f8      	b.n	8000bb4 <HAL_ADC_Init+0xe4>
 8000bc2:	bf00      	nop
 8000bc4:	ffe1f7fd 	.word	0xffe1f7fd
 8000bc8:	ff1f0efe 	.word	0xff1f0efe

08000bcc <HAL_ADC_DeInit>:
 8000bcc:	b538      	push	{r3, r4, r5, lr}
 8000bce:	4604      	mov	r4, r0
 8000bd0:	2800      	cmp	r0, #0
 8000bd2:	d050      	beq.n	8000c76 <HAL_ADC_DeInit+0xaa>
 8000bd4:	6a83      	ldr	r3, [r0, #40]	@ 0x28
 8000bd6:	f043 0302 	orr.w	r3, r3, #2
 8000bda:	6283      	str	r3, [r0, #40]	@ 0x28
 8000bdc:	f7ff ff52 	bl	8000a84 <ADC_ConversionStop_Disable>
 8000be0:	4605      	mov	r5, r0
 8000be2:	2800      	cmp	r0, #0
 8000be4:	d142      	bne.n	8000c6c <HAL_ADC_DeInit+0xa0>
 8000be6:	f06f 021f 	mvn.w	r2, #31
 8000bea:	6823      	ldr	r3, [r4, #0]
 8000bec:	4620      	mov	r0, r4
 8000bee:	601a      	str	r2, [r3, #0]
 8000bf0:	6859      	ldr	r1, [r3, #4]
 8000bf2:	4a22      	ldr	r2, [pc, #136]	@ (8000c7c <HAL_ADC_DeInit+0xb0>)
 8000bf4:	400a      	ands	r2, r1
 8000bf6:	605a      	str	r2, [r3, #4]
 8000bf8:	6899      	ldr	r1, [r3, #8]
 8000bfa:	4a21      	ldr	r2, [pc, #132]	@ (8000c80 <HAL_ADC_DeInit+0xb4>)
 8000bfc:	400a      	ands	r2, r1
 8000bfe:	609a      	str	r2, [r3, #8]
 8000c00:	68da      	ldr	r2, [r3, #12]
 8000c02:	f002 427f 	and.w	r2, r2, #4278190080	@ 0xff000000
 8000c06:	60da      	str	r2, [r3, #12]
 8000c08:	691a      	ldr	r2, [r3, #16]
 8000c0a:	f002 4240 	and.w	r2, r2, #3221225472	@ 0xc0000000
 8000c0e:	611a      	str	r2, [r3, #16]
 8000c10:	6959      	ldr	r1, [r3, #20]
 8000c12:	4a1c      	ldr	r2, [pc, #112]	@ (8000c84 <HAL_ADC_DeInit+0xb8>)
 8000c14:	4011      	ands	r1, r2
 8000c16:	6159      	str	r1, [r3, #20]
 8000c18:	6999      	ldr	r1, [r3, #24]
 8000c1a:	4011      	ands	r1, r2
 8000c1c:	6199      	str	r1, [r3, #24]
 8000c1e:	69d9      	ldr	r1, [r3, #28]
 8000c20:	4011      	ands	r1, r2
 8000c22:	61d9      	str	r1, [r3, #28]
 8000c24:	6a19      	ldr	r1, [r3, #32]
 8000c26:	4011      	ands	r1, r2
 8000c28:	6219      	str	r1, [r3, #32]
 8000c2a:	6a59      	ldr	r1, [r3, #36]	@ 0x24
 8000c2c:	4011      	ands	r1, r2
 8000c2e:	6259      	str	r1, [r3, #36]	@ 0x24
 8000c30:	6a99      	ldr	r1, [r3, #40]	@ 0x28
 8000c32:	400a      	ands	r2, r1
 8000c34:	629a      	str	r2, [r3, #40]	@ 0x28
 8000c36:	6ada      	ldr	r2, [r3, #44]	@ 0x2c
 8000c38:	4913      	ldr	r1, [pc, #76]	@ (8000c88 <HAL_ADC_DeInit+0xbc>)
 8000c3a:	f002 427f 	and.w	r2, r2, #4278190080	@ 0xff000000
 8000c3e:	62da      	str	r2, [r3, #44]	@ 0x2c
 8000c40:	6ada      	ldr	r2, [r3, #44]	@ 0x2c
 8000c42:	f002 427f 	and.w	r2, r2, #4278190080	@ 0xff000000
 8000c46:	62da      	str	r2, [r3, #44]	@ 0x2c
 8000c48:	6b1a      	ldr	r2, [r3, #48]	@ 0x30
 8000c4a:	f002 4240 	and.w	r2, r2, #3221225472	@ 0xc0000000
 8000c4e:	631a      	str	r2, [r3, #48]	@ 0x30
 8000c50:	6b5a      	ldr	r2, [r3, #52]	@ 0x34
 8000c52:	f002 4240 	and.w	r2, r2, #3221225472	@ 0xc0000000
 8000c56:	635a      	str	r2, [r3, #52]	@ 0x34
 8000c58:	6b9a      	ldr	r2, [r3, #56]	@ 0x38
 8000c5a:	400a      	ands	r2, r1
 8000c5c:	639a      	str	r2, [r3, #56]	@ 0x38
 8000c5e:	6b9a      	ldr	r2, [r3, #56]	@ 0x38
 8000c60:	400a      	ands	r2, r1
 8000c62:	639a      	str	r2, [r3, #56]	@ 0x38
 8000c64:	f002 fcf6 	bl	8003654 <HAL_ADC_MspDeInit>
 8000c68:	62e5      	str	r5, [r4, #44]	@ 0x2c
 8000c6a:	62a5      	str	r5, [r4, #40]	@ 0x28
 8000c6c:	2300      	movs	r3, #0
 8000c6e:	f884 3024 	strb.w	r3, [r4, #36]	@ 0x24
 8000c72:	4628      	mov	r0, r5
 8000c74:	bd38      	pop	{r3, r4, r5, pc}
 8000c76:	2501      	movs	r5, #1
 8000c78:	e7fb      	b.n	8000c72 <HAL_ADC_DeInit+0xa6>
 8000c7a:	bf00      	nop
 8000c7c:	ff3f0000 	.word	0xff3f0000
 8000c80:	ff0106f0 	.word	0xff0106f0
 8000c84:	fffff000 	.word	0xfffff000
 8000c88:	ffc00000 	.word	0xffc00000

08000c8c <HAL_MspDeInit>:
 8000c8c:	4770      	bx	lr
	...

08000c90 <HAL_DeInit>:
 8000c90:	b510      	push	{r4, lr}
 8000c92:	f04f 32ff 	mov.w	r2, #4294967295
 8000c96:	2400      	movs	r4, #0
 8000c98:	4b04      	ldr	r3, [pc, #16]	@ (8000cac <HAL_DeInit+0x1c>)
 8000c9a:	611a      	str	r2, [r3, #16]
 8000c9c:	611c      	str	r4, [r3, #16]
 8000c9e:	60da      	str	r2, [r3, #12]
 8000ca0:	60dc      	str	r4, [r3, #12]
 8000ca2:	f7ff fff3 	bl	8000c8c <HAL_MspDeInit>
 8000ca6:	4620      	mov	r0, r4
 8000ca8:	bd10      	pop	{r4, pc}
 8000caa:	bf00      	nop
 8000cac:	40021000 	.word	0x40021000

08000cb0 <HAL_Init>:
 8000cb0:	4a07      	ldr	r2, [pc, #28]	@ (8000cd0 <HAL_Init+0x20>)
 8000cb2:	b508      	push	{r3, lr}
 8000cb4:	6813      	ldr	r3, [r2, #0]
 8000cb6:	2003      	movs	r0, #3
 8000cb8:	f043 0310 	orr.w	r3, r3, #16
 8000cbc:	6013      	str	r3, [r2, #0]
 8000cbe:	f000 fef7 	bl	8001ab0 <HAL_NVIC_SetPriorityGrouping>
 8000cc2:	200f      	movs	r0, #15
 8000cc4:	f002 fe44 	bl	8003950 <HAL_InitTick>
 8000cc8:	f002 fc50 	bl	800356c <HAL_MspInit>
 8000ccc:	2000      	movs	r0, #0
 8000cce:	bd08      	pop	{r3, pc}
 8000cd0:	40022000 	.word	0x40022000

08000cd4 <HAL_IncTick>:
 8000cd4:	4a03      	ldr	r2, [pc, #12]	@ (8000ce4 <HAL_IncTick+0x10>)
 8000cd6:	4b04      	ldr	r3, [pc, #16]	@ (8000ce8 <HAL_IncTick+0x14>)
 8000cd8:	6811      	ldr	r1, [r2, #0]
 8000cda:	781b      	ldrb	r3, [r3, #0]
 8000cdc:	440b      	add	r3, r1
 8000cde:	6013      	str	r3, [r2, #0]
 8000ce0:	4770      	bx	lr
 8000ce2:	bf00      	nop
 8000ce4:	200000bc 	.word	0x200000bc
 8000ce8:	20000004 	.word	0x20000004

08000cec <HAL_GetTick>:
 8000cec:	4b01      	ldr	r3, [pc, #4]	@ (8000cf4 <HAL_GetTick+0x8>)
 8000cee:	6818      	ldr	r0, [r3, #0]
 8000cf0:	4770      	bx	lr
 8000cf2:	bf00      	nop
 8000cf4:	200000bc 	.word	0x200000bc

08000cf8 <HAL_Delay>:
 8000cf8:	b538      	push	{r3, r4, r5, lr}
 8000cfa:	4604      	mov	r4, r0
 8000cfc:	f7ff fff6 	bl	8000cec <HAL_GetTick>
 8000d00:	4605      	mov	r5, r0
 8000d02:	1c63      	adds	r3, r4, #1
 8000d04:	bf1e      	ittt	ne
 8000d06:	4b04      	ldrne	r3, [pc, #16]	@ (8000d18 <HAL_Delay+0x20>)
 8000d08:	781b      	ldrbne	r3, [r3, #0]
 8000d0a:	18e4      	addne	r4, r4, r3
 8000d0c:	f7ff ffee 	bl	8000cec <HAL_GetTick>
 8000d10:	1b43      	subs	r3, r0, r5
 8000d12:	42a3      	cmp	r3, r4
 8000d14:	d3fa      	bcc.n	8000d0c <HAL_Delay+0x14>
 8000d16:	bd38      	pop	{r3, r4, r5, pc}
 8000d18:	20000004 	.word	0x20000004

08000d1c <HAL_RCC_DeInit>:
 8000d1c:	b570      	push	{r4, r5, r6, lr}
 8000d1e:	f7ff ffe5 	bl	8000cec <HAL_GetTick>
 8000d22:	4605      	mov	r5, r0
 8000d24:	4c2f      	ldr	r4, [pc, #188]	@ (8000de4 <HAL_RCC_DeInit+0xc8>)
 8000d26:	6823      	ldr	r3, [r4, #0]
 8000d28:	f043 0301 	orr.w	r3, r3, #1
 8000d2c:	6023      	str	r3, [r4, #0]
 8000d2e:	6823      	ldr	r3, [r4, #0]
 8000d30:	079b      	lsls	r3, r3, #30
 8000d32:	d53b      	bpl.n	8000dac <HAL_RCC_DeInit+0x90>
 8000d34:	6823      	ldr	r3, [r4, #0]
 8000d36:	f241 3688 	movw	r6, #5000	@ 0x1388
 8000d3a:	f023 03f8 	bic.w	r3, r3, #248	@ 0xf8
 8000d3e:	f043 0380 	orr.w	r3, r3, #128	@ 0x80
 8000d42:	6023      	str	r3, [r4, #0]
 8000d44:	f7ff ffd2 	bl	8000cec <HAL_GetTick>
 8000d48:	2300      	movs	r3, #0
 8000d4a:	4605      	mov	r5, r0
 8000d4c:	6063      	str	r3, [r4, #4]
 8000d4e:	6863      	ldr	r3, [r4, #4]
 8000d50:	f013 0f0c 	tst.w	r3, #12
 8000d54:	d132      	bne.n	8000dbc <HAL_RCC_DeInit+0xa0>
 8000d56:	4b24      	ldr	r3, [pc, #144]	@ (8000de8 <HAL_RCC_DeInit+0xcc>)
 8000d58:	4a24      	ldr	r2, [pc, #144]	@ (8000dec <HAL_RCC_DeInit+0xd0>)
 8000d5a:	601a      	str	r2, [r3, #0]
 8000d5c:	4b24      	ldr	r3, [pc, #144]	@ (8000df0 <HAL_RCC_DeInit+0xd4>)
 8000d5e:	6818      	ldr	r0, [r3, #0]
 8000d60:	f002 fdf6 	bl	8003950 <HAL_InitTick>
 8000d64:	4605      	mov	r5, r0
 8000d66:	2800      	cmp	r0, #0
 8000d68:	d13a      	bne.n	8000de0 <HAL_RCC_DeInit+0xc4>
 8000d6a:	f7ff ffbf 	bl	8000cec <HAL_GetTick>
 8000d6e:	4606      	mov	r6, r0
 8000d70:	6823      	ldr	r3, [r4, #0]
 8000d72:	f023 7380 	bic.w	r3, r3, #16777216	@ 0x1000000
 8000d76:	6023      	str	r3, [r4, #0]
 8000d78:	6823      	ldr	r3, [r4, #0]
 8000d7a:	f013 7300 	ands.w	r3, r3, #33554432	@ 0x2000000
 8000d7e:	d123      	bne.n	8000dc8 <HAL_RCC_DeInit+0xac>
 8000d80:	6063      	str	r3, [r4, #4]
 8000d82:	f7ff ffb3 	bl	8000cec <HAL_GetTick>
 8000d86:	4606      	mov	r6, r0
 8000d88:	6823      	ldr	r3, [r4, #0]
 8000d8a:	f423 2310 	bic.w	r3, r3, #589824	@ 0x90000
 8000d8e:	6023      	str	r3, [r4, #0]
 8000d90:	6823      	ldr	r3, [r4, #0]
 8000d92:	f413 3300 	ands.w	r3, r3, #131072	@ 0x20000
 8000d96:	d11d      	bne.n	8000dd4 <HAL_RCC_DeInit+0xb8>
 8000d98:	6822      	ldr	r2, [r4, #0]
 8000d9a:	f422 2280 	bic.w	r2, r2, #262144	@ 0x40000
 8000d9e:	6022      	str	r2, [r4, #0]
 8000da0:	6a62      	ldr	r2, [r4, #36]	@ 0x24
 8000da2:	f042 7280 	orr.w	r2, r2, #16777216	@ 0x1000000
 8000da6:	6262      	str	r2, [r4, #36]	@ 0x24
 8000da8:	60a3      	str	r3, [r4, #8]
 8000daa:	e005      	b.n	8000db8 <HAL_RCC_DeInit+0x9c>
 8000dac:	f7ff ff9e 	bl	8000cec <HAL_GetTick>
 8000db0:	1b40      	subs	r0, r0, r5
 8000db2:	2802      	cmp	r0, #2
 8000db4:	d9bb      	bls.n	8000d2e <HAL_RCC_DeInit+0x12>
 8000db6:	2503      	movs	r5, #3
 8000db8:	4628      	mov	r0, r5
 8000dba:	bd70      	pop	{r4, r5, r6, pc}
 8000dbc:	f7ff ff96 	bl	8000cec <HAL_GetTick>
 8000dc0:	1b40      	subs	r0, r0, r5
 8000dc2:	42b0      	cmp	r0, r6
 8000dc4:	d9c3      	bls.n	8000d4e <HAL_RCC_DeInit+0x32>
 8000dc6:	e7f6      	b.n	8000db6 <HAL_RCC_DeInit+0x9a>
 8000dc8:	f7ff ff90 	bl	8000cec <HAL_GetTick>
 8000dcc:	1b80      	subs	r0, r0, r6
 8000dce:	2802      	cmp	r0, #2
 8000dd0:	d9d2      	bls.n	8000d78 <HAL_RCC_DeInit+0x5c>
 8000dd2:	e7f0      	b.n	8000db6 <HAL_RCC_DeInit+0x9a>
 8000dd4:	f7ff ff8a 	bl	8000cec <HAL_GetTick>
 8000dd8:	1b80      	subs	r0, r0, r6
 8000dda:	2864      	cmp	r0, #100	@ 0x64
 8000ddc:	d9d8      	bls.n	8000d90 <HAL_RCC_DeInit+0x74>
 8000dde:	e7ea      	b.n	8000db6 <HAL_RCC_DeInit+0x9a>
 8000de0:	2501      	movs	r5, #1
 8000de2:	e7e9      	b.n	8000db8 <HAL_RCC_DeInit+0x9c>
 8000de4:	40021000 	.word	0x40021000
 8000de8:	20000000 	.word	0x20000000
 8000dec:	007a1200 	.word	0x007a1200
 8000df0:	20000008 	.word	0x20000008

08000df4 <HAL_RCC_OscConfig>:
 8000df4:	e92d 41f3 	stmdb	sp!, {r0, r1, r4, r5, r6, r7, r8, lr}
 8000df8:	4605      	mov	r5, r0
 8000dfa:	b338      	cbz	r0, 8000e4c <HAL_RCC_OscConfig+0x58>
 8000dfc:	6803      	ldr	r3, [r0, #0]
 8000dfe:	07db      	lsls	r3, r3, #31
 8000e00:	d410      	bmi.n	8000e24 <HAL_RCC_OscConfig+0x30>
 8000e02:	682b      	ldr	r3, [r5, #0]
 8000e04:	079f      	lsls	r7, r3, #30
 8000e06:	d45e      	bmi.n	8000ec6 <HAL_RCC_OscConfig+0xd2>
 8000e08:	682b      	ldr	r3, [r5, #0]
 8000e0a:	0719      	lsls	r1, r3, #28
 8000e0c:	f100 8095 	bmi.w	8000f3a <HAL_RCC_OscConfig+0x146>
 8000e10:	682b      	ldr	r3, [r5, #0]
 8000e12:	075a      	lsls	r2, r3, #29
 8000e14:	f100 80c1 	bmi.w	8000f9a <HAL_RCC_OscConfig+0x1a6>
 8000e18:	69eb      	ldr	r3, [r5, #28]
 8000e1a:	2b00      	cmp	r3, #0
 8000e1c:	f040 812c 	bne.w	8001078 <HAL_RCC_OscConfig+0x284>
 8000e20:	2000      	movs	r0, #0
 8000e22:	e029      	b.n	8000e78 <HAL_RCC_OscConfig+0x84>
 8000e24:	4c90      	ldr	r4, [pc, #576]	@ (8001068 <HAL_RCC_OscConfig+0x274>)
 8000e26:	6863      	ldr	r3, [r4, #4]
 8000e28:	f003 030c 	and.w	r3, r3, #12
 8000e2c:	2b04      	cmp	r3, #4
 8000e2e:	d007      	beq.n	8000e40 <HAL_RCC_OscConfig+0x4c>
 8000e30:	6863      	ldr	r3, [r4, #4]
 8000e32:	f003 030c 	and.w	r3, r3, #12
 8000e36:	2b08      	cmp	r3, #8
 8000e38:	d10a      	bne.n	8000e50 <HAL_RCC_OscConfig+0x5c>
 8000e3a:	6863      	ldr	r3, [r4, #4]
 8000e3c:	03de      	lsls	r6, r3, #15
 8000e3e:	d507      	bpl.n	8000e50 <HAL_RCC_OscConfig+0x5c>
 8000e40:	6823      	ldr	r3, [r4, #0]
 8000e42:	039c      	lsls	r4, r3, #14
 8000e44:	d5dd      	bpl.n	8000e02 <HAL_RCC_OscConfig+0xe>
 8000e46:	686b      	ldr	r3, [r5, #4]
 8000e48:	2b00      	cmp	r3, #0
 8000e4a:	d1da      	bne.n	8000e02 <HAL_RCC_OscConfig+0xe>
 8000e4c:	2001      	movs	r0, #1
 8000e4e:	e013      	b.n	8000e78 <HAL_RCC_OscConfig+0x84>
 8000e50:	686b      	ldr	r3, [r5, #4]
 8000e52:	f5b3 3f80 	cmp.w	r3, #65536	@ 0x10000
 8000e56:	d112      	bne.n	8000e7e <HAL_RCC_OscConfig+0x8a>
 8000e58:	6823      	ldr	r3, [r4, #0]
 8000e5a:	f443 3380 	orr.w	r3, r3, #65536	@ 0x10000
 8000e5e:	6023      	str	r3, [r4, #0]
 8000e60:	f7ff ff44 	bl	8000cec <HAL_GetTick>
 8000e64:	4606      	mov	r6, r0
 8000e66:	6823      	ldr	r3, [r4, #0]
 8000e68:	0398      	lsls	r0, r3, #14
 8000e6a:	d4ca      	bmi.n	8000e02 <HAL_RCC_OscConfig+0xe>
 8000e6c:	f7ff ff3e 	bl	8000cec <HAL_GetTick>
 8000e70:	1b80      	subs	r0, r0, r6
 8000e72:	2864      	cmp	r0, #100	@ 0x64
 8000e74:	d9f7      	bls.n	8000e66 <HAL_RCC_OscConfig+0x72>
 8000e76:	2003      	movs	r0, #3
 8000e78:	b002      	add	sp, #8
 8000e7a:	e8bd 81f0 	ldmia.w	sp!, {r4, r5, r6, r7, r8, pc}
 8000e7e:	b99b      	cbnz	r3, 8000ea8 <HAL_RCC_OscConfig+0xb4>
 8000e80:	6823      	ldr	r3, [r4, #0]
 8000e82:	f423 3380 	bic.w	r3, r3, #65536	@ 0x10000
 8000e86:	6023      	str	r3, [r4, #0]
 8000e88:	6823      	ldr	r3, [r4, #0]
 8000e8a:	f423 2380 	bic.w	r3, r3, #262144	@ 0x40000
 8000e8e:	6023      	str	r3, [r4, #0]
 8000e90:	f7ff ff2c 	bl	8000cec <HAL_GetTick>
 8000e94:	4606      	mov	r6, r0
 8000e96:	6823      	ldr	r3, [r4, #0]
 8000e98:	0399      	lsls	r1, r3, #14
 8000e9a:	d5b2      	bpl.n	8000e02 <HAL_RCC_OscConfig+0xe>
 8000e9c:	f7ff ff26 	bl	8000cec <HAL_GetTick>
 8000ea0:	1b80      	subs	r0, r0, r6
 8000ea2:	2864      	cmp	r0, #100	@ 0x64
 8000ea4:	d9f7      	bls.n	8000e96 <HAL_RCC_OscConfig+0xa2>
 8000ea6:	e7e6      	b.n	8000e76 <HAL_RCC_OscConfig+0x82>
 8000ea8:	f5b3 2fa0 	cmp.w	r3, #327680	@ 0x50000
 8000eac:	6823      	ldr	r3, [r4, #0]
 8000eae:	d103      	bne.n	8000eb8 <HAL_RCC_OscConfig+0xc4>
 8000eb0:	f443 2380 	orr.w	r3, r3, #262144	@ 0x40000
 8000eb4:	6023      	str	r3, [r4, #0]
 8000eb6:	e7cf      	b.n	8000e58 <HAL_RCC_OscConfig+0x64>
 8000eb8:	f423 3380 	bic.w	r3, r3, #65536	@ 0x10000
 8000ebc:	6023      	str	r3, [r4, #0]
 8000ebe:	6823      	ldr	r3, [r4, #0]
 8000ec0:	f423 2380 	bic.w	r3, r3, #262144	@ 0x40000
 8000ec4:	e7cb      	b.n	8000e5e <HAL_RCC_OscConfig+0x6a>
 8000ec6:	4c68      	ldr	r4, [pc, #416]	@ (8001068 <HAL_RCC_OscConfig+0x274>)
 8000ec8:	6863      	ldr	r3, [r4, #4]
 8000eca:	f013 0f0c 	tst.w	r3, #12
 8000ece:	d007      	beq.n	8000ee0 <HAL_RCC_OscConfig+0xec>
 8000ed0:	6863      	ldr	r3, [r4, #4]
 8000ed2:	f003 030c 	and.w	r3, r3, #12
 8000ed6:	2b08      	cmp	r3, #8
 8000ed8:	d110      	bne.n	8000efc <HAL_RCC_OscConfig+0x108>
 8000eda:	6863      	ldr	r3, [r4, #4]
 8000edc:	03da      	lsls	r2, r3, #15
 8000ede:	d40d      	bmi.n	8000efc <HAL_RCC_OscConfig+0x108>
 8000ee0:	6823      	ldr	r3, [r4, #0]
 8000ee2:	079b      	lsls	r3, r3, #30
 8000ee4:	d502      	bpl.n	8000eec <HAL_RCC_OscConfig+0xf8>
 8000ee6:	692b      	ldr	r3, [r5, #16]
 8000ee8:	2b01      	cmp	r3, #1
 8000eea:	d1af      	bne.n	8000e4c <HAL_RCC_OscConfig+0x58>
 8000eec:	6823      	ldr	r3, [r4, #0]
 8000eee:	696a      	ldr	r2, [r5, #20]
 8000ef0:	f023 03f8 	bic.w	r3, r3, #248	@ 0xf8
 8000ef4:	ea43 03c2 	orr.w	r3, r3, r2, lsl #3
 8000ef8:	6023      	str	r3, [r4, #0]
 8000efa:	e785      	b.n	8000e08 <HAL_RCC_OscConfig+0x14>
 8000efc:	692a      	ldr	r2, [r5, #16]
 8000efe:	4b5b      	ldr	r3, [pc, #364]	@ (800106c <HAL_RCC_OscConfig+0x278>)
 8000f00:	b16a      	cbz	r2, 8000f1e <HAL_RCC_OscConfig+0x12a>
 8000f02:	2201      	movs	r2, #1
 8000f04:	601a      	str	r2, [r3, #0]
 8000f06:	f7ff fef1 	bl	8000cec <HAL_GetTick>
 8000f0a:	4606      	mov	r6, r0
 8000f0c:	6823      	ldr	r3, [r4, #0]
 8000f0e:	079f      	lsls	r7, r3, #30
 8000f10:	d4ec      	bmi.n	8000eec <HAL_RCC_OscConfig+0xf8>
 8000f12:	f7ff feeb 	bl	8000cec <HAL_GetTick>
 8000f16:	1b80      	subs	r0, r0, r6
 8000f18:	2802      	cmp	r0, #2
 8000f1a:	d9f7      	bls.n	8000f0c <HAL_RCC_OscConfig+0x118>
 8000f1c:	e7ab      	b.n	8000e76 <HAL_RCC_OscConfig+0x82>
 8000f1e:	601a      	str	r2, [r3, #0]
 8000f20:	f7ff fee4 	bl	8000cec <HAL_GetTick>
 8000f24:	4606      	mov	r6, r0
 8000f26:	6823      	ldr	r3, [r4, #0]
 8000f28:	0798      	lsls	r0, r3, #30
 8000f2a:	f57f af6d 	bpl.w	8000e08 <HAL_RCC_OscConfig+0x14>
 8000f2e:	f7ff fedd 	bl	8000cec <HAL_GetTick>
 8000f32:	1b80      	subs	r0, r0, r6
 8000f34:	2802      	cmp	r0, #2
 8000f36:	d9f6      	bls.n	8000f26 <HAL_RCC_OscConfig+0x132>
 8000f38:	e79d      	b.n	8000e76 <HAL_RCC_OscConfig+0x82>
 8000f3a:	69aa      	ldr	r2, [r5, #24]
 8000f3c:	4e4a      	ldr	r6, [pc, #296]	@ (8001068 <HAL_RCC_OscConfig+0x274>)
 8000f3e:	4b4b      	ldr	r3, [pc, #300]	@ (800106c <HAL_RCC_OscConfig+0x278>)
 8000f40:	b1e2      	cbz	r2, 8000f7c <HAL_RCC_OscConfig+0x188>
 8000f42:	2201      	movs	r2, #1
 8000f44:	f8c3 2480 	str.w	r2, [r3, #1152]	@ 0x480
 8000f48:	f7ff fed0 	bl	8000cec <HAL_GetTick>
 8000f4c:	4604      	mov	r4, r0
 8000f4e:	6a73      	ldr	r3, [r6, #36]	@ 0x24
 8000f50:	079b      	lsls	r3, r3, #30
 8000f52:	d50d      	bpl.n	8000f70 <HAL_RCC_OscConfig+0x17c>
 8000f54:	f44f 52fa 	mov.w	r2, #8000	@ 0x1f40
 8000f58:	4b45      	ldr	r3, [pc, #276]	@ (8001070 <HAL_RCC_OscConfig+0x27c>)
 8000f5a:	681b      	ldr	r3, [r3, #0]
 8000f5c:	fbb3 f3f2 	udiv	r3, r3, r2
 8000f60:	9301      	str	r3, [sp, #4]
 8000f62:	bf00      	nop
 8000f64:	9b01      	ldr	r3, [sp, #4]
 8000f66:	1e5a      	subs	r2, r3, #1
 8000f68:	9201      	str	r2, [sp, #4]
 8000f6a:	2b00      	cmp	r3, #0
 8000f6c:	d1f9      	bne.n	8000f62 <HAL_RCC_OscConfig+0x16e>
 8000f6e:	e74f      	b.n	8000e10 <HAL_RCC_OscConfig+0x1c>
 8000f70:	f7ff febc 	bl	8000cec <HAL_GetTick>
 8000f74:	1b00      	subs	r0, r0, r4
 8000f76:	2802      	cmp	r0, #2
 8000f78:	d9e9      	bls.n	8000f4e <HAL_RCC_OscConfig+0x15a>
 8000f7a:	e77c      	b.n	8000e76 <HAL_RCC_OscConfig+0x82>
 8000f7c:	f8c3 2480 	str.w	r2, [r3, #1152]	@ 0x480
 8000f80:	f7ff feb4 	bl	8000cec <HAL_GetTick>
 8000f84:	4604      	mov	r4, r0
 8000f86:	6a73      	ldr	r3, [r6, #36]	@ 0x24
 8000f88:	079f      	lsls	r7, r3, #30
 8000f8a:	f57f af41 	bpl.w	8000e10 <HAL_RCC_OscConfig+0x1c>
 8000f8e:	f7ff fead 	bl	8000cec <HAL_GetTick>
 8000f92:	1b00      	subs	r0, r0, r4
 8000f94:	2802      	cmp	r0, #2
 8000f96:	d9f6      	bls.n	8000f86 <HAL_RCC_OscConfig+0x192>
 8000f98:	e76d      	b.n	8000e76 <HAL_RCC_OscConfig+0x82>
 8000f9a:	4c33      	ldr	r4, [pc, #204]	@ (8001068 <HAL_RCC_OscConfig+0x274>)
 8000f9c:	69e3      	ldr	r3, [r4, #28]
 8000f9e:	00d8      	lsls	r0, r3, #3
 8000fa0:	d424      	bmi.n	8000fec <HAL_RCC_OscConfig+0x1f8>
 8000fa2:	2701      	movs	r7, #1
 8000fa4:	69e3      	ldr	r3, [r4, #28]
 8000fa6:	f043 5380 	orr.w	r3, r3, #268435456	@ 0x10000000
 8000faa:	61e3      	str	r3, [r4, #28]
 8000fac:	69e3      	ldr	r3, [r4, #28]
 8000fae:	f003 5380 	and.w	r3, r3, #268435456	@ 0x10000000
 8000fb2:	9300      	str	r3, [sp, #0]
 8000fb4:	9b00      	ldr	r3, [sp, #0]
 8000fb6:	4e2f      	ldr	r6, [pc, #188]	@ (8001074 <HAL_RCC_OscConfig+0x280>)
 8000fb8:	6833      	ldr	r3, [r6, #0]
 8000fba:	05d9      	lsls	r1, r3, #23
 8000fbc:	d518      	bpl.n	8000ff0 <HAL_RCC_OscConfig+0x1fc>
 8000fbe:	68eb      	ldr	r3, [r5, #12]
 8000fc0:	2b01      	cmp	r3, #1
 8000fc2:	d126      	bne.n	8001012 <HAL_RCC_OscConfig+0x21e>
 8000fc4:	6a23      	ldr	r3, [r4, #32]
 8000fc6:	f043 0301 	orr.w	r3, r3, #1
 8000fca:	6223      	str	r3, [r4, #32]
 8000fcc:	f7ff fe8e 	bl	8000cec <HAL_GetTick>
 8000fd0:	f241 3888 	movw	r8, #5000	@ 0x1388
 8000fd4:	4606      	mov	r6, r0
 8000fd6:	6a23      	ldr	r3, [r4, #32]
 8000fd8:	079b      	lsls	r3, r3, #30
 8000fda:	d53f      	bpl.n	800105c <HAL_RCC_OscConfig+0x268>
 8000fdc:	2f00      	cmp	r7, #0
 8000fde:	f43f af1b 	beq.w	8000e18 <HAL_RCC_OscConfig+0x24>
 8000fe2:	69e3      	ldr	r3, [r4, #28]
 8000fe4:	f023 5380 	bic.w	r3, r3, #268435456	@ 0x10000000
 8000fe8:	61e3      	str	r3, [r4, #28]
 8000fea:	e715      	b.n	8000e18 <HAL_RCC_OscConfig+0x24>
 8000fec:	2700      	movs	r7, #0
 8000fee:	e7e2      	b.n	8000fb6 <HAL_RCC_OscConfig+0x1c2>
 8000ff0:	6833      	ldr	r3, [r6, #0]
 8000ff2:	f443 7380 	orr.w	r3, r3, #256	@ 0x100
 8000ff6:	6033      	str	r3, [r6, #0]
 8000ff8:	f7ff fe78 	bl	8000cec <HAL_GetTick>
 8000ffc:	4680      	mov	r8, r0
 8000ffe:	6833      	ldr	r3, [r6, #0]
 8001000:	05da      	lsls	r2, r3, #23
 8001002:	d4dc      	bmi.n	8000fbe <HAL_RCC_OscConfig+0x1ca>
 8001004:	f7ff fe72 	bl	8000cec <HAL_GetTick>
 8001008:	eba0 0008 	sub.w	r0, r0, r8
 800100c:	2864      	cmp	r0, #100	@ 0x64
 800100e:	d9f6      	bls.n	8000ffe <HAL_RCC_OscConfig+0x20a>
 8001010:	e731      	b.n	8000e76 <HAL_RCC_OscConfig+0x82>
 8001012:	b9ab      	cbnz	r3, 8001040 <HAL_RCC_OscConfig+0x24c>
 8001014:	6a23      	ldr	r3, [r4, #32]
 8001016:	f241 3888 	movw	r8, #5000	@ 0x1388
 800101a:	f023 0301 	bic.w	r3, r3, #1
 800101e:	6223      	str	r3, [r4, #32]
 8001020:	6a23      	ldr	r3, [r4, #32]
 8001022:	f023 0304 	bic.w	r3, r3, #4
 8001026:	6223      	str	r3, [r4, #32]
 8001028:	f7ff fe60 	bl	8000cec <HAL_GetTick>
 800102c:	4606      	mov	r6, r0
 800102e:	6a23      	ldr	r3, [r4, #32]
 8001030:	0798      	lsls	r0, r3, #30
 8001032:	d5d3      	bpl.n	8000fdc <HAL_RCC_OscConfig+0x1e8>
 8001034:	f7ff fe5a 	bl	8000cec <HAL_GetTick>
 8001038:	1b80      	subs	r0, r0, r6
 800103a:	4540      	cmp	r0, r8
 800103c:	d9f7      	bls.n	800102e <HAL_RCC_OscConfig+0x23a>
 800103e:	e71a      	b.n	8000e76 <HAL_RCC_OscConfig+0x82>
 8001040:	2b05      	cmp	r3, #5
 8001042:	6a23      	ldr	r3, [r4, #32]
 8001044:	d103      	bne.n	800104e <HAL_RCC_OscConfig+0x25a>
 8001046:	f043 0304 	orr.w	r3, r3, #4
 800104a:	6223      	str	r3, [r4, #32]
 800104c:	e7ba      	b.n	8000fc4 <HAL_RCC_OscConfig+0x1d0>
 800104e:	f023 0301 	bic.w	r3, r3, #1
 8001052:	6223      	str	r3, [r4, #32]
 8001054:	6a23      	ldr	r3, [r4, #32]
 8001056:	f023 0304 	bic.w	r3, r3, #4
 800105a:	e7b6      	b.n	8000fca <HAL_RCC_OscConfig+0x1d6>
 800105c:	f7ff fe46 	bl	8000cec <HAL_GetTick>
 8001060:	1b80      	subs	r0, r0, r6
 8001062:	4540      	cmp	r0, r8
 8001064:	d9b7      	bls.n	8000fd6 <HAL_RCC_OscConfig+0x1e2>
 8001066:	e706      	b.n	8000e76 <HAL_RCC_OscConfig+0x82>
 8001068:	40021000 	.word	0x40021000
 800106c:	42420000 	.word	0x42420000
 8001070:	20000000 	.word	0x20000000
 8001074:	40007000 	.word	0x40007000
 8001078:	4c2a      	ldr	r4, [pc, #168]	@ (8001124 <HAL_RCC_OscConfig+0x330>)
 800107a:	6862      	ldr	r2, [r4, #4]
 800107c:	f002 020c 	and.w	r2, r2, #12
 8001080:	2a08      	cmp	r2, #8
 8001082:	d03e      	beq.n	8001102 <HAL_RCC_OscConfig+0x30e>
 8001084:	2200      	movs	r2, #0
 8001086:	2b02      	cmp	r3, #2
 8001088:	4b27      	ldr	r3, [pc, #156]	@ (8001128 <HAL_RCC_OscConfig+0x334>)
 800108a:	661a      	str	r2, [r3, #96]	@ 0x60
 800108c:	d12c      	bne.n	80010e8 <HAL_RCC_OscConfig+0x2f4>
 800108e:	f7ff fe2d 	bl	8000cec <HAL_GetTick>
 8001092:	4606      	mov	r6, r0
 8001094:	6823      	ldr	r3, [r4, #0]
 8001096:	0199      	lsls	r1, r3, #6
 8001098:	d420      	bmi.n	80010dc <HAL_RCC_OscConfig+0x2e8>
 800109a:	6a2b      	ldr	r3, [r5, #32]
 800109c:	f5b3 3f80 	cmp.w	r3, #65536	@ 0x10000
 80010a0:	d105      	bne.n	80010ae <HAL_RCC_OscConfig+0x2ba>
 80010a2:	6862      	ldr	r2, [r4, #4]
 80010a4:	68a9      	ldr	r1, [r5, #8]
 80010a6:	f422 3200 	bic.w	r2, r2, #131072	@ 0x20000
 80010aa:	430a      	orrs	r2, r1
 80010ac:	6062      	str	r2, [r4, #4]
 80010ae:	6a69      	ldr	r1, [r5, #36]	@ 0x24
 80010b0:	6862      	ldr	r2, [r4, #4]
 80010b2:	430b      	orrs	r3, r1
 80010b4:	f422 1274 	bic.w	r2, r2, #3997696	@ 0x3d0000
 80010b8:	4313      	orrs	r3, r2
 80010ba:	2201      	movs	r2, #1
 80010bc:	6063      	str	r3, [r4, #4]
 80010be:	4b1a      	ldr	r3, [pc, #104]	@ (8001128 <HAL_RCC_OscConfig+0x334>)
 80010c0:	661a      	str	r2, [r3, #96]	@ 0x60
 80010c2:	f7ff fe13 	bl	8000cec <HAL_GetTick>
 80010c6:	4605      	mov	r5, r0
 80010c8:	6823      	ldr	r3, [r4, #0]
 80010ca:	019a      	lsls	r2, r3, #6
 80010cc:	f53f aea8 	bmi.w	8000e20 <HAL_RCC_OscConfig+0x2c>
 80010d0:	f7ff fe0c 	bl	8000cec <HAL_GetTick>
 80010d4:	1b40      	subs	r0, r0, r5
 80010d6:	2802      	cmp	r0, #2
 80010d8:	d9f6      	bls.n	80010c8 <HAL_RCC_OscConfig+0x2d4>
 80010da:	e6cc      	b.n	8000e76 <HAL_RCC_OscConfig+0x82>
 80010dc:	f7ff fe06 	bl	8000cec <HAL_GetTick>
 80010e0:	1b80      	subs	r0, r0, r6
 80010e2:	2802      	cmp	r0, #2
 80010e4:	d9d6      	bls.n	8001094 <HAL_RCC_OscConfig+0x2a0>
 80010e6:	e6c6      	b.n	8000e76 <HAL_RCC_OscConfig+0x82>
 80010e8:	f7ff fe00 	bl	8000cec <HAL_GetTick>
 80010ec:	4605      	mov	r5, r0
 80010ee:	6823      	ldr	r3, [r4, #0]
 80010f0:	019b      	lsls	r3, r3, #6
 80010f2:	f57f ae95 	bpl.w	8000e20 <HAL_RCC_OscConfig+0x2c>
 80010f6:	f7ff fdf9 	bl	8000cec <HAL_GetTick>
 80010fa:	1b40      	subs	r0, r0, r5
 80010fc:	2802      	cmp	r0, #2
 80010fe:	d9f6      	bls.n	80010ee <HAL_RCC_OscConfig+0x2fa>
 8001100:	e6b9      	b.n	8000e76 <HAL_RCC_OscConfig+0x82>
 8001102:	2b01      	cmp	r3, #1
 8001104:	f43f aea2 	beq.w	8000e4c <HAL_RCC_OscConfig+0x58>
 8001108:	6860      	ldr	r0, [r4, #4]
 800110a:	6a2b      	ldr	r3, [r5, #32]
 800110c:	f400 3280 	and.w	r2, r0, #65536	@ 0x10000
 8001110:	429a      	cmp	r2, r3
 8001112:	f47f ae9b 	bne.w	8000e4c <HAL_RCC_OscConfig+0x58>
 8001116:	6a6b      	ldr	r3, [r5, #36]	@ 0x24
 8001118:	f400 1070 	and.w	r0, r0, #3932160	@ 0x3c0000
 800111c:	1ac0      	subs	r0, r0, r3
 800111e:	bf18      	it	ne
 8001120:	2001      	movne	r0, #1
 8001122:	e6a9      	b.n	8000e78 <HAL_RCC_OscConfig+0x84>
 8001124:	40021000 	.word	0x40021000
 8001128:	42420000 	.word	0x42420000

0800112c <HAL_RCC_GetSysClockFreq>:
 800112c:	4a0d      	ldr	r2, [pc, #52]	@ (8001164 <HAL_RCC_GetSysClockFreq+0x38>)
 800112e:	6853      	ldr	r3, [r2, #4]
 8001130:	f003 010c 	and.w	r1, r3, #12
 8001134:	2908      	cmp	r1, #8
 8001136:	d112      	bne.n	800115e <HAL_RCC_GetSysClockFreq+0x32>
 8001138:	480b      	ldr	r0, [pc, #44]	@ (8001168 <HAL_RCC_GetSysClockFreq+0x3c>)
 800113a:	f3c3 4183 	ubfx	r1, r3, #18, #4
 800113e:	03db      	lsls	r3, r3, #15
 8001140:	5c40      	ldrb	r0, [r0, r1]
 8001142:	d509      	bpl.n	8001158 <HAL_RCC_GetSysClockFreq+0x2c>
 8001144:	6853      	ldr	r3, [r2, #4]
 8001146:	4a09      	ldr	r2, [pc, #36]	@ (800116c <HAL_RCC_GetSysClockFreq+0x40>)
 8001148:	f3c3 4340 	ubfx	r3, r3, #17, #1
 800114c:	4350      	muls	r0, r2
 800114e:	4a08      	ldr	r2, [pc, #32]	@ (8001170 <HAL_RCC_GetSysClockFreq+0x44>)
 8001150:	5cd3      	ldrb	r3, [r2, r3]
 8001152:	fbb0 f0f3 	udiv	r0, r0, r3
 8001156:	4770      	bx	lr
 8001158:	4b06      	ldr	r3, [pc, #24]	@ (8001174 <HAL_RCC_GetSysClockFreq+0x48>)
 800115a:	4358      	muls	r0, r3
 800115c:	4770      	bx	lr
 800115e:	4803      	ldr	r0, [pc, #12]	@ (800116c <HAL_RCC_GetSysClockFreq+0x40>)
 8001160:	4770      	bx	lr
 8001162:	bf00      	nop
 8001164:	40021000 	.word	0x40021000
 8001168:	080073de 	.word	0x080073de
 800116c:	007a1200 	.word	0x007a1200
 8001170:	080073dc 	.word	0x080073dc
 8001174:	003d0900 	.word	0x003d0900

08001178 <HAL_RCC_ClockConfig>:
 8001178:	e92d 41f0 	stmdb	sp!, {r4, r5, r6, r7, r8, lr}
 800117c:	460d      	mov	r5, r1
 800117e:	4604      	mov	r4, r0
 8001180:	b910      	cbnz	r0, 8001188 <HAL_RCC_ClockConfig+0x10>
 8001182:	2001      	movs	r0, #1
 8001184:	e8bd 81f0 	ldmia.w	sp!, {r4, r5, r6, r7, r8, pc}
 8001188:	4a44      	ldr	r2, [pc, #272]	@ (800129c <HAL_RCC_ClockConfig+0x124>)
 800118a:	6813      	ldr	r3, [r2, #0]
 800118c:	f003 0307 	and.w	r3, r3, #7
 8001190:	428b      	cmp	r3, r1
 8001192:	d328      	bcc.n	80011e6 <HAL_RCC_ClockConfig+0x6e>
 8001194:	6821      	ldr	r1, [r4, #0]
 8001196:	078e      	lsls	r6, r1, #30
 8001198:	d430      	bmi.n	80011fc <HAL_RCC_ClockConfig+0x84>
 800119a:	07ca      	lsls	r2, r1, #31
 800119c:	d443      	bmi.n	8001226 <HAL_RCC_ClockConfig+0xae>
 800119e:	4a3f      	ldr	r2, [pc, #252]	@ (800129c <HAL_RCC_ClockConfig+0x124>)
 80011a0:	6813      	ldr	r3, [r2, #0]
 80011a2:	f003 0307 	and.w	r3, r3, #7
 80011a6:	42ab      	cmp	r3, r5
 80011a8:	d865      	bhi.n	8001276 <HAL_RCC_ClockConfig+0xfe>
 80011aa:	6822      	ldr	r2, [r4, #0]
 80011ac:	4d3c      	ldr	r5, [pc, #240]	@ (80012a0 <HAL_RCC_ClockConfig+0x128>)
 80011ae:	f012 0f04 	tst.w	r2, #4
 80011b2:	d16c      	bne.n	800128e <HAL_RCC_ClockConfig+0x116>
 80011b4:	0713      	lsls	r3, r2, #28
 80011b6:	d506      	bpl.n	80011c6 <HAL_RCC_ClockConfig+0x4e>
 80011b8:	686b      	ldr	r3, [r5, #4]
 80011ba:	6922      	ldr	r2, [r4, #16]
 80011bc:	f423 5360 	bic.w	r3, r3, #14336	@ 0x3800
 80011c0:	ea43 03c2 	orr.w	r3, r3, r2, lsl #3
 80011c4:	606b      	str	r3, [r5, #4]
 80011c6:	f7ff ffb1 	bl	800112c <HAL_RCC_GetSysClockFreq>
 80011ca:	686b      	ldr	r3, [r5, #4]
 80011cc:	4a35      	ldr	r2, [pc, #212]	@ (80012a4 <HAL_RCC_ClockConfig+0x12c>)
 80011ce:	f3c3 1303 	ubfx	r3, r3, #4, #4
 80011d2:	5cd3      	ldrb	r3, [r2, r3]
 80011d4:	40d8      	lsrs	r0, r3
 80011d6:	4b34      	ldr	r3, [pc, #208]	@ (80012a8 <HAL_RCC_ClockConfig+0x130>)
 80011d8:	6018      	str	r0, [r3, #0]
 80011da:	4b34      	ldr	r3, [pc, #208]	@ (80012ac <HAL_RCC_ClockConfig+0x134>)
 80011dc:	6818      	ldr	r0, [r3, #0]
 80011de:	f002 fbb7 	bl	8003950 <HAL_InitTick>
 80011e2:	2000      	movs	r0, #0
 80011e4:	e7ce      	b.n	8001184 <HAL_RCC_ClockConfig+0xc>
 80011e6:	6813      	ldr	r3, [r2, #0]
 80011e8:	f023 0307 	bic.w	r3, r3, #7
 80011ec:	430b      	orrs	r3, r1
 80011ee:	6013      	str	r3, [r2, #0]
 80011f0:	6813      	ldr	r3, [r2, #0]
 80011f2:	f003 0307 	and.w	r3, r3, #7
 80011f6:	428b      	cmp	r3, r1
 80011f8:	d1c3      	bne.n	8001182 <HAL_RCC_ClockConfig+0xa>
 80011fa:	e7cb      	b.n	8001194 <HAL_RCC_ClockConfig+0x1c>
 80011fc:	4b28      	ldr	r3, [pc, #160]	@ (80012a0 <HAL_RCC_ClockConfig+0x128>)
 80011fe:	f011 0f04 	tst.w	r1, #4
 8001202:	bf1e      	ittt	ne
 8001204:	685a      	ldrne	r2, [r3, #4]
 8001206:	f442 62e0 	orrne.w	r2, r2, #1792	@ 0x700
 800120a:	605a      	strne	r2, [r3, #4]
 800120c:	0708      	lsls	r0, r1, #28
 800120e:	bf42      	ittt	mi
 8001210:	685a      	ldrmi	r2, [r3, #4]
 8001212:	f442 5260 	orrmi.w	r2, r2, #14336	@ 0x3800
 8001216:	605a      	strmi	r2, [r3, #4]
 8001218:	685a      	ldr	r2, [r3, #4]
 800121a:	68a0      	ldr	r0, [r4, #8]
 800121c:	f022 02f0 	bic.w	r2, r2, #240	@ 0xf0
 8001220:	4302      	orrs	r2, r0
 8001222:	605a      	str	r2, [r3, #4]
 8001224:	e7b9      	b.n	800119a <HAL_RCC_ClockConfig+0x22>
 8001226:	6862      	ldr	r2, [r4, #4]
 8001228:	4e1d      	ldr	r6, [pc, #116]	@ (80012a0 <HAL_RCC_ClockConfig+0x128>)
 800122a:	2a01      	cmp	r2, #1
 800122c:	6833      	ldr	r3, [r6, #0]
 800122e:	d11a      	bne.n	8001266 <HAL_RCC_ClockConfig+0xee>
 8001230:	f413 3f00 	tst.w	r3, #131072	@ 0x20000
 8001234:	d0a5      	beq.n	8001182 <HAL_RCC_ClockConfig+0xa>
 8001236:	6873      	ldr	r3, [r6, #4]
 8001238:	f241 3888 	movw	r8, #5000	@ 0x1388
 800123c:	f023 0303 	bic.w	r3, r3, #3
 8001240:	4313      	orrs	r3, r2
 8001242:	6073      	str	r3, [r6, #4]
 8001244:	f7ff fd52 	bl	8000cec <HAL_GetTick>
 8001248:	4607      	mov	r7, r0
 800124a:	6873      	ldr	r3, [r6, #4]
 800124c:	6862      	ldr	r2, [r4, #4]
 800124e:	f003 030c 	and.w	r3, r3, #12
 8001252:	ebb3 0f82 	cmp.w	r3, r2, lsl #2
 8001256:	d0a2      	beq.n	800119e <HAL_RCC_ClockConfig+0x26>
 8001258:	f7ff fd48 	bl	8000cec <HAL_GetTick>
 800125c:	1bc0      	subs	r0, r0, r7
 800125e:	4540      	cmp	r0, r8
 8001260:	d9f3      	bls.n	800124a <HAL_RCC_ClockConfig+0xd2>
 8001262:	2003      	movs	r0, #3
 8001264:	e78e      	b.n	8001184 <HAL_RCC_ClockConfig+0xc>
 8001266:	2a02      	cmp	r2, #2
 8001268:	d102      	bne.n	8001270 <HAL_RCC_ClockConfig+0xf8>
 800126a:	f013 7f00 	tst.w	r3, #33554432	@ 0x2000000
 800126e:	e7e1      	b.n	8001234 <HAL_RCC_ClockConfig+0xbc>
 8001270:	f013 0f02 	tst.w	r3, #2
 8001274:	e7de      	b.n	8001234 <HAL_RCC_ClockConfig+0xbc>
 8001276:	6813      	ldr	r3, [r2, #0]
 8001278:	f023 0307 	bic.w	r3, r3, #7
 800127c:	432b      	orrs	r3, r5
 800127e:	6013      	str	r3, [r2, #0]
 8001280:	6813      	ldr	r3, [r2, #0]
 8001282:	f003 0307 	and.w	r3, r3, #7
 8001286:	42ab      	cmp	r3, r5
 8001288:	f47f af7b 	bne.w	8001182 <HAL_RCC_ClockConfig+0xa>
 800128c:	e78d      	b.n	80011aa <HAL_RCC_ClockConfig+0x32>
 800128e:	686b      	ldr	r3, [r5, #4]
 8001290:	68e1      	ldr	r1, [r4, #12]
 8001292:	f423 63e0 	bic.w	r3, r3, #1792	@ 0x700
 8001296:	430b      	orrs	r3, r1
 8001298:	606b      	str	r3, [r5, #4]
 800129a:	e78b      	b.n	80011b4 <HAL_RCC_ClockConfig+0x3c>
 800129c:	40022000 	.word	0x40022000
 80012a0:	40021000 	.word	0x40021000
 80012a4:	080073cc 	.word	0x080073cc
 80012a8:	20000000 	.word	0x20000000
 80012ac:	20000008 	.word	0x20000008

080012b0 <HAL_RCC_GetPCLK1Freq>:
 80012b0:	4b04      	ldr	r3, [pc, #16]	@ (80012c4 <HAL_RCC_GetPCLK1Freq+0x14>)
 80012b2:	4a05      	ldr	r2, [pc, #20]	@ (80012c8 <HAL_RCC_GetPCLK1Freq+0x18>)
 80012b4:	685b      	ldr	r3, [r3, #4]
 80012b6:	f3c3 2302 	ubfx	r3, r3, #8, #3
 80012ba:	5cd3      	ldrb	r3, [r2, r3]
 80012bc:	4a03      	ldr	r2, [pc, #12]	@ (80012cc <HAL_RCC_GetPCLK1Freq+0x1c>)
 80012be:	6810      	ldr	r0, [r2, #0]
 80012c0:	40d8      	lsrs	r0, r3
 80012c2:	4770      	bx	lr
 80012c4:	40021000 	.word	0x40021000
 80012c8:	080073c4 	.word	0x080073c4
 80012cc:	20000000 	.word	0x20000000

080012d0 <HAL_RCC_GetPCLK2Freq>:
 80012d0:	4b04      	ldr	r3, [pc, #16]	@ (80012e4 <HAL_RCC_GetPCLK2Freq+0x14>)
 80012d2:	4a05      	ldr	r2, [pc, #20]	@ (80012e8 <HAL_RCC_GetPCLK2Freq+0x18>)
 80012d4:	685b      	ldr	r3, [r3, #4]
 80012d6:	f3c3 23c2 	ubfx	r3, r3, #11, #3
 80012da:	5cd3      	ldrb	r3, [r2, r3]
 80012dc:	4a03      	ldr	r2, [pc, #12]	@ (80012ec <HAL_RCC_GetPCLK2Freq+0x1c>)
 80012de:	6810      	ldr	r0, [r2, #0]
 80012e0:	40d8      	lsrs	r0, r3
 80012e2:	4770      	bx	lr
 80012e4:	40021000 	.word	0x40021000
 80012e8:	080073c4 	.word	0x080073c4
 80012ec:	20000000 	.word	0x20000000

080012f0 <HAL_RCC_GetClockConfig>:
 80012f0:	230f      	movs	r3, #15
 80012f2:	6003      	str	r3, [r0, #0]
 80012f4:	4b0b      	ldr	r3, [pc, #44]	@ (8001324 <HAL_RCC_GetClockConfig+0x34>)
 80012f6:	685a      	ldr	r2, [r3, #4]
 80012f8:	f002 0203 	and.w	r2, r2, #3
 80012fc:	6042      	str	r2, [r0, #4]
 80012fe:	685a      	ldr	r2, [r3, #4]
 8001300:	f002 02f0 	and.w	r2, r2, #240	@ 0xf0
 8001304:	6082      	str	r2, [r0, #8]
 8001306:	685a      	ldr	r2, [r3, #4]
 8001308:	f402 62e0 	and.w	r2, r2, #1792	@ 0x700
 800130c:	60c2      	str	r2, [r0, #12]
 800130e:	685b      	ldr	r3, [r3, #4]
 8001310:	08db      	lsrs	r3, r3, #3
 8001312:	f403 63e0 	and.w	r3, r3, #1792	@ 0x700
 8001316:	6103      	str	r3, [r0, #16]
 8001318:	4b03      	ldr	r3, [pc, #12]	@ (8001328 <HAL_RCC_GetClockConfig+0x38>)
 800131a:	681b      	ldr	r3, [r3, #0]
 800131c:	f003 0307 	and.w	r3, r3, #7
 8001320:	600b      	str	r3, [r1, #0]
 8001322:	4770      	bx	lr
 8001324:	40021000 	.word	0x40021000
 8001328:	40022000 	.word	0x40022000

0800132c <HAL_RCCEx_PeriphCLKConfig>:
 800132c:	6803      	ldr	r3, [r0, #0]
 800132e:	e92d 41f3 	stmdb	sp!, {r0, r1, r4, r5, r6, r7, r8, lr}
 8001332:	4605      	mov	r5, r0
 8001334:	07d8      	lsls	r0, r3, #31
 8001336:	d521      	bpl.n	800137c <HAL_RCCEx_PeriphCLKConfig+0x50>
 8001338:	4c36      	ldr	r4, [pc, #216]	@ (8001414 <HAL_RCCEx_PeriphCLKConfig+0xe8>)
 800133a:	69e3      	ldr	r3, [r4, #28]
 800133c:	00d9      	lsls	r1, r3, #3
 800133e:	d42b      	bmi.n	8001398 <HAL_RCCEx_PeriphCLKConfig+0x6c>
 8001340:	2601      	movs	r6, #1
 8001342:	69e3      	ldr	r3, [r4, #28]
 8001344:	f043 5380 	orr.w	r3, r3, #268435456	@ 0x10000000
 8001348:	61e3      	str	r3, [r4, #28]
 800134a:	69e3      	ldr	r3, [r4, #28]
 800134c:	f003 5380 	and.w	r3, r3, #268435456	@ 0x10000000
 8001350:	9301      	str	r3, [sp, #4]
 8001352:	9b01      	ldr	r3, [sp, #4]
 8001354:	4f30      	ldr	r7, [pc, #192]	@ (8001418 <HAL_RCCEx_PeriphCLKConfig+0xec>)
 8001356:	683b      	ldr	r3, [r7, #0]
 8001358:	05da      	lsls	r2, r3, #23
 800135a:	d51f      	bpl.n	800139c <HAL_RCCEx_PeriphCLKConfig+0x70>
 800135c:	6a23      	ldr	r3, [r4, #32]
 800135e:	686a      	ldr	r2, [r5, #4]
 8001360:	f413 7340 	ands.w	r3, r3, #768	@ 0x300
 8001364:	d12e      	bne.n	80013c4 <HAL_RCCEx_PeriphCLKConfig+0x98>
 8001366:	6a23      	ldr	r3, [r4, #32]
 8001368:	686a      	ldr	r2, [r5, #4]
 800136a:	f423 7340 	bic.w	r3, r3, #768	@ 0x300
 800136e:	4313      	orrs	r3, r2
 8001370:	6223      	str	r3, [r4, #32]
 8001372:	b11e      	cbz	r6, 800137c <HAL_RCCEx_PeriphCLKConfig+0x50>
 8001374:	69e3      	ldr	r3, [r4, #28]
 8001376:	f023 5380 	bic.w	r3, r3, #268435456	@ 0x10000000
 800137a:	61e3      	str	r3, [r4, #28]
 800137c:	682a      	ldr	r2, [r5, #0]
 800137e:	0791      	lsls	r1, r2, #30
 8001380:	d506      	bpl.n	8001390 <HAL_RCCEx_PeriphCLKConfig+0x64>
 8001382:	4924      	ldr	r1, [pc, #144]	@ (8001414 <HAL_RCCEx_PeriphCLKConfig+0xe8>)
 8001384:	68a8      	ldr	r0, [r5, #8]
 8001386:	684b      	ldr	r3, [r1, #4]
 8001388:	f423 4340 	bic.w	r3, r3, #49152	@ 0xc000
 800138c:	4303      	orrs	r3, r0
 800138e:	604b      	str	r3, [r1, #4]
 8001390:	06d3      	lsls	r3, r2, #27
 8001392:	d436      	bmi.n	8001402 <HAL_RCCEx_PeriphCLKConfig+0xd6>
 8001394:	2000      	movs	r0, #0
 8001396:	e012      	b.n	80013be <HAL_RCCEx_PeriphCLKConfig+0x92>
 8001398:	2600      	movs	r6, #0
 800139a:	e7db      	b.n	8001354 <HAL_RCCEx_PeriphCLKConfig+0x28>
 800139c:	683b      	ldr	r3, [r7, #0]
 800139e:	f443 7380 	orr.w	r3, r3, #256	@ 0x100
 80013a2:	603b      	str	r3, [r7, #0]
 80013a4:	f7ff fca2 	bl	8000cec <HAL_GetTick>
 80013a8:	4680      	mov	r8, r0
 80013aa:	683b      	ldr	r3, [r7, #0]
 80013ac:	05db      	lsls	r3, r3, #23
 80013ae:	d4d5      	bmi.n	800135c <HAL_RCCEx_PeriphCLKConfig+0x30>
 80013b0:	f7ff fc9c 	bl	8000cec <HAL_GetTick>
 80013b4:	eba0 0008 	sub.w	r0, r0, r8
 80013b8:	2864      	cmp	r0, #100	@ 0x64
 80013ba:	d9f6      	bls.n	80013aa <HAL_RCCEx_PeriphCLKConfig+0x7e>
 80013bc:	2003      	movs	r0, #3
 80013be:	b002      	add	sp, #8
 80013c0:	e8bd 81f0 	ldmia.w	sp!, {r4, r5, r6, r7, r8, pc}
 80013c4:	f402 7240 	and.w	r2, r2, #768	@ 0x300
 80013c8:	429a      	cmp	r2, r3
 80013ca:	d0cc      	beq.n	8001366 <HAL_RCCEx_PeriphCLKConfig+0x3a>
 80013cc:	2001      	movs	r0, #1
 80013ce:	4a13      	ldr	r2, [pc, #76]	@ (800141c <HAL_RCCEx_PeriphCLKConfig+0xf0>)
 80013d0:	6a23      	ldr	r3, [r4, #32]
 80013d2:	f8c2 0440 	str.w	r0, [r2, #1088]	@ 0x440
 80013d6:	2000      	movs	r0, #0
 80013d8:	f423 7140 	bic.w	r1, r3, #768	@ 0x300
 80013dc:	07df      	lsls	r7, r3, #31
 80013de:	f8c2 0440 	str.w	r0, [r2, #1088]	@ 0x440
 80013e2:	6221      	str	r1, [r4, #32]
 80013e4:	d5bf      	bpl.n	8001366 <HAL_RCCEx_PeriphCLKConfig+0x3a>
 80013e6:	f7ff fc81 	bl	8000cec <HAL_GetTick>
 80013ea:	f241 3888 	movw	r8, #5000	@ 0x1388
 80013ee:	4607      	mov	r7, r0
 80013f0:	6a23      	ldr	r3, [r4, #32]
 80013f2:	0798      	lsls	r0, r3, #30
 80013f4:	d4b7      	bmi.n	8001366 <HAL_RCCEx_PeriphCLKConfig+0x3a>
 80013f6:	f7ff fc79 	bl	8000cec <HAL_GetTick>
 80013fa:	1bc0      	subs	r0, r0, r7
 80013fc:	4540      	cmp	r0, r8
 80013fe:	d9f7      	bls.n	80013f0 <HAL_RCCEx_PeriphCLKConfig+0xc4>
 8001400:	e7dc      	b.n	80013bc <HAL_RCCEx_PeriphCLKConfig+0x90>
 8001402:	4a04      	ldr	r2, [pc, #16]	@ (8001414 <HAL_RCCEx_PeriphCLKConfig+0xe8>)
 8001404:	68e9      	ldr	r1, [r5, #12]
 8001406:	6853      	ldr	r3, [r2, #4]
 8001408:	f423 0380 	bic.w	r3, r3, #4194304	@ 0x400000
 800140c:	430b      	orrs	r3, r1
 800140e:	6053      	str	r3, [r2, #4]
 8001410:	e7c0      	b.n	8001394 <HAL_RCCEx_PeriphCLKConfig+0x68>
 8001412:	bf00      	nop
 8001414:	40021000 	.word	0x40021000
 8001418:	40007000 	.word	0x40007000
 800141c:	42420000 	.word	0x42420000

08001420 <HAL_RCCEx_GetPeriphCLKFreq>:
 8001420:	2802      	cmp	r0, #2
 8001422:	b508      	push	{r3, lr}
 8001424:	d044      	beq.n	80014b0 <HAL_RCCEx_GetPeriphCLKFreq+0x90>
 8001426:	2810      	cmp	r0, #16
 8001428:	d003      	beq.n	8001432 <HAL_RCCEx_GetPeriphCLKFreq+0x12>
 800142a:	2801      	cmp	r0, #1
 800142c:	d022      	beq.n	8001474 <HAL_RCCEx_GetPeriphCLKFreq+0x54>
 800142e:	2000      	movs	r0, #0
 8001430:	e034      	b.n	800149c <HAL_RCCEx_GetPeriphCLKFreq+0x7c>
 8001432:	4b25      	ldr	r3, [pc, #148]	@ (80014c8 <HAL_RCCEx_GetPeriphCLKFreq+0xa8>)
 8001434:	685a      	ldr	r2, [r3, #4]
 8001436:	6818      	ldr	r0, [r3, #0]
 8001438:	f010 7080 	ands.w	r0, r0, #16777216	@ 0x1000000
 800143c:	d02e      	beq.n	800149c <HAL_RCCEx_GetPeriphCLKFreq+0x7c>
 800143e:	f3c2 4183 	ubfx	r1, r2, #18, #4
 8001442:	4822      	ldr	r0, [pc, #136]	@ (80014cc <HAL_RCCEx_GetPeriphCLKFreq+0xac>)
 8001444:	03d2      	lsls	r2, r2, #15
 8001446:	bf48      	it	mi
 8001448:	685a      	ldrmi	r2, [r3, #4]
 800144a:	5c40      	ldrb	r0, [r0, r1]
 800144c:	bf41      	itttt	mi
 800144e:	4920      	ldrmi	r1, [pc, #128]	@ (80014d0 <HAL_RCCEx_GetPeriphCLKFreq+0xb0>)
 8001450:	f3c2 4240 	ubfxmi	r2, r2, #17, #1
 8001454:	5c89      	ldrbmi	r1, [r1, r2]
 8001456:	4a1f      	ldrmi	r2, [pc, #124]	@ (80014d4 <HAL_RCCEx_GetPeriphCLKFreq+0xb4>)
 8001458:	685b      	ldr	r3, [r3, #4]
 800145a:	bf4c      	ite	mi
 800145c:	fbb2 f2f1 	udivmi	r2, r2, r1
 8001460:	4a1d      	ldrpl	r2, [pc, #116]	@ (80014d8 <HAL_RCCEx_GetPeriphCLKFreq+0xb8>)
 8001462:	025b      	lsls	r3, r3, #9
 8001464:	fb02 f000 	mul.w	r0, r2, r0
 8001468:	d418      	bmi.n	800149c <HAL_RCCEx_GetPeriphCLKFreq+0x7c>
 800146a:	2303      	movs	r3, #3
 800146c:	0040      	lsls	r0, r0, #1
 800146e:	fbb0 f0f3 	udiv	r0, r0, r3
 8001472:	e013      	b.n	800149c <HAL_RCCEx_GetPeriphCLKFreq+0x7c>
 8001474:	f240 3102 	movw	r1, #770	@ 0x302
 8001478:	4a13      	ldr	r2, [pc, #76]	@ (80014c8 <HAL_RCCEx_GetPeriphCLKFreq+0xa8>)
 800147a:	6a13      	ldr	r3, [r2, #32]
 800147c:	4019      	ands	r1, r3
 800147e:	f5b1 7f81 	cmp.w	r1, #258	@ 0x102
 8001482:	d01e      	beq.n	80014c2 <HAL_RCCEx_GetPeriphCLKFreq+0xa2>
 8001484:	f403 7340 	and.w	r3, r3, #768	@ 0x300
 8001488:	f5b3 7f00 	cmp.w	r3, #512	@ 0x200
 800148c:	d107      	bne.n	800149e <HAL_RCCEx_GetPeriphCLKFreq+0x7e>
 800148e:	f649 4040 	movw	r0, #40000	@ 0x9c40
 8001492:	6a53      	ldr	r3, [r2, #36]	@ 0x24
 8001494:	f013 0f02 	tst.w	r3, #2
 8001498:	bf08      	it	eq
 800149a:	2000      	moveq	r0, #0
 800149c:	bd08      	pop	{r3, pc}
 800149e:	f5b3 7f40 	cmp.w	r3, #768	@ 0x300
 80014a2:	d1c4      	bne.n	800142e <HAL_RCCEx_GetPeriphCLKFreq+0xe>
 80014a4:	6813      	ldr	r3, [r2, #0]
 80014a6:	f24f 4024 	movw	r0, #62500	@ 0xf424
 80014aa:	f413 3f00 	tst.w	r3, #131072	@ 0x20000
 80014ae:	e7f3      	b.n	8001498 <HAL_RCCEx_GetPeriphCLKFreq+0x78>
 80014b0:	f7ff ff0e 	bl	80012d0 <HAL_RCC_GetPCLK2Freq>
 80014b4:	4b04      	ldr	r3, [pc, #16]	@ (80014c8 <HAL_RCCEx_GetPeriphCLKFreq+0xa8>)
 80014b6:	685b      	ldr	r3, [r3, #4]
 80014b8:	f3c3 3381 	ubfx	r3, r3, #14, #2
 80014bc:	3301      	adds	r3, #1
 80014be:	005b      	lsls	r3, r3, #1
 80014c0:	e7d5      	b.n	800146e <HAL_RCCEx_GetPeriphCLKFreq+0x4e>
 80014c2:	f44f 4000 	mov.w	r0, #32768	@ 0x8000
 80014c6:	e7e9      	b.n	800149c <HAL_RCCEx_GetPeriphCLKFreq+0x7c>
 80014c8:	40021000 	.word	0x40021000
 80014cc:	080073f0 	.word	0x080073f0
 80014d0:	080073ee 	.word	0x080073ee
 80014d4:	007a1200 	.word	0x007a1200
 80014d8:	003d0900 	.word	0x003d0900

080014dc <HAL_GPIO_Init>:
 80014dc:	e92d 4ff7 	stmdb	sp!, {r0, r1, r2, r4, r5, r6, r7, r8, r9, sl, fp, lr}
 80014e0:	2400      	movs	r4, #0
 80014e2:	f04f 0e0f 	mov.w	lr, #15
 80014e6:	4626      	mov	r6, r4
 80014e8:	f8df c184 	ldr.w	ip, [pc, #388]	@ 8001670 <HAL_GPIO_Init+0x194>
 80014ec:	4b61      	ldr	r3, [pc, #388]	@ (8001674 <HAL_GPIO_Init+0x198>)
 80014ee:	f100 0804 	add.w	r8, r0, #4
 80014f2:	680a      	ldr	r2, [r1, #0]
 80014f4:	fa32 f506 	lsrs.w	r5, r2, r6
 80014f8:	d102      	bne.n	8001500 <HAL_GPIO_Init+0x24>
 80014fa:	b003      	add	sp, #12
 80014fc:	e8bd 8ff0 	ldmia.w	sp!, {r4, r5, r6, r7, r8, r9, sl, fp, pc}
 8001500:	2501      	movs	r5, #1
 8001502:	fa05 f706 	lsl.w	r7, r5, r6
 8001506:	ea02 0507 	and.w	r5, r2, r7
 800150a:	ea37 0202 	bics.w	r2, r7, r2
 800150e:	d176      	bne.n	80015fe <HAL_GPIO_Init+0x122>
 8001510:	684a      	ldr	r2, [r1, #4]
 8001512:	2a03      	cmp	r2, #3
 8001514:	d807      	bhi.n	8001526 <HAL_GPIO_Init+0x4a>
 8001516:	3a01      	subs	r2, #1
 8001518:	2a02      	cmp	r2, #2
 800151a:	f200 8083 	bhi.w	8001624 <HAL_GPIO_Init+0x148>
 800151e:	e8df f002 	tbb	[pc, r2]
 8001522:	9691      	.short	0x9691
 8001524:	9c          	.byte	0x9c
 8001525:	00          	.byte	0x00
 8001526:	2a12      	cmp	r2, #18
 8001528:	f000 8094 	beq.w	8001654 <HAL_GPIO_Init+0x178>
 800152c:	d869      	bhi.n	8001602 <HAL_GPIO_Init+0x126>
 800152e:	2a11      	cmp	r2, #17
 8001530:	f000 808a 	beq.w	8001648 <HAL_GPIO_Init+0x16c>
 8001534:	2dff      	cmp	r5, #255	@ 0xff
 8001536:	bf94      	ite	ls
 8001538:	4681      	movls	r9, r0
 800153a:	46c1      	movhi	r9, r8
 800153c:	ea4f 0286 	mov.w	r2, r6, lsl #2
 8001540:	f8d9 7000 	ldr.w	r7, [r9]
 8001544:	bf88      	it	hi
 8001546:	3a20      	subhi	r2, #32
 8001548:	fa0e fa02 	lsl.w	sl, lr, r2
 800154c:	ea27 070a 	bic.w	r7, r7, sl
 8001550:	fa04 f202 	lsl.w	r2, r4, r2
 8001554:	4317      	orrs	r7, r2
 8001556:	f8c9 7000 	str.w	r7, [r9]
 800155a:	f8d1 9004 	ldr.w	r9, [r1, #4]
 800155e:	f019 5f80 	tst.w	r9, #268435456	@ 0x10000000
 8001562:	d04c      	beq.n	80015fe <HAL_GPIO_Init+0x122>
 8001564:	f8dc 2018 	ldr.w	r2, [ip, #24]
 8001568:	f026 0703 	bic.w	r7, r6, #3
 800156c:	f042 0201 	orr.w	r2, r2, #1
 8001570:	f8cc 2018 	str.w	r2, [ip, #24]
 8001574:	f8dc 2018 	ldr.w	r2, [ip, #24]
 8001578:	f107 4780 	add.w	r7, r7, #1073741824	@ 0x40000000
 800157c:	f002 0201 	and.w	r2, r2, #1
 8001580:	9201      	str	r2, [sp, #4]
 8001582:	f507 3780 	add.w	r7, r7, #65536	@ 0x10000
 8001586:	f006 0a03 	and.w	sl, r6, #3
 800158a:	9a01      	ldr	r2, [sp, #4]
 800158c:	ea4f 0a8a 	mov.w	sl, sl, lsl #2
 8001590:	68ba      	ldr	r2, [r7, #8]
 8001592:	fa0e fb0a 	lsl.w	fp, lr, sl
 8001596:	ea22 0b0b 	bic.w	fp, r2, fp
 800159a:	4a37      	ldr	r2, [pc, #220]	@ (8001678 <HAL_GPIO_Init+0x19c>)
 800159c:	4290      	cmp	r0, r2
 800159e:	d060      	beq.n	8001662 <HAL_GPIO_Init+0x186>
 80015a0:	f502 6280 	add.w	r2, r2, #1024	@ 0x400
 80015a4:	4290      	cmp	r0, r2
 80015a6:	d05e      	beq.n	8001666 <HAL_GPIO_Init+0x18a>
 80015a8:	f502 6280 	add.w	r2, r2, #1024	@ 0x400
 80015ac:	4290      	cmp	r0, r2
 80015ae:	d05c      	beq.n	800166a <HAL_GPIO_Init+0x18e>
 80015b0:	f502 6280 	add.w	r2, r2, #1024	@ 0x400
 80015b4:	4290      	cmp	r0, r2
 80015b6:	bf14      	ite	ne
 80015b8:	2204      	movne	r2, #4
 80015ba:	2203      	moveq	r2, #3
 80015bc:	fa02 f20a 	lsl.w	r2, r2, sl
 80015c0:	ea42 020b 	orr.w	r2, r2, fp
 80015c4:	60ba      	str	r2, [r7, #8]
 80015c6:	689a      	ldr	r2, [r3, #8]
 80015c8:	f419 1f80 	tst.w	r9, #1048576	@ 0x100000
 80015cc:	bf14      	ite	ne
 80015ce:	432a      	orrne	r2, r5
 80015d0:	43aa      	biceq	r2, r5
 80015d2:	609a      	str	r2, [r3, #8]
 80015d4:	68da      	ldr	r2, [r3, #12]
 80015d6:	f419 1f00 	tst.w	r9, #2097152	@ 0x200000
 80015da:	bf14      	ite	ne
 80015dc:	432a      	orrne	r2, r5
 80015de:	43aa      	biceq	r2, r5
 80015e0:	60da      	str	r2, [r3, #12]
 80015e2:	685a      	ldr	r2, [r3, #4]
 80015e4:	f419 3f00 	tst.w	r9, #131072	@ 0x20000
 80015e8:	bf14      	ite	ne
 80015ea:	432a      	orrne	r2, r5
 80015ec:	43aa      	biceq	r2, r5
 80015ee:	605a      	str	r2, [r3, #4]
 80015f0:	681a      	ldr	r2, [r3, #0]
 80015f2:	f419 3f80 	tst.w	r9, #65536	@ 0x10000
 80015f6:	bf14      	ite	ne
 80015f8:	432a      	orrne	r2, r5
 80015fa:	43aa      	biceq	r2, r5
 80015fc:	601a      	str	r2, [r3, #0]
 80015fe:	3601      	adds	r6, #1
 8001600:	e777      	b.n	80014f2 <HAL_GPIO_Init+0x16>
 8001602:	f8df 9078 	ldr.w	r9, [pc, #120]	@ 800167c <HAL_GPIO_Init+0x1a0>
 8001606:	454a      	cmp	r2, r9
 8001608:	d00c      	beq.n	8001624 <HAL_GPIO_Init+0x148>
 800160a:	d814      	bhi.n	8001636 <HAL_GPIO_Init+0x15a>
 800160c:	f5a9 1980 	sub.w	r9, r9, #1048576	@ 0x100000
 8001610:	454a      	cmp	r2, r9
 8001612:	d007      	beq.n	8001624 <HAL_GPIO_Init+0x148>
 8001614:	f509 2970 	add.w	r9, r9, #983040	@ 0xf0000
 8001618:	454a      	cmp	r2, r9
 800161a:	d003      	beq.n	8001624 <HAL_GPIO_Init+0x148>
 800161c:	f5a9 1980 	sub.w	r9, r9, #1048576	@ 0x100000
 8001620:	454a      	cmp	r2, r9
 8001622:	d187      	bne.n	8001534 <HAL_GPIO_Init+0x58>
 8001624:	688a      	ldr	r2, [r1, #8]
 8001626:	b1d2      	cbz	r2, 800165e <HAL_GPIO_Init+0x182>
 8001628:	2a01      	cmp	r2, #1
 800162a:	f04f 0408 	mov.w	r4, #8
 800162e:	bf0c      	ite	eq
 8001630:	6107      	streq	r7, [r0, #16]
 8001632:	6147      	strne	r7, [r0, #20]
 8001634:	e77e      	b.n	8001534 <HAL_GPIO_Init+0x58>
 8001636:	f8df 9048 	ldr.w	r9, [pc, #72]	@ 8001680 <HAL_GPIO_Init+0x1a4>
 800163a:	454a      	cmp	r2, r9
 800163c:	d0f2      	beq.n	8001624 <HAL_GPIO_Init+0x148>
 800163e:	f509 3980 	add.w	r9, r9, #65536	@ 0x10000
 8001642:	e7ed      	b.n	8001620 <HAL_GPIO_Init+0x144>
 8001644:	68cc      	ldr	r4, [r1, #12]
 8001646:	e775      	b.n	8001534 <HAL_GPIO_Init+0x58>
 8001648:	68cc      	ldr	r4, [r1, #12]
 800164a:	3404      	adds	r4, #4
 800164c:	e772      	b.n	8001534 <HAL_GPIO_Init+0x58>
 800164e:	68cc      	ldr	r4, [r1, #12]
 8001650:	3408      	adds	r4, #8
 8001652:	e76f      	b.n	8001534 <HAL_GPIO_Init+0x58>
 8001654:	68cc      	ldr	r4, [r1, #12]
 8001656:	340c      	adds	r4, #12
 8001658:	e76c      	b.n	8001534 <HAL_GPIO_Init+0x58>
 800165a:	2400      	movs	r4, #0
 800165c:	e76a      	b.n	8001534 <HAL_GPIO_Init+0x58>
 800165e:	2404      	movs	r4, #4
 8001660:	e768      	b.n	8001534 <HAL_GPIO_Init+0x58>
 8001662:	2200      	movs	r2, #0
 8001664:	e7aa      	b.n	80015bc <HAL_GPIO_Init+0xe0>
 8001666:	2201      	movs	r2, #1
 8001668:	e7a8      	b.n	80015bc <HAL_GPIO_Init+0xe0>
 800166a:	2202      	movs	r2, #2
 800166c:	e7a6      	b.n	80015bc <HAL_GPIO_Init+0xe0>
 800166e:	bf00      	nop
 8001670:	40021000 	.word	0x40021000
 8001674:	40010400 	.word	0x40010400
 8001678:	40010800 	.word	0x40010800
 800167c:	10220000 	.word	0x10220000
 8001680:	10310000 	.word	0x10310000

08001684 <HAL_GPIO_DeInit>:
 8001684:	e92d 4ff7 	stmdb	sp!, {r0, r1, r2, r4, r5, r6, r7, r8, r9, sl, fp, lr}
 8001688:	f04f 0b04 	mov.w	fp, #4
 800168c:	2200      	movs	r2, #0
 800168e:	f04f 0a01 	mov.w	sl, #1
 8001692:	f04f 080f 	mov.w	r8, #15
 8001696:	eb00 030b 	add.w	r3, r0, fp
 800169a:	9301      	str	r3, [sp, #4]
 800169c:	4b2e      	ldr	r3, [pc, #184]	@ (8001758 <HAL_GPIO_DeInit+0xd4>)
 800169e:	fa31 f402 	lsrs.w	r4, r1, r2
 80016a2:	d102      	bne.n	80016aa <HAL_GPIO_DeInit+0x26>
 80016a4:	b003      	add	sp, #12
 80016a6:	e8bd 8ff0 	ldmia.w	sp!, {r4, r5, r6, r7, r8, r9, sl, fp, pc}
 80016aa:	fa0a f702 	lsl.w	r7, sl, r2
 80016ae:	400f      	ands	r7, r1
 80016b0:	d049      	beq.n	8001746 <HAL_GPIO_DeInit+0xc2>
 80016b2:	f022 0403 	bic.w	r4, r2, #3
 80016b6:	f104 4480 	add.w	r4, r4, #1073741824	@ 0x40000000
 80016ba:	f504 3480 	add.w	r4, r4, #65536	@ 0x10000
 80016be:	f002 0c03 	and.w	ip, r2, #3
 80016c2:	68a5      	ldr	r5, [r4, #8]
 80016c4:	ea4f 0c8c 	mov.w	ip, ip, lsl #2
 80016c8:	fa08 f90c 	lsl.w	r9, r8, ip
 80016cc:	ea09 0e05 	and.w	lr, r9, r5
 80016d0:	4d22      	ldr	r5, [pc, #136]	@ (800175c <HAL_GPIO_DeInit+0xd8>)
 80016d2:	42a8      	cmp	r0, r5
 80016d4:	d039      	beq.n	800174a <HAL_GPIO_DeInit+0xc6>
 80016d6:	f505 6580 	add.w	r5, r5, #1024	@ 0x400
 80016da:	42a8      	cmp	r0, r5
 80016dc:	d037      	beq.n	800174e <HAL_GPIO_DeInit+0xca>
 80016de:	f505 6580 	add.w	r5, r5, #1024	@ 0x400
 80016e2:	42a8      	cmp	r0, r5
 80016e4:	d035      	beq.n	8001752 <HAL_GPIO_DeInit+0xce>
 80016e6:	f505 6580 	add.w	r5, r5, #1024	@ 0x400
 80016ea:	42a8      	cmp	r0, r5
 80016ec:	bf14      	ite	ne
 80016ee:	2504      	movne	r5, #4
 80016f0:	2503      	moveq	r5, #3
 80016f2:	fa05 f50c 	lsl.w	r5, r5, ip
 80016f6:	4575      	cmp	r5, lr
 80016f8:	ea6f 0607 	mvn.w	r6, r7
 80016fc:	d10f      	bne.n	800171e <HAL_GPIO_DeInit+0x9a>
 80016fe:	681d      	ldr	r5, [r3, #0]
 8001700:	4035      	ands	r5, r6
 8001702:	601d      	str	r5, [r3, #0]
 8001704:	685d      	ldr	r5, [r3, #4]
 8001706:	4035      	ands	r5, r6
 8001708:	605d      	str	r5, [r3, #4]
 800170a:	68dd      	ldr	r5, [r3, #12]
 800170c:	4035      	ands	r5, r6
 800170e:	60dd      	str	r5, [r3, #12]
 8001710:	689d      	ldr	r5, [r3, #8]
 8001712:	4035      	ands	r5, r6
 8001714:	609d      	str	r5, [r3, #8]
 8001716:	68a5      	ldr	r5, [r4, #8]
 8001718:	ea25 0509 	bic.w	r5, r5, r9
 800171c:	60a5      	str	r5, [r4, #8]
 800171e:	2fff      	cmp	r7, #255	@ 0xff
 8001720:	bf94      	ite	ls
 8001722:	4607      	movls	r7, r0
 8001724:	9f01      	ldrhi	r7, [sp, #4]
 8001726:	ea4f 0482 	mov.w	r4, r2, lsl #2
 800172a:	683d      	ldr	r5, [r7, #0]
 800172c:	bf88      	it	hi
 800172e:	3c20      	subhi	r4, #32
 8001730:	fa08 fc04 	lsl.w	ip, r8, r4
 8001734:	ea25 050c 	bic.w	r5, r5, ip
 8001738:	fa0b f404 	lsl.w	r4, fp, r4
 800173c:	4325      	orrs	r5, r4
 800173e:	603d      	str	r5, [r7, #0]
 8001740:	68c4      	ldr	r4, [r0, #12]
 8001742:	4034      	ands	r4, r6
 8001744:	60c4      	str	r4, [r0, #12]
 8001746:	3201      	adds	r2, #1
 8001748:	e7a9      	b.n	800169e <HAL_GPIO_DeInit+0x1a>
 800174a:	2500      	movs	r5, #0
 800174c:	e7d1      	b.n	80016f2 <HAL_GPIO_DeInit+0x6e>
 800174e:	2501      	movs	r5, #1
 8001750:	e7cf      	b.n	80016f2 <HAL_GPIO_DeInit+0x6e>
 8001752:	2502      	movs	r5, #2
 8001754:	e7cd      	b.n	80016f2 <HAL_GPIO_DeInit+0x6e>
 8001756:	bf00      	nop
 8001758:	40010400 	.word	0x40010400
 800175c:	40010800 	.word	0x40010800

08001760 <HAL_GPIO_ReadPin>:
 8001760:	6883      	ldr	r3, [r0, #8]
 8001762:	4219      	tst	r1, r3
 8001764:	bf14      	ite	ne
 8001766:	2001      	movne	r0, #1
 8001768:	2000      	moveq	r0, #0
 800176a:	4770      	bx	lr

0800176c <HAL_GPIO_WritePin>:
 800176c:	b10a      	cbz	r2, 8001772 <HAL_GPIO_WritePin+0x6>
 800176e:	6101      	str	r1, [r0, #16]
 8001770:	4770      	bx	lr
 8001772:	0409      	lsls	r1, r1, #16
 8001774:	e7fb      	b.n	800176e <HAL_GPIO_WritePin+0x2>

08001776 <HAL_GPIO_TogglePin>:
 8001776:	68c3      	ldr	r3, [r0, #12]
 8001778:	ea01 0203 	and.w	r2, r1, r3
 800177c:	ea21 0103 	bic.w	r1, r1, r3
 8001780:	ea41 4102 	orr.w	r1, r1, r2, lsl #16
 8001784:	6101      	str	r1, [r0, #16]
 8001786:	4770      	bx	lr

08001788 <HAL_DMA_Init>:
 8001788:	4603      	mov	r3, r0
 800178a:	b510      	push	{r4, lr}
 800178c:	b330      	cbz	r0, 80017dc <HAL_DMA_Init+0x54>
 800178e:	6801      	ldr	r1, [r0, #0]
 8001790:	2014      	movs	r0, #20
 8001792:	4a13      	ldr	r2, [pc, #76]	@ (80017e0 <HAL_DMA_Init+0x58>)
 8001794:	440a      	add	r2, r1
 8001796:	fbb2 f2f0 	udiv	r2, r2, r0
 800179a:	0092      	lsls	r2, r2, #2
 800179c:	641a      	str	r2, [r3, #64]	@ 0x40
 800179e:	4a11      	ldr	r2, [pc, #68]	@ (80017e4 <HAL_DMA_Init+0x5c>)
 80017a0:	63da      	str	r2, [r3, #60]	@ 0x3c
 80017a2:	2202      	movs	r2, #2
 80017a4:	f883 2021 	strb.w	r2, [r3, #33]	@ 0x21
 80017a8:	e9d3 2401 	ldrd	r2, r4, [r3, #4]
 80017ac:	4322      	orrs	r2, r4
 80017ae:	68dc      	ldr	r4, [r3, #12]
 80017b0:	6808      	ldr	r0, [r1, #0]
 80017b2:	4322      	orrs	r2, r4
 80017b4:	691c      	ldr	r4, [r3, #16]
 80017b6:	f36f 100d 	bfc	r0, #4, #10
 80017ba:	4322      	orrs	r2, r4
 80017bc:	695c      	ldr	r4, [r3, #20]
 80017be:	4322      	orrs	r2, r4
 80017c0:	699c      	ldr	r4, [r3, #24]
 80017c2:	4322      	orrs	r2, r4
 80017c4:	69dc      	ldr	r4, [r3, #28]
 80017c6:	4322      	orrs	r2, r4
 80017c8:	4302      	orrs	r2, r0
 80017ca:	600a      	str	r2, [r1, #0]
 80017cc:	2000      	movs	r0, #0
 80017ce:	2201      	movs	r2, #1
 80017d0:	6398      	str	r0, [r3, #56]	@ 0x38
 80017d2:	f883 0020 	strb.w	r0, [r3, #32]
 80017d6:	f883 2021 	strb.w	r2, [r3, #33]	@ 0x21
 80017da:	bd10      	pop	{r4, pc}
 80017dc:	2001      	movs	r0, #1
 80017de:	e7fc      	b.n	80017da <HAL_DMA_Init+0x52>
 80017e0:	bffdfff8 	.word	0xbffdfff8
 80017e4:	40020000 	.word	0x40020000

080017e8 <HAL_DMA_DeInit>:
 80017e8:	b510      	push	{r4, lr}
 80017ea:	b308      	cbz	r0, 8001830 <HAL_DMA_DeInit+0x48>
 80017ec:	6801      	ldr	r1, [r0, #0]
 80017ee:	4a11      	ldr	r2, [pc, #68]	@ (8001834 <HAL_DMA_DeInit+0x4c>)
 80017f0:	680b      	ldr	r3, [r1, #0]
 80017f2:	440a      	add	r2, r1
 80017f4:	f023 0301 	bic.w	r3, r3, #1
 80017f8:	600b      	str	r3, [r1, #0]
 80017fa:	2300      	movs	r3, #0
 80017fc:	600b      	str	r3, [r1, #0]
 80017fe:	604b      	str	r3, [r1, #4]
 8001800:	608b      	str	r3, [r1, #8]
 8001802:	60cb      	str	r3, [r1, #12]
 8001804:	2114      	movs	r1, #20
 8001806:	fbb2 f2f1 	udiv	r2, r2, r1
 800180a:	2101      	movs	r1, #1
 800180c:	4c0a      	ldr	r4, [pc, #40]	@ (8001838 <HAL_DMA_DeInit+0x50>)
 800180e:	0092      	lsls	r2, r2, #2
 8001810:	6402      	str	r2, [r0, #64]	@ 0x40
 8001812:	fa01 f202 	lsl.w	r2, r1, r2
 8001816:	63c4      	str	r4, [r0, #60]	@ 0x3c
 8001818:	6062      	str	r2, [r4, #4]
 800181a:	6383      	str	r3, [r0, #56]	@ 0x38
 800181c:	e9c0 330a 	strd	r3, r3, [r0, #40]	@ 0x28
 8001820:	e9c0 330c 	strd	r3, r3, [r0, #48]	@ 0x30
 8001824:	f880 3021 	strb.w	r3, [r0, #33]	@ 0x21
 8001828:	f880 3020 	strb.w	r3, [r0, #32]
 800182c:	4618      	mov	r0, r3
 800182e:	bd10      	pop	{r4, pc}
 8001830:	2001      	movs	r0, #1
 8001832:	e7fc      	b.n	800182e <HAL_DMA_DeInit+0x46>
 8001834:	bffdfff8 	.word	0xbffdfff8
 8001838:	40020000 	.word	0x40020000

0800183c <HAL_DMA_Start_IT>:
 800183c:	b5f0      	push	{r4, r5, r6, r7, lr}
 800183e:	f890 4020 	ldrb.w	r4, [r0, #32]
 8001842:	2c01      	cmp	r4, #1
 8001844:	d034      	beq.n	80018b0 <HAL_DMA_Start_IT+0x74>
 8001846:	2401      	movs	r4, #1
 8001848:	f880 4020 	strb.w	r4, [r0, #32]
 800184c:	f890 4021 	ldrb.w	r4, [r0, #33]	@ 0x21
 8001850:	2c01      	cmp	r4, #1
 8001852:	b2e5      	uxtb	r5, r4
 8001854:	f04f 0400 	mov.w	r4, #0
 8001858:	d128      	bne.n	80018ac <HAL_DMA_Start_IT+0x70>
 800185a:	2602      	movs	r6, #2
 800185c:	f880 6021 	strb.w	r6, [r0, #33]	@ 0x21
 8001860:	6384      	str	r4, [r0, #56]	@ 0x38
 8001862:	6804      	ldr	r4, [r0, #0]
 8001864:	6826      	ldr	r6, [r4, #0]
 8001866:	f026 0601 	bic.w	r6, r6, #1
 800186a:	6026      	str	r6, [r4, #0]
 800186c:	e9d0 670f 	ldrd	r6, r7, [r0, #60]	@ 0x3c
 8001870:	40bd      	lsls	r5, r7
 8001872:	6075      	str	r5, [r6, #4]
 8001874:	6063      	str	r3, [r4, #4]
 8001876:	6843      	ldr	r3, [r0, #4]
 8001878:	2b10      	cmp	r3, #16
 800187a:	6ac3      	ldr	r3, [r0, #44]	@ 0x2c
 800187c:	bf0b      	itete	eq
 800187e:	60a2      	streq	r2, [r4, #8]
 8001880:	60a1      	strne	r1, [r4, #8]
 8001882:	60e1      	streq	r1, [r4, #12]
 8001884:	60e2      	strne	r2, [r4, #12]
 8001886:	b14b      	cbz	r3, 800189c <HAL_DMA_Start_IT+0x60>
 8001888:	6823      	ldr	r3, [r4, #0]
 800188a:	f043 030e 	orr.w	r3, r3, #14
 800188e:	2000      	movs	r0, #0
 8001890:	6023      	str	r3, [r4, #0]
 8001892:	6823      	ldr	r3, [r4, #0]
 8001894:	f043 0301 	orr.w	r3, r3, #1
 8001898:	6023      	str	r3, [r4, #0]
 800189a:	bdf0      	pop	{r4, r5, r6, r7, pc}
 800189c:	6823      	ldr	r3, [r4, #0]
 800189e:	f023 0304 	bic.w	r3, r3, #4
 80018a2:	6023      	str	r3, [r4, #0]
 80018a4:	6823      	ldr	r3, [r4, #0]
 80018a6:	f043 030a 	orr.w	r3, r3, #10
 80018aa:	e7f0      	b.n	800188e <HAL_DMA_Start_IT+0x52>
 80018ac:	f880 4020 	strb.w	r4, [r0, #32]
 80018b0:	2002      	movs	r0, #2
 80018b2:	e7f2      	b.n	800189a <HAL_DMA_Start_IT+0x5e>

080018b4 <HAL_DMA_Abort>:
 80018b4:	f890 2021 	ldrb.w	r2, [r0, #33]	@ 0x21
 80018b8:	4603      	mov	r3, r0
 80018ba:	2a02      	cmp	r2, #2
 80018bc:	d006      	beq.n	80018cc <HAL_DMA_Abort+0x18>
 80018be:	2204      	movs	r2, #4
 80018c0:	6382      	str	r2, [r0, #56]	@ 0x38
 80018c2:	2001      	movs	r0, #1
 80018c4:	2200      	movs	r2, #0
 80018c6:	f883 2020 	strb.w	r2, [r3, #32]
 80018ca:	4770      	bx	lr
 80018cc:	6802      	ldr	r2, [r0, #0]
 80018ce:	6bc0      	ldr	r0, [r0, #60]	@ 0x3c
 80018d0:	6811      	ldr	r1, [r2, #0]
 80018d2:	f021 010e 	bic.w	r1, r1, #14
 80018d6:	6011      	str	r1, [r2, #0]
 80018d8:	6811      	ldr	r1, [r2, #0]
 80018da:	f021 0101 	bic.w	r1, r1, #1
 80018de:	6011      	str	r1, [r2, #0]
 80018e0:	2101      	movs	r1, #1
 80018e2:	6c1a      	ldr	r2, [r3, #64]	@ 0x40
 80018e4:	fa01 f202 	lsl.w	r2, r1, r2
 80018e8:	6042      	str	r2, [r0, #4]
 80018ea:	2000      	movs	r0, #0
 80018ec:	f883 1021 	strb.w	r1, [r3, #33]	@ 0x21
 80018f0:	e7e8      	b.n	80018c4 <HAL_DMA_Abort+0x10>
	...

080018f4 <HAL_DMA_Abort_IT>:
 80018f4:	b508      	push	{r3, lr}
 80018f6:	f890 3021 	ldrb.w	r3, [r0, #33]	@ 0x21
 80018fa:	2b02      	cmp	r3, #2
 80018fc:	d003      	beq.n	8001906 <HAL_DMA_Abort_IT+0x12>
 80018fe:	2304      	movs	r3, #4
 8001900:	6383      	str	r3, [r0, #56]	@ 0x38
 8001902:	2001      	movs	r0, #1
 8001904:	bd08      	pop	{r3, pc}
 8001906:	6803      	ldr	r3, [r0, #0]
 8001908:	681a      	ldr	r2, [r3, #0]
 800190a:	f022 020e 	bic.w	r2, r2, #14
 800190e:	601a      	str	r2, [r3, #0]
 8001910:	681a      	ldr	r2, [r3, #0]
 8001912:	f022 0201 	bic.w	r2, r2, #1
 8001916:	601a      	str	r2, [r3, #0]
 8001918:	4a17      	ldr	r2, [pc, #92]	@ (8001978 <HAL_DMA_Abort_IT+0x84>)
 800191a:	4293      	cmp	r3, r2
 800191c:	d01f      	beq.n	800195e <HAL_DMA_Abort_IT+0x6a>
 800191e:	3214      	adds	r2, #20
 8001920:	4293      	cmp	r3, r2
 8001922:	d01e      	beq.n	8001962 <HAL_DMA_Abort_IT+0x6e>
 8001924:	3214      	adds	r2, #20
 8001926:	4293      	cmp	r3, r2
 8001928:	d01d      	beq.n	8001966 <HAL_DMA_Abort_IT+0x72>
 800192a:	3214      	adds	r2, #20
 800192c:	4293      	cmp	r3, r2
 800192e:	d01d      	beq.n	800196c <HAL_DMA_Abort_IT+0x78>
 8001930:	3214      	adds	r2, #20
 8001932:	4293      	cmp	r3, r2
 8001934:	d01d      	beq.n	8001972 <HAL_DMA_Abort_IT+0x7e>
 8001936:	3214      	adds	r2, #20
 8001938:	4293      	cmp	r3, r2
 800193a:	bf14      	ite	ne
 800193c:	f04f 7380 	movne.w	r3, #16777216	@ 0x1000000
 8001940:	f44f 1380 	moveq.w	r3, #1048576	@ 0x100000
 8001944:	4a0d      	ldr	r2, [pc, #52]	@ (800197c <HAL_DMA_Abort_IT+0x88>)
 8001946:	6053      	str	r3, [r2, #4]
 8001948:	2301      	movs	r3, #1
 800194a:	f880 3021 	strb.w	r3, [r0, #33]	@ 0x21
 800194e:	2300      	movs	r3, #0
 8001950:	f880 3020 	strb.w	r3, [r0, #32]
 8001954:	6b43      	ldr	r3, [r0, #52]	@ 0x34
 8001956:	b103      	cbz	r3, 800195a <HAL_DMA_Abort_IT+0x66>
 8001958:	4798      	blx	r3
 800195a:	2000      	movs	r0, #0
 800195c:	e7d2      	b.n	8001904 <HAL_DMA_Abort_IT+0x10>
 800195e:	2301      	movs	r3, #1
 8001960:	e7f0      	b.n	8001944 <HAL_DMA_Abort_IT+0x50>
 8001962:	2310      	movs	r3, #16
 8001964:	e7ee      	b.n	8001944 <HAL_DMA_Abort_IT+0x50>
 8001966:	f44f 7380 	mov.w	r3, #256	@ 0x100
 800196a:	e7eb      	b.n	8001944 <HAL_DMA_Abort_IT+0x50>
 800196c:	f44f 5380 	mov.w	r3, #4096	@ 0x1000
 8001970:	e7e8      	b.n	8001944 <HAL_DMA_Abort_IT+0x50>
 8001972:	f44f 3380 	mov.w	r3, #65536	@ 0x10000
 8001976:	e7e5      	b.n	8001944 <HAL_DMA_Abort_IT+0x50>
 8001978:	40020008 	.word	0x40020008
 800197c:	40020000 	.word	0x40020000

08001980 <HAL_DMA_IRQHandler>:
 8001980:	b470      	push	{r4, r5, r6}
 8001982:	2504      	movs	r5, #4
 8001984:	6bc6      	ldr	r6, [r0, #60]	@ 0x3c
 8001986:	6c02      	ldr	r2, [r0, #64]	@ 0x40
 8001988:	6834      	ldr	r4, [r6, #0]
 800198a:	6803      	ldr	r3, [r0, #0]
 800198c:	4095      	lsls	r5, r2
 800198e:	4225      	tst	r5, r4
 8001990:	6819      	ldr	r1, [r3, #0]
 8001992:	d032      	beq.n	80019fa <HAL_DMA_IRQHandler+0x7a>
 8001994:	074d      	lsls	r5, r1, #29
 8001996:	d530      	bpl.n	80019fa <HAL_DMA_IRQHandler+0x7a>
 8001998:	681a      	ldr	r2, [r3, #0]
 800199a:	0696      	lsls	r6, r2, #26
 800199c:	bf5e      	ittt	pl
 800199e:	681a      	ldrpl	r2, [r3, #0]
 80019a0:	f022 0204 	bicpl.w	r2, r2, #4
 80019a4:	601a      	strpl	r2, [r3, #0]
 80019a6:	4a3e      	ldr	r2, [pc, #248]	@ (8001aa0 <HAL_DMA_IRQHandler+0x120>)
 80019a8:	4293      	cmp	r3, r2
 80019aa:	d019      	beq.n	80019e0 <HAL_DMA_IRQHandler+0x60>
 80019ac:	3214      	adds	r2, #20
 80019ae:	4293      	cmp	r3, r2
 80019b0:	d018      	beq.n	80019e4 <HAL_DMA_IRQHandler+0x64>
 80019b2:	3214      	adds	r2, #20
 80019b4:	4293      	cmp	r3, r2
 80019b6:	d017      	beq.n	80019e8 <HAL_DMA_IRQHandler+0x68>
 80019b8:	3214      	adds	r2, #20
 80019ba:	4293      	cmp	r3, r2
 80019bc:	d017      	beq.n	80019ee <HAL_DMA_IRQHandler+0x6e>
 80019be:	3214      	adds	r2, #20
 80019c0:	4293      	cmp	r3, r2
 80019c2:	d017      	beq.n	80019f4 <HAL_DMA_IRQHandler+0x74>
 80019c4:	3214      	adds	r2, #20
 80019c6:	4293      	cmp	r3, r2
 80019c8:	bf14      	ite	ne
 80019ca:	f04f 6380 	movne.w	r3, #67108864	@ 0x4000000
 80019ce:	f44f 0380 	moveq.w	r3, #4194304	@ 0x400000
 80019d2:	4a34      	ldr	r2, [pc, #208]	@ (8001aa4 <HAL_DMA_IRQHandler+0x124>)
 80019d4:	6053      	str	r3, [r2, #4]
 80019d6:	6ac3      	ldr	r3, [r0, #44]	@ 0x2c
 80019d8:	2b00      	cmp	r3, #0
 80019da:	d05e      	beq.n	8001a9a <HAL_DMA_IRQHandler+0x11a>
 80019dc:	bc70      	pop	{r4, r5, r6}
 80019de:	4718      	bx	r3
 80019e0:	2304      	movs	r3, #4
 80019e2:	e7f6      	b.n	80019d2 <HAL_DMA_IRQHandler+0x52>
 80019e4:	2340      	movs	r3, #64	@ 0x40
 80019e6:	e7f4      	b.n	80019d2 <HAL_DMA_IRQHandler+0x52>
 80019e8:	f44f 6380 	mov.w	r3, #1024	@ 0x400
 80019ec:	e7f1      	b.n	80019d2 <HAL_DMA_IRQHandler+0x52>
 80019ee:	f44f 4380 	mov.w	r3, #16384	@ 0x4000
 80019f2:	e7ee      	b.n	80019d2 <HAL_DMA_IRQHandler+0x52>
 80019f4:	f44f 2380 	mov.w	r3, #262144	@ 0x40000
 80019f8:	e7eb      	b.n	80019d2 <HAL_DMA_IRQHandler+0x52>
 80019fa:	2502      	movs	r5, #2
 80019fc:	4095      	lsls	r5, r2
 80019fe:	4225      	tst	r5, r4
 8001a00:	d035      	beq.n	8001a6e <HAL_DMA_IRQHandler+0xee>
 8001a02:	078d      	lsls	r5, r1, #30
 8001a04:	d533      	bpl.n	8001a6e <HAL_DMA_IRQHandler+0xee>
 8001a06:	681a      	ldr	r2, [r3, #0]
 8001a08:	0694      	lsls	r4, r2, #26
 8001a0a:	d406      	bmi.n	8001a1a <HAL_DMA_IRQHandler+0x9a>
 8001a0c:	681a      	ldr	r2, [r3, #0]
 8001a0e:	f022 020a 	bic.w	r2, r2, #10
 8001a12:	601a      	str	r2, [r3, #0]
 8001a14:	2201      	movs	r2, #1
 8001a16:	f880 2021 	strb.w	r2, [r0, #33]	@ 0x21
 8001a1a:	4a21      	ldr	r2, [pc, #132]	@ (8001aa0 <HAL_DMA_IRQHandler+0x120>)
 8001a1c:	4293      	cmp	r3, r2
 8001a1e:	d019      	beq.n	8001a54 <HAL_DMA_IRQHandler+0xd4>
 8001a20:	3214      	adds	r2, #20
 8001a22:	4293      	cmp	r3, r2
 8001a24:	d018      	beq.n	8001a58 <HAL_DMA_IRQHandler+0xd8>
 8001a26:	3214      	adds	r2, #20
 8001a28:	4293      	cmp	r3, r2
 8001a2a:	d017      	beq.n	8001a5c <HAL_DMA_IRQHandler+0xdc>
 8001a2c:	3214      	adds	r2, #20
 8001a2e:	4293      	cmp	r3, r2
 8001a30:	d017      	beq.n	8001a62 <HAL_DMA_IRQHandler+0xe2>
 8001a32:	3214      	adds	r2, #20
 8001a34:	4293      	cmp	r3, r2
 8001a36:	d017      	beq.n	8001a68 <HAL_DMA_IRQHandler+0xe8>
 8001a38:	3214      	adds	r2, #20
 8001a3a:	4293      	cmp	r3, r2
 8001a3c:	bf14      	ite	ne
 8001a3e:	f04f 7300 	movne.w	r3, #33554432	@ 0x2000000
 8001a42:	f44f 1300 	moveq.w	r3, #2097152	@ 0x200000
 8001a46:	4a17      	ldr	r2, [pc, #92]	@ (8001aa4 <HAL_DMA_IRQHandler+0x124>)
 8001a48:	6053      	str	r3, [r2, #4]
 8001a4a:	2300      	movs	r3, #0
 8001a4c:	f880 3020 	strb.w	r3, [r0, #32]
 8001a50:	6a83      	ldr	r3, [r0, #40]	@ 0x28
 8001a52:	e7c1      	b.n	80019d8 <HAL_DMA_IRQHandler+0x58>
 8001a54:	2302      	movs	r3, #2
 8001a56:	e7f6      	b.n	8001a46 <HAL_DMA_IRQHandler+0xc6>
 8001a58:	2320      	movs	r3, #32
 8001a5a:	e7f4      	b.n	8001a46 <HAL_DMA_IRQHandler+0xc6>
 8001a5c:	f44f 7300 	mov.w	r3, #512	@ 0x200
 8001a60:	e7f1      	b.n	8001a46 <HAL_DMA_IRQHandler+0xc6>
 8001a62:	f44f 5300 	mov.w	r3, #8192	@ 0x2000
 8001a66:	e7ee      	b.n	8001a46 <HAL_DMA_IRQHandler+0xc6>
 8001a68:	f44f 3300 	mov.w	r3, #131072	@ 0x20000
 8001a6c:	e7eb      	b.n	8001a46 <HAL_DMA_IRQHandler+0xc6>
 8001a6e:	2508      	movs	r5, #8
 8001a70:	4095      	lsls	r5, r2
 8001a72:	4225      	tst	r5, r4
 8001a74:	d011      	beq.n	8001a9a <HAL_DMA_IRQHandler+0x11a>
 8001a76:	0709      	lsls	r1, r1, #28
 8001a78:	d50f      	bpl.n	8001a9a <HAL_DMA_IRQHandler+0x11a>
 8001a7a:	6819      	ldr	r1, [r3, #0]
 8001a7c:	f021 010e 	bic.w	r1, r1, #14
 8001a80:	6019      	str	r1, [r3, #0]
 8001a82:	2301      	movs	r3, #1
 8001a84:	fa03 f202 	lsl.w	r2, r3, r2
 8001a88:	6072      	str	r2, [r6, #4]
 8001a8a:	6383      	str	r3, [r0, #56]	@ 0x38
 8001a8c:	f880 3021 	strb.w	r3, [r0, #33]	@ 0x21
 8001a90:	2300      	movs	r3, #0
 8001a92:	f880 3020 	strb.w	r3, [r0, #32]
 8001a96:	6b03      	ldr	r3, [r0, #48]	@ 0x30
 8001a98:	e79e      	b.n	80019d8 <HAL_DMA_IRQHandler+0x58>
 8001a9a:	bc70      	pop	{r4, r5, r6}
 8001a9c:	4770      	bx	lr
 8001a9e:	bf00      	nop
 8001aa0:	40020008 	.word	0x40020008
 8001aa4:	40020000 	.word	0x40020000

08001aa8 <HAL_DMA_GetState>:
 8001aa8:	f890 0021 	ldrb.w	r0, [r0, #33]	@ 0x21
 8001aac:	4770      	bx	lr
	...

08001ab0 <HAL_NVIC_SetPriorityGrouping>:
 8001ab0:	4907      	ldr	r1, [pc, #28]	@ (8001ad0 <HAL_NVIC_SetPriorityGrouping+0x20>)
 8001ab2:	0203      	lsls	r3, r0, #8
 8001ab4:	68ca      	ldr	r2, [r1, #12]
 8001ab6:	f403 63e0 	and.w	r3, r3, #1792	@ 0x700
 8001aba:	f422 62e0 	bic.w	r2, r2, #1792	@ 0x700
 8001abe:	0412      	lsls	r2, r2, #16
 8001ac0:	0c12      	lsrs	r2, r2, #16
 8001ac2:	4313      	orrs	r3, r2
 8001ac4:	f043 63bf 	orr.w	r3, r3, #100139008	@ 0x5f80000
 8001ac8:	f443 3300 	orr.w	r3, r3, #131072	@ 0x20000
 8001acc:	60cb      	str	r3, [r1, #12]
 8001ace:	4770      	bx	lr
 8001ad0:	e000ed00 	.word	0xe000ed00

08001ad4 <HAL_NVIC_SetPriority>:
 8001ad4:	4b15      	ldr	r3, [pc, #84]	@ (8001b2c <HAL_NVIC_SetPriority+0x58>)
 8001ad6:	b530      	push	{r4, r5, lr}
 8001ad8:	68dc      	ldr	r4, [r3, #12]
 8001ada:	f3c4 2402 	ubfx	r4, r4, #8, #3
 8001ade:	f1c4 0307 	rsb	r3, r4, #7
 8001ae2:	1d25      	adds	r5, r4, #4
 8001ae4:	2b04      	cmp	r3, #4
 8001ae6:	bf28      	it	cs
 8001ae8:	2304      	movcs	r3, #4
 8001aea:	2d06      	cmp	r5, #6
 8001aec:	f04f 35ff 	mov.w	r5, #4294967295
 8001af0:	bf94      	ite	ls
 8001af2:	2400      	movls	r4, #0
 8001af4:	3c03      	subhi	r4, #3
 8001af6:	fa05 f303 	lsl.w	r3, r5, r3
 8001afa:	ea21 0303 	bic.w	r3, r1, r3
 8001afe:	40a5      	lsls	r5, r4
 8001b00:	ea22 0205 	bic.w	r2, r2, r5
 8001b04:	40a3      	lsls	r3, r4
 8001b06:	2800      	cmp	r0, #0
 8001b08:	ea43 0302 	orr.w	r3, r3, r2
 8001b0c:	bfac      	ite	ge
 8001b0e:	f100 4060 	addge.w	r0, r0, #3758096384	@ 0xe0000000
 8001b12:	4a07      	ldrlt	r2, [pc, #28]	@ (8001b30 <HAL_NVIC_SetPriority+0x5c>)
 8001b14:	ea4f 1303 	mov.w	r3, r3, lsl #4
 8001b18:	b2db      	uxtb	r3, r3
 8001b1a:	bfab      	itete	ge
 8001b1c:	f500 4061 	addge.w	r0, r0, #57600	@ 0xe100
 8001b20:	f000 000f 	andlt.w	r0, r0, #15
 8001b24:	f880 3300 	strbge.w	r3, [r0, #768]	@ 0x300
 8001b28:	5413      	strblt	r3, [r2, r0]
 8001b2a:	bd30      	pop	{r4, r5, pc}
 8001b2c:	e000ed00 	.word	0xe000ed00
 8001b30:	e000ed14 	.word	0xe000ed14

08001b34 <HAL_NVIC_EnableIRQ>:
 8001b34:	2800      	cmp	r0, #0
 8001b36:	db07      	blt.n	8001b48 <HAL_NVIC_EnableIRQ+0x14>
 8001b38:	2301      	movs	r3, #1
 8001b3a:	0941      	lsrs	r1, r0, #5
 8001b3c:	4a03      	ldr	r2, [pc, #12]	@ (8001b4c <HAL_NVIC_EnableIRQ+0x18>)
 8001b3e:	f000 001f 	and.w	r0, r0, #31
 8001b42:	4083      	lsls	r3, r0
 8001b44:	f842 3021 	str.w	r3, [r2, r1, lsl #2]
 8001b48:	4770      	bx	lr
 8001b4a:	bf00      	nop
 8001b4c:	e000e100 	.word	0xe000e100

08001b50 <HAL_NVIC_DisableIRQ>:
 8001b50:	2800      	cmp	r0, #0
 8001b52:	db0c      	blt.n	8001b6e <HAL_NVIC_DisableIRQ+0x1e>
 8001b54:	2201      	movs	r2, #1
 8001b56:	4906      	ldr	r1, [pc, #24]	@ (8001b70 <HAL_NVIC_DisableIRQ+0x20>)
 8001b58:	0943      	lsrs	r3, r0, #5
 8001b5a:	f000 001f 	and.w	r0, r0, #31
 8001b5e:	4082      	lsls	r2, r0
 8001b60:	3320      	adds	r3, #32
 8001b62:	f841 2023 	str.w	r2, [r1, r3, lsl #2]
 8001b66:	f3bf 8f4f 	dsb	sy
 8001b6a:	f3bf 8f6f 	isb	sy
 8001b6e:	4770      	bx	lr
 8001b70:	e000e100 	.word	0xe000e100

08001b74 <FLASH_SetErrorCode>:
 8001b74:	4a11      	ldr	r2, [pc, #68]	@ (8001bbc <FLASH_SetErrorCode+0x48>)
 8001b76:	68d3      	ldr	r3, [r2, #12]
 8001b78:	f013 0310 	ands.w	r3, r3, #16
 8001b7c:	d005      	beq.n	8001b8a <FLASH_SetErrorCode+0x16>
 8001b7e:	4910      	ldr	r1, [pc, #64]	@ (8001bc0 <FLASH_SetErrorCode+0x4c>)
 8001b80:	69cb      	ldr	r3, [r1, #28]
 8001b82:	f043 0302 	orr.w	r3, r3, #2
 8001b86:	61cb      	str	r3, [r1, #28]
 8001b88:	2310      	movs	r3, #16
 8001b8a:	68d2      	ldr	r2, [r2, #12]
 8001b8c:	0750      	lsls	r0, r2, #29
 8001b8e:	d506      	bpl.n	8001b9e <FLASH_SetErrorCode+0x2a>
 8001b90:	490b      	ldr	r1, [pc, #44]	@ (8001bc0 <FLASH_SetErrorCode+0x4c>)
 8001b92:	f043 0304 	orr.w	r3, r3, #4
 8001b96:	69ca      	ldr	r2, [r1, #28]
 8001b98:	f042 0201 	orr.w	r2, r2, #1
 8001b9c:	61ca      	str	r2, [r1, #28]
 8001b9e:	4a07      	ldr	r2, [pc, #28]	@ (8001bbc <FLASH_SetErrorCode+0x48>)
 8001ba0:	69d1      	ldr	r1, [r2, #28]
 8001ba2:	07c9      	lsls	r1, r1, #31
 8001ba4:	d508      	bpl.n	8001bb8 <FLASH_SetErrorCode+0x44>
 8001ba6:	4806      	ldr	r0, [pc, #24]	@ (8001bc0 <FLASH_SetErrorCode+0x4c>)
 8001ba8:	69c1      	ldr	r1, [r0, #28]
 8001baa:	f041 0104 	orr.w	r1, r1, #4
 8001bae:	61c1      	str	r1, [r0, #28]
 8001bb0:	69d1      	ldr	r1, [r2, #28]
 8001bb2:	f021 0101 	bic.w	r1, r1, #1
 8001bb6:	61d1      	str	r1, [r2, #28]
 8001bb8:	60d3      	str	r3, [r2, #12]
 8001bba:	4770      	bx	lr
 8001bbc:	40022000 	.word	0x40022000
 8001bc0:	200000c0 	.word	0x200000c0

08001bc4 <HAL_FLASH_Unlock>:
 8001bc4:	4b06      	ldr	r3, [pc, #24]	@ (8001be0 <HAL_FLASH_Unlock+0x1c>)
 8001bc6:	6918      	ldr	r0, [r3, #16]
 8001bc8:	f010 0080 	ands.w	r0, r0, #128	@ 0x80
 8001bcc:	d007      	beq.n	8001bde <HAL_FLASH_Unlock+0x1a>
 8001bce:	4a05      	ldr	r2, [pc, #20]	@ (8001be4 <HAL_FLASH_Unlock+0x20>)
 8001bd0:	605a      	str	r2, [r3, #4]
 8001bd2:	f102 3288 	add.w	r2, r2, #2290649224	@ 0x88888888
 8001bd6:	605a      	str	r2, [r3, #4]
 8001bd8:	6918      	ldr	r0, [r3, #16]
 8001bda:	f3c0 10c0 	ubfx	r0, r0, #7, #1
 8001bde:	4770      	bx	lr
 8001be0:	40022000 	.word	0x40022000
 8001be4:	45670123 	.word	0x45670123

08001be8 <HAL_FLASH_Lock>:
 8001be8:	4a03      	ldr	r2, [pc, #12]	@ (8001bf8 <HAL_FLASH_Lock+0x10>)
 8001bea:	2000      	movs	r0, #0
 8001bec:	6913      	ldr	r3, [r2, #16]
 8001bee:	f043 0380 	orr.w	r3, r3, #128	@ 0x80
 8001bf2:	6113      	str	r3, [r2, #16]
 8001bf4:	4770      	bx	lr
 8001bf6:	bf00      	nop
 8001bf8:	40022000 	.word	0x40022000

08001bfc <FLASH_WaitForLastOperation>:
 8001bfc:	b570      	push	{r4, r5, r6, lr}
 8001bfe:	4605      	mov	r5, r0
 8001c00:	f7ff f874 	bl	8000cec <HAL_GetTick>
 8001c04:	4606      	mov	r6, r0
 8001c06:	4c11      	ldr	r4, [pc, #68]	@ (8001c4c <FLASH_WaitForLastOperation+0x50>)
 8001c08:	68e3      	ldr	r3, [r4, #12]
 8001c0a:	07d8      	lsls	r0, r3, #31
 8001c0c:	d412      	bmi.n	8001c34 <FLASH_WaitForLastOperation+0x38>
 8001c0e:	68e3      	ldr	r3, [r4, #12]
 8001c10:	0699      	lsls	r1, r3, #26
 8001c12:	bf44      	itt	mi
 8001c14:	2320      	movmi	r3, #32
 8001c16:	60e3      	strmi	r3, [r4, #12]
 8001c18:	68e3      	ldr	r3, [r4, #12]
 8001c1a:	06da      	lsls	r2, r3, #27
 8001c1c:	d406      	bmi.n	8001c2c <FLASH_WaitForLastOperation+0x30>
 8001c1e:	69e3      	ldr	r3, [r4, #28]
 8001c20:	07db      	lsls	r3, r3, #31
 8001c22:	d403      	bmi.n	8001c2c <FLASH_WaitForLastOperation+0x30>
 8001c24:	68e0      	ldr	r0, [r4, #12]
 8001c26:	f010 0004 	ands.w	r0, r0, #4
 8001c2a:	d007      	beq.n	8001c3c <FLASH_WaitForLastOperation+0x40>
 8001c2c:	f7ff ffa2 	bl	8001b74 <FLASH_SetErrorCode>
 8001c30:	2001      	movs	r0, #1
 8001c32:	e003      	b.n	8001c3c <FLASH_WaitForLastOperation+0x40>
 8001c34:	1c6b      	adds	r3, r5, #1
 8001c36:	d0e7      	beq.n	8001c08 <FLASH_WaitForLastOperation+0xc>
 8001c38:	b90d      	cbnz	r5, 8001c3e <FLASH_WaitForLastOperation+0x42>
 8001c3a:	2003      	movs	r0, #3
 8001c3c:	bd70      	pop	{r4, r5, r6, pc}
 8001c3e:	f7ff f855 	bl	8000cec <HAL_GetTick>
 8001c42:	1b80      	subs	r0, r0, r6
 8001c44:	42a8      	cmp	r0, r5
 8001c46:	d9df      	bls.n	8001c08 <FLASH_WaitForLastOperation+0xc>
 8001c48:	e7f7      	b.n	8001c3a <FLASH_WaitForLastOperation+0x3e>
 8001c4a:	bf00      	nop
 8001c4c:	40022000 	.word	0x40022000

08001c50 <HAL_FLASH_Program>:
 8001c50:	e92d 4ff8 	stmdb	sp!, {r3, r4, r5, r6, r7, r8, r9, sl, fp, lr}
 8001c54:	f8df a094 	ldr.w	sl, [pc, #148]	@ 8001cec <HAL_FLASH_Program+0x9c>
 8001c58:	461f      	mov	r7, r3
 8001c5a:	f89a 3018 	ldrb.w	r3, [sl, #24]
 8001c5e:	4605      	mov	r5, r0
 8001c60:	2b01      	cmp	r3, #1
 8001c62:	4688      	mov	r8, r1
 8001c64:	4691      	mov	r9, r2
 8001c66:	d03f      	beq.n	8001ce8 <HAL_FLASH_Program+0x98>
 8001c68:	2301      	movs	r3, #1
 8001c6a:	f24c 3050 	movw	r0, #50000	@ 0xc350
 8001c6e:	f88a 3018 	strb.w	r3, [sl, #24]
 8001c72:	f7ff ffc3 	bl	8001bfc <FLASH_WaitForLastOperation>
 8001c76:	bb90      	cbnz	r0, 8001cde <HAL_FLASH_Program+0x8e>
 8001c78:	2d01      	cmp	r5, #1
 8001c7a:	d003      	beq.n	8001c84 <HAL_FLASH_Program+0x34>
 8001c7c:	2d02      	cmp	r5, #2
 8001c7e:	bf14      	ite	ne
 8001c80:	2504      	movne	r5, #4
 8001c82:	2502      	moveq	r5, #2
 8001c84:	2600      	movs	r6, #0
 8001c86:	4633      	mov	r3, r6
 8001c88:	f8df b064 	ldr.w	fp, [pc, #100]	@ 8001cf0 <HAL_FLASH_Program+0xa0>
 8001c8c:	0134      	lsls	r4, r6, #4
 8001c8e:	f1c4 0120 	rsb	r1, r4, #32
 8001c92:	f1a4 0220 	sub.w	r2, r4, #32
 8001c96:	fa07 f101 	lsl.w	r1, r7, r1
 8001c9a:	fa29 f404 	lsr.w	r4, r9, r4
 8001c9e:	f8ca 301c 	str.w	r3, [sl, #28]
 8001ca2:	430c      	orrs	r4, r1
 8001ca4:	fa27 f202 	lsr.w	r2, r7, r2
 8001ca8:	4314      	orrs	r4, r2
 8001caa:	f8db 2010 	ldr.w	r2, [fp, #16]
 8001cae:	b2a4      	uxth	r4, r4
 8001cb0:	f042 0201 	orr.w	r2, r2, #1
 8001cb4:	f8cb 2010 	str.w	r2, [fp, #16]
 8001cb8:	f24c 3050 	movw	r0, #50000	@ 0xc350
 8001cbc:	f828 4016 	strh.w	r4, [r8, r6, lsl #1]
 8001cc0:	f7ff ff9c 	bl	8001bfc <FLASH_WaitForLastOperation>
 8001cc4:	f8db 2010 	ldr.w	r2, [fp, #16]
 8001cc8:	f022 0201 	bic.w	r2, r2, #1
 8001ccc:	f8cb 2010 	str.w	r2, [fp, #16]
 8001cd0:	b928      	cbnz	r0, 8001cde <HAL_FLASH_Program+0x8e>
 8001cd2:	3601      	adds	r6, #1
 8001cd4:	b2f2      	uxtb	r2, r6
 8001cd6:	4295      	cmp	r5, r2
 8001cd8:	f04f 0300 	mov.w	r3, #0
 8001cdc:	d8d6      	bhi.n	8001c8c <HAL_FLASH_Program+0x3c>
 8001cde:	2300      	movs	r3, #0
 8001ce0:	f88a 3018 	strb.w	r3, [sl, #24]
 8001ce4:	e8bd 8ff8 	ldmia.w	sp!, {r3, r4, r5, r6, r7, r8, r9, sl, fp, pc}
 8001ce8:	2002      	movs	r0, #2
 8001cea:	e7fb      	b.n	8001ce4 <HAL_FLASH_Program+0x94>
 8001cec:	200000c0 	.word	0x200000c0
 8001cf0:	40022000 	.word	0x40022000

08001cf4 <FLASH_PageErase>:
 8001cf4:	2200      	movs	r2, #0
 8001cf6:	4b06      	ldr	r3, [pc, #24]	@ (8001d10 <FLASH_PageErase+0x1c>)
 8001cf8:	61da      	str	r2, [r3, #28]
 8001cfa:	4b06      	ldr	r3, [pc, #24]	@ (8001d14 <FLASH_PageErase+0x20>)
 8001cfc:	691a      	ldr	r2, [r3, #16]
 8001cfe:	f042 0202 	orr.w	r2, r2, #2
 8001d02:	611a      	str	r2, [r3, #16]
 8001d04:	6158      	str	r0, [r3, #20]
 8001d06:	691a      	ldr	r2, [r3, #16]
 8001d08:	f042 0240 	orr.w	r2, r2, #64	@ 0x40
 8001d0c:	611a      	str	r2, [r3, #16]
 8001d0e:	4770      	bx	lr
 8001d10:	200000c0 	.word	0x200000c0
 8001d14:	40022000 	.word	0x40022000

08001d18 <HAL_FLASHEx_Erase>:
 8001d18:	e92d 41f0 	stmdb	sp!, {r4, r5, r6, r7, r8, lr}
 8001d1c:	4f26      	ldr	r7, [pc, #152]	@ (8001db8 <HAL_FLASHEx_Erase+0xa0>)
 8001d1e:	4605      	mov	r5, r0
 8001d20:	7e3b      	ldrb	r3, [r7, #24]
 8001d22:	4688      	mov	r8, r1
 8001d24:	2b01      	cmp	r3, #1
 8001d26:	d044      	beq.n	8001db2 <HAL_FLASHEx_Erase+0x9a>
 8001d28:	2401      	movs	r4, #1
 8001d2a:	763c      	strb	r4, [r7, #24]
 8001d2c:	6803      	ldr	r3, [r0, #0]
 8001d2e:	f24c 3050 	movw	r0, #50000	@ 0xc350
 8001d32:	2b02      	cmp	r3, #2
 8001d34:	d11a      	bne.n	8001d6c <HAL_FLASHEx_Erase+0x54>
 8001d36:	f7ff ff61 	bl	8001bfc <FLASH_WaitForLastOperation>
 8001d3a:	b120      	cbz	r0, 8001d46 <HAL_FLASHEx_Erase+0x2e>
 8001d3c:	2001      	movs	r0, #1
 8001d3e:	2300      	movs	r3, #0
 8001d40:	763b      	strb	r3, [r7, #24]
 8001d42:	e8bd 81f0 	ldmia.w	sp!, {r4, r5, r6, r7, r8, pc}
 8001d46:	4c1d      	ldr	r4, [pc, #116]	@ (8001dbc <HAL_FLASHEx_Erase+0xa4>)
 8001d48:	61f8      	str	r0, [r7, #28]
 8001d4a:	6923      	ldr	r3, [r4, #16]
 8001d4c:	f24c 3050 	movw	r0, #50000	@ 0xc350
 8001d50:	f043 0304 	orr.w	r3, r3, #4
 8001d54:	6123      	str	r3, [r4, #16]
 8001d56:	6923      	ldr	r3, [r4, #16]
 8001d58:	f043 0340 	orr.w	r3, r3, #64	@ 0x40
 8001d5c:	6123      	str	r3, [r4, #16]
 8001d5e:	f7ff ff4d 	bl	8001bfc <FLASH_WaitForLastOperation>
 8001d62:	6923      	ldr	r3, [r4, #16]
 8001d64:	f023 0304 	bic.w	r3, r3, #4
 8001d68:	6123      	str	r3, [r4, #16]
 8001d6a:	e7e8      	b.n	8001d3e <HAL_FLASHEx_Erase+0x26>
 8001d6c:	f7ff ff46 	bl	8001bfc <FLASH_WaitForLastOperation>
 8001d70:	2800      	cmp	r0, #0
 8001d72:	d1e3      	bne.n	8001d3c <HAL_FLASHEx_Erase+0x24>
 8001d74:	f04f 33ff 	mov.w	r3, #4294967295
 8001d78:	f8c8 3000 	str.w	r3, [r8]
 8001d7c:	4620      	mov	r0, r4
 8001d7e:	68ae      	ldr	r6, [r5, #8]
 8001d80:	4c0e      	ldr	r4, [pc, #56]	@ (8001dbc <HAL_FLASHEx_Erase+0xa4>)
 8001d82:	e9d5 3202 	ldrd	r3, r2, [r5, #8]
 8001d86:	eb03 2382 	add.w	r3, r3, r2, lsl #10
 8001d8a:	42b3      	cmp	r3, r6
 8001d8c:	d9d7      	bls.n	8001d3e <HAL_FLASHEx_Erase+0x26>
 8001d8e:	4630      	mov	r0, r6
 8001d90:	f7ff ffb0 	bl	8001cf4 <FLASH_PageErase>
 8001d94:	f24c 3050 	movw	r0, #50000	@ 0xc350
 8001d98:	f7ff ff30 	bl	8001bfc <FLASH_WaitForLastOperation>
 8001d9c:	6923      	ldr	r3, [r4, #16]
 8001d9e:	f023 0302 	bic.w	r3, r3, #2
 8001da2:	6123      	str	r3, [r4, #16]
 8001da4:	b110      	cbz	r0, 8001dac <HAL_FLASHEx_Erase+0x94>
 8001da6:	f8c8 6000 	str.w	r6, [r8]
 8001daa:	e7c8      	b.n	8001d3e <HAL_FLASHEx_Erase+0x26>
 8001dac:	f506 6680 	add.w	r6, r6, #1024	@ 0x400
 8001db0:	e7e7      	b.n	8001d82 <HAL_FLASHEx_Erase+0x6a>
 8001db2:	2002      	movs	r0, #2
 8001db4:	e7c5      	b.n	8001d42 <HAL_FLASHEx_Erase+0x2a>
 8001db6:	bf00      	nop
 8001db8:	200000c0 	.word	0x200000c0
 8001dbc:	40022000 	.word	0x40022000

08001dc0 <SPI_WaitFlagStateUntilTimeout>:
 8001dc0:	e92d 47f3 	stmdb	sp!, {r0, r1, r4, r5, r6, r7, r8, r9, sl, lr}
 8001dc4:	461f      	mov	r7, r3
 8001dc6:	4689      	mov	r9, r1
 8001dc8:	4690      	mov	r8, r2
 8001dca:	4604      	mov	r4, r0
 8001dcc:	f7fe ff8e 	bl	8000cec <HAL_GetTick>
 8001dd0:	9d0a      	ldr	r5, [sp, #40]	@ 0x28
 8001dd2:	443d      	add	r5, r7
 8001dd4:	1a2d      	subs	r5, r5, r0
 8001dd6:	f7fe ff89 	bl	8000cec <HAL_GetTick>
 8001dda:	4682      	mov	sl, r0
 8001ddc:	4b25      	ldr	r3, [pc, #148]	@ (8001e74 <SPI_WaitFlagStateUntilTimeout+0xb4>)
 8001dde:	681e      	ldr	r6, [r3, #0]
 8001de0:	f3c6 36cb 	ubfx	r6, r6, #15, #12
 8001de4:	436e      	muls	r6, r5
 8001de6:	9601      	str	r6, [sp, #4]
 8001de8:	6822      	ldr	r2, [r4, #0]
 8001dea:	6893      	ldr	r3, [r2, #8]
 8001dec:	ea39 0303 	bics.w	r3, r9, r3
 8001df0:	bf0c      	ite	eq
 8001df2:	2301      	moveq	r3, #1
 8001df4:	2300      	movne	r3, #0
 8001df6:	4543      	cmp	r3, r8
 8001df8:	d101      	bne.n	8001dfe <SPI_WaitFlagStateUntilTimeout+0x3e>
 8001dfa:	2000      	movs	r0, #0
 8001dfc:	e02e      	b.n	8001e5c <SPI_WaitFlagStateUntilTimeout+0x9c>
 8001dfe:	1c7b      	adds	r3, r7, #1
 8001e00:	d0f3      	beq.n	8001dea <SPI_WaitFlagStateUntilTimeout+0x2a>
 8001e02:	f7fe ff73 	bl	8000cec <HAL_GetTick>
 8001e06:	eba0 000a 	sub.w	r0, r0, sl
 8001e0a:	42a8      	cmp	r0, r5
 8001e0c:	d329      	bcc.n	8001e62 <SPI_WaitFlagStateUntilTimeout+0xa2>
 8001e0e:	6823      	ldr	r3, [r4, #0]
 8001e10:	685a      	ldr	r2, [r3, #4]
 8001e12:	f022 02e0 	bic.w	r2, r2, #224	@ 0xe0
 8001e16:	605a      	str	r2, [r3, #4]
 8001e18:	6862      	ldr	r2, [r4, #4]
 8001e1a:	f5b2 7f82 	cmp.w	r2, #260	@ 0x104
 8001e1e:	d10a      	bne.n	8001e36 <SPI_WaitFlagStateUntilTimeout+0x76>
 8001e20:	68a2      	ldr	r2, [r4, #8]
 8001e22:	f5b2 4f00 	cmp.w	r2, #32768	@ 0x8000
 8001e26:	d002      	beq.n	8001e2e <SPI_WaitFlagStateUntilTimeout+0x6e>
 8001e28:	f5b2 6f80 	cmp.w	r2, #1024	@ 0x400
 8001e2c:	d103      	bne.n	8001e36 <SPI_WaitFlagStateUntilTimeout+0x76>
 8001e2e:	681a      	ldr	r2, [r3, #0]
 8001e30:	f022 0240 	bic.w	r2, r2, #64	@ 0x40
 8001e34:	601a      	str	r2, [r3, #0]
 8001e36:	6aa2      	ldr	r2, [r4, #40]	@ 0x28
 8001e38:	f5b2 5f00 	cmp.w	r2, #8192	@ 0x2000
 8001e3c:	d107      	bne.n	8001e4e <SPI_WaitFlagStateUntilTimeout+0x8e>
 8001e3e:	681a      	ldr	r2, [r3, #0]
 8001e40:	f422 5200 	bic.w	r2, r2, #8192	@ 0x2000
 8001e44:	601a      	str	r2, [r3, #0]
 8001e46:	681a      	ldr	r2, [r3, #0]
 8001e48:	f442 5200 	orr.w	r2, r2, #8192	@ 0x2000
 8001e4c:	601a      	str	r2, [r3, #0]
 8001e4e:	2301      	movs	r3, #1
 8001e50:	f884 3051 	strb.w	r3, [r4, #81]	@ 0x51
 8001e54:	2300      	movs	r3, #0
 8001e56:	2003      	movs	r0, #3
 8001e58:	f884 3050 	strb.w	r3, [r4, #80]	@ 0x50
 8001e5c:	b002      	add	sp, #8
 8001e5e:	e8bd 87f0 	ldmia.w	sp!, {r4, r5, r6, r7, r8, r9, sl, pc}
 8001e62:	9a01      	ldr	r2, [sp, #4]
 8001e64:	9b01      	ldr	r3, [sp, #4]
 8001e66:	2a00      	cmp	r2, #0
 8001e68:	f103 33ff 	add.w	r3, r3, #4294967295
 8001e6c:	bf08      	it	eq
 8001e6e:	4615      	moveq	r5, r2
 8001e70:	9301      	str	r3, [sp, #4]
 8001e72:	e7b9      	b.n	8001de8 <SPI_WaitFlagStateUntilTimeout+0x28>
 8001e74:	20000000 	.word	0x20000000

08001e78 <SPI_EndRxTxTransaction>:
 8001e78:	b573      	push	{r0, r1, r4, r5, r6, lr}
 8001e7a:	460b      	mov	r3, r1
 8001e7c:	9200      	str	r2, [sp, #0]
 8001e7e:	460d      	mov	r5, r1
 8001e80:	4616      	mov	r6, r2
 8001e82:	2102      	movs	r1, #2
 8001e84:	2201      	movs	r2, #1
 8001e86:	4604      	mov	r4, r0
 8001e88:	f7ff ff9a 	bl	8001dc0 <SPI_WaitFlagStateUntilTimeout>
 8001e8c:	4602      	mov	r2, r0
 8001e8e:	b128      	cbz	r0, 8001e9c <SPI_EndRxTxTransaction+0x24>
 8001e90:	6d63      	ldr	r3, [r4, #84]	@ 0x54
 8001e92:	2003      	movs	r0, #3
 8001e94:	f043 0320 	orr.w	r3, r3, #32
 8001e98:	6563      	str	r3, [r4, #84]	@ 0x54
 8001e9a:	e007      	b.n	8001eac <SPI_EndRxTxTransaction+0x34>
 8001e9c:	462b      	mov	r3, r5
 8001e9e:	2180      	movs	r1, #128	@ 0x80
 8001ea0:	4620      	mov	r0, r4
 8001ea2:	9600      	str	r6, [sp, #0]
 8001ea4:	f7ff ff8c 	bl	8001dc0 <SPI_WaitFlagStateUntilTimeout>
 8001ea8:	2800      	cmp	r0, #0
 8001eaa:	d1f1      	bne.n	8001e90 <SPI_EndRxTxTransaction+0x18>
 8001eac:	b002      	add	sp, #8
 8001eae:	bd70      	pop	{r4, r5, r6, pc}

08001eb0 <HAL_SPI_Init>:
 8001eb0:	b510      	push	{r4, lr}
 8001eb2:	4604      	mov	r4, r0
 8001eb4:	2800      	cmp	r0, #0
 8001eb6:	d051      	beq.n	8001f5c <HAL_SPI_Init+0xac>
 8001eb8:	6a43      	ldr	r3, [r0, #36]	@ 0x24
 8001eba:	2b00      	cmp	r3, #0
 8001ebc:	d14a      	bne.n	8001f54 <HAL_SPI_Init+0xa4>
 8001ebe:	6842      	ldr	r2, [r0, #4]
 8001ec0:	f5b2 7f82 	cmp.w	r2, #260	@ 0x104
 8001ec4:	d000      	beq.n	8001ec8 <HAL_SPI_Init+0x18>
 8001ec6:	61c3      	str	r3, [r0, #28]
 8001ec8:	2300      	movs	r3, #0
 8001eca:	62a3      	str	r3, [r4, #40]	@ 0x28
 8001ecc:	f894 3051 	ldrb.w	r3, [r4, #81]	@ 0x51
 8001ed0:	f003 02ff 	and.w	r2, r3, #255	@ 0xff
 8001ed4:	b923      	cbnz	r3, 8001ee0 <HAL_SPI_Init+0x30>
 8001ed6:	4620      	mov	r0, r4
 8001ed8:	f884 2050 	strb.w	r2, [r4, #80]	@ 0x50
 8001edc:	f001 fbde 	bl	800369c <HAL_SPI_MspInit>
 8001ee0:	2302      	movs	r3, #2
 8001ee2:	6822      	ldr	r2, [r4, #0]
 8001ee4:	f884 3051 	strb.w	r3, [r4, #81]	@ 0x51
 8001ee8:	6813      	ldr	r3, [r2, #0]
 8001eea:	68a0      	ldr	r0, [r4, #8]
 8001eec:	f023 0340 	bic.w	r3, r3, #64	@ 0x40
 8001ef0:	6013      	str	r3, [r2, #0]
 8001ef2:	6863      	ldr	r3, [r4, #4]
 8001ef4:	f400 4004 	and.w	r0, r0, #33792	@ 0x8400
 8001ef8:	f403 7382 	and.w	r3, r3, #260	@ 0x104
 8001efc:	4303      	orrs	r3, r0
 8001efe:	68e0      	ldr	r0, [r4, #12]
 8001f00:	69a1      	ldr	r1, [r4, #24]
 8001f02:	f400 6000 	and.w	r0, r0, #2048	@ 0x800
 8001f06:	4303      	orrs	r3, r0
 8001f08:	6920      	ldr	r0, [r4, #16]
 8001f0a:	f000 0002 	and.w	r0, r0, #2
 8001f0e:	4303      	orrs	r3, r0
 8001f10:	6960      	ldr	r0, [r4, #20]
 8001f12:	f000 0001 	and.w	r0, r0, #1
 8001f16:	4303      	orrs	r3, r0
 8001f18:	f401 7000 	and.w	r0, r1, #512	@ 0x200
 8001f1c:	4303      	orrs	r3, r0
 8001f1e:	69e0      	ldr	r0, [r4, #28]
 8001f20:	0c09      	lsrs	r1, r1, #16
 8001f22:	f000 0038 	and.w	r0, r0, #56	@ 0x38
 8001f26:	4303      	orrs	r3, r0
 8001f28:	6a20      	ldr	r0, [r4, #32]
 8001f2a:	f001 0104 	and.w	r1, r1, #4
 8001f2e:	f000 0080 	and.w	r0, r0, #128	@ 0x80
 8001f32:	4303      	orrs	r3, r0
 8001f34:	6aa0      	ldr	r0, [r4, #40]	@ 0x28
 8001f36:	f400 5000 	and.w	r0, r0, #8192	@ 0x2000
 8001f3a:	4303      	orrs	r3, r0
 8001f3c:	6013      	str	r3, [r2, #0]
 8001f3e:	6051      	str	r1, [r2, #4]
 8001f40:	69d3      	ldr	r3, [r2, #28]
 8001f42:	2000      	movs	r0, #0
 8001f44:	f423 6300 	bic.w	r3, r3, #2048	@ 0x800
 8001f48:	61d3      	str	r3, [r2, #28]
 8001f4a:	2301      	movs	r3, #1
 8001f4c:	6560      	str	r0, [r4, #84]	@ 0x54
 8001f4e:	f884 3051 	strb.w	r3, [r4, #81]	@ 0x51
 8001f52:	bd10      	pop	{r4, pc}
 8001f54:	2300      	movs	r3, #0
 8001f56:	e9c0 3304 	strd	r3, r3, [r0, #16]
 8001f5a:	e7b5      	b.n	8001ec8 <HAL_SPI_Init+0x18>
 8001f5c:	2001      	movs	r0, #1
 8001f5e:	e7f8      	b.n	8001f52 <HAL_SPI_Init+0xa2>

08001f60 <HAL_SPI_DeInit>:
 8001f60:	b510      	push	{r4, lr}
 8001f62:	4604      	mov	r4, r0
 8001f64:	b180      	cbz	r0, 8001f88 <HAL_SPI_DeInit+0x28>
 8001f66:	2302      	movs	r3, #2
 8001f68:	6802      	ldr	r2, [r0, #0]
 8001f6a:	f880 3051 	strb.w	r3, [r0, #81]	@ 0x51
 8001f6e:	6813      	ldr	r3, [r2, #0]
 8001f70:	f023 0340 	bic.w	r3, r3, #64	@ 0x40
 8001f74:	6013      	str	r3, [r2, #0]
 8001f76:	f001 fbe3 	bl	8003740 <HAL_SPI_MspDeInit>
 8001f7a:	2000      	movs	r0, #0
 8001f7c:	6560      	str	r0, [r4, #84]	@ 0x54
 8001f7e:	f884 0050 	strb.w	r0, [r4, #80]	@ 0x50
 8001f82:	f884 0051 	strb.w	r0, [r4, #81]	@ 0x51
 8001f86:	bd10      	pop	{r4, pc}
 8001f88:	2001      	movs	r0, #1
 8001f8a:	e7fc      	b.n	8001f86 <HAL_SPI_DeInit+0x26>

08001f8c <HAL_SPI_Transmit>:
 8001f8c:	e92d 43f7 	stmdb	sp!, {r0, r1, r2, r4, r5, r6, r7, r8, r9, lr}
 8001f90:	4604      	mov	r4, r0
 8001f92:	461f      	mov	r7, r3
 8001f94:	460d      	mov	r5, r1
 8001f96:	4690      	mov	r8, r2
 8001f98:	f7fe fea8 	bl	8000cec <HAL_GetTick>
 8001f9c:	f894 3051 	ldrb.w	r3, [r4, #81]	@ 0x51
 8001fa0:	4681      	mov	r9, r0
 8001fa2:	2b01      	cmp	r3, #1
 8001fa4:	b2d8      	uxtb	r0, r3
 8001fa6:	f040 809f 	bne.w	80020e8 <HAL_SPI_Transmit+0x15c>
 8001faa:	2d00      	cmp	r5, #0
 8001fac:	d074      	beq.n	8002098 <HAL_SPI_Transmit+0x10c>
 8001fae:	f1b8 0f00 	cmp.w	r8, #0
 8001fb2:	d071      	beq.n	8002098 <HAL_SPI_Transmit+0x10c>
 8001fb4:	f894 3050 	ldrb.w	r3, [r4, #80]	@ 0x50
 8001fb8:	2b01      	cmp	r3, #1
 8001fba:	f000 8095 	beq.w	80020e8 <HAL_SPI_Transmit+0x15c>
 8001fbe:	2303      	movs	r3, #3
 8001fc0:	f884 3051 	strb.w	r3, [r4, #81]	@ 0x51
 8001fc4:	2300      	movs	r3, #0
 8001fc6:	6563      	str	r3, [r4, #84]	@ 0x54
 8001fc8:	e9c4 3310 	strd	r3, r3, [r4, #64]	@ 0x40
 8001fcc:	f8a4 8036 	strh.w	r8, [r4, #54]	@ 0x36
 8001fd0:	63a3      	str	r3, [r4, #56]	@ 0x38
 8001fd2:	87a3      	strh	r3, [r4, #60]	@ 0x3c
 8001fd4:	87e3      	strh	r3, [r4, #62]	@ 0x3e
 8001fd6:	68a3      	ldr	r3, [r4, #8]
 8001fd8:	6826      	ldr	r6, [r4, #0]
 8001fda:	f5b3 4f00 	cmp.w	r3, #32768	@ 0x8000
 8001fde:	f884 0050 	strb.w	r0, [r4, #80]	@ 0x50
 8001fe2:	6325      	str	r5, [r4, #48]	@ 0x30
 8001fe4:	f8a4 8034 	strh.w	r8, [r4, #52]	@ 0x34
 8001fe8:	d107      	bne.n	8001ffa <HAL_SPI_Transmit+0x6e>
 8001fea:	6833      	ldr	r3, [r6, #0]
 8001fec:	f023 0340 	bic.w	r3, r3, #64	@ 0x40
 8001ff0:	6033      	str	r3, [r6, #0]
 8001ff2:	6833      	ldr	r3, [r6, #0]
 8001ff4:	f443 4380 	orr.w	r3, r3, #16384	@ 0x4000
 8001ff8:	6033      	str	r3, [r6, #0]
 8001ffa:	6833      	ldr	r3, [r6, #0]
 8001ffc:	68e2      	ldr	r2, [r4, #12]
 8001ffe:	065b      	lsls	r3, r3, #25
 8002000:	bf5e      	ittt	pl
 8002002:	6833      	ldrpl	r3, [r6, #0]
 8002004:	f043 0340 	orrpl.w	r3, r3, #64	@ 0x40
 8002008:	6033      	strpl	r3, [r6, #0]
 800200a:	f5b2 6f00 	cmp.w	r2, #2048	@ 0x800
 800200e:	6863      	ldr	r3, [r4, #4]
 8002010:	d145      	bne.n	800209e <HAL_SPI_Transmit+0x112>
 8002012:	b113      	cbz	r3, 800201a <HAL_SPI_Transmit+0x8e>
 8002014:	f1b8 0f01 	cmp.w	r8, #1
 8002018:	d107      	bne.n	800202a <HAL_SPI_Transmit+0x9e>
 800201a:	f835 3b02 	ldrh.w	r3, [r5], #2
 800201e:	60f3      	str	r3, [r6, #12]
 8002020:	6325      	str	r5, [r4, #48]	@ 0x30
 8002022:	8ee3      	ldrh	r3, [r4, #54]	@ 0x36
 8002024:	3b01      	subs	r3, #1
 8002026:	b29b      	uxth	r3, r3
 8002028:	86e3      	strh	r3, [r4, #54]	@ 0x36
 800202a:	8ee3      	ldrh	r3, [r4, #54]	@ 0x36
 800202c:	b29b      	uxth	r3, r3
 800202e:	b9d3      	cbnz	r3, 8002066 <HAL_SPI_Transmit+0xda>
 8002030:	464a      	mov	r2, r9
 8002032:	4639      	mov	r1, r7
 8002034:	4620      	mov	r0, r4
 8002036:	f7ff ff1f 	bl	8001e78 <SPI_EndRxTxTransaction>
 800203a:	2800      	cmp	r0, #0
 800203c:	d151      	bne.n	80020e2 <HAL_SPI_Transmit+0x156>
 800203e:	68a3      	ldr	r3, [r4, #8]
 8002040:	b933      	cbnz	r3, 8002050 <HAL_SPI_Transmit+0xc4>
 8002042:	9301      	str	r3, [sp, #4]
 8002044:	6823      	ldr	r3, [r4, #0]
 8002046:	68da      	ldr	r2, [r3, #12]
 8002048:	9201      	str	r2, [sp, #4]
 800204a:	689b      	ldr	r3, [r3, #8]
 800204c:	9301      	str	r3, [sp, #4]
 800204e:	9b01      	ldr	r3, [sp, #4]
 8002050:	2301      	movs	r3, #1
 8002052:	f884 3051 	strb.w	r3, [r4, #81]	@ 0x51
 8002056:	2300      	movs	r3, #0
 8002058:	6d60      	ldr	r0, [r4, #84]	@ 0x54
 800205a:	f884 3050 	strb.w	r3, [r4, #80]	@ 0x50
 800205e:	1ac0      	subs	r0, r0, r3
 8002060:	bf18      	it	ne
 8002062:	2001      	movne	r0, #1
 8002064:	e018      	b.n	8002098 <HAL_SPI_Transmit+0x10c>
 8002066:	6822      	ldr	r2, [r4, #0]
 8002068:	6893      	ldr	r3, [r2, #8]
 800206a:	0798      	lsls	r0, r3, #30
 800206c:	d505      	bpl.n	800207a <HAL_SPI_Transmit+0xee>
 800206e:	6b23      	ldr	r3, [r4, #48]	@ 0x30
 8002070:	f833 1b02 	ldrh.w	r1, [r3], #2
 8002074:	60d1      	str	r1, [r2, #12]
 8002076:	6323      	str	r3, [r4, #48]	@ 0x30
 8002078:	e7d3      	b.n	8002022 <HAL_SPI_Transmit+0x96>
 800207a:	f7fe fe37 	bl	8000cec <HAL_GetTick>
 800207e:	eba0 0009 	sub.w	r0, r0, r9
 8002082:	42b8      	cmp	r0, r7
 8002084:	d3d1      	bcc.n	800202a <HAL_SPI_Transmit+0x9e>
 8002086:	1c79      	adds	r1, r7, #1
 8002088:	d0cf      	beq.n	800202a <HAL_SPI_Transmit+0x9e>
 800208a:	2301      	movs	r3, #1
 800208c:	f884 3051 	strb.w	r3, [r4, #81]	@ 0x51
 8002090:	2300      	movs	r3, #0
 8002092:	2003      	movs	r0, #3
 8002094:	f884 3050 	strb.w	r3, [r4, #80]	@ 0x50
 8002098:	b003      	add	sp, #12
 800209a:	e8bd 83f0 	ldmia.w	sp!, {r4, r5, r6, r7, r8, r9, pc}
 800209e:	b113      	cbz	r3, 80020a6 <HAL_SPI_Transmit+0x11a>
 80020a0:	f1b8 0f01 	cmp.w	r8, #1
 80020a4:	d108      	bne.n	80020b8 <HAL_SPI_Transmit+0x12c>
 80020a6:	782b      	ldrb	r3, [r5, #0]
 80020a8:	7333      	strb	r3, [r6, #12]
 80020aa:	6b23      	ldr	r3, [r4, #48]	@ 0x30
 80020ac:	3301      	adds	r3, #1
 80020ae:	6323      	str	r3, [r4, #48]	@ 0x30
 80020b0:	8ee3      	ldrh	r3, [r4, #54]	@ 0x36
 80020b2:	3b01      	subs	r3, #1
 80020b4:	b29b      	uxth	r3, r3
 80020b6:	86e3      	strh	r3, [r4, #54]	@ 0x36
 80020b8:	8ee3      	ldrh	r3, [r4, #54]	@ 0x36
 80020ba:	b29b      	uxth	r3, r3
 80020bc:	2b00      	cmp	r3, #0
 80020be:	d0b7      	beq.n	8002030 <HAL_SPI_Transmit+0xa4>
 80020c0:	6823      	ldr	r3, [r4, #0]
 80020c2:	689a      	ldr	r2, [r3, #8]
 80020c4:	0792      	lsls	r2, r2, #30
 80020c6:	d503      	bpl.n	80020d0 <HAL_SPI_Transmit+0x144>
 80020c8:	6b22      	ldr	r2, [r4, #48]	@ 0x30
 80020ca:	7812      	ldrb	r2, [r2, #0]
 80020cc:	731a      	strb	r2, [r3, #12]
 80020ce:	e7ec      	b.n	80020aa <HAL_SPI_Transmit+0x11e>
 80020d0:	f7fe fe0c 	bl	8000cec <HAL_GetTick>
 80020d4:	eba0 0009 	sub.w	r0, r0, r9
 80020d8:	42b8      	cmp	r0, r7
 80020da:	d3ed      	bcc.n	80020b8 <HAL_SPI_Transmit+0x12c>
 80020dc:	1c7b      	adds	r3, r7, #1
 80020de:	d0eb      	beq.n	80020b8 <HAL_SPI_Transmit+0x12c>
 80020e0:	e7d3      	b.n	800208a <HAL_SPI_Transmit+0xfe>
 80020e2:	2320      	movs	r3, #32
 80020e4:	6563      	str	r3, [r4, #84]	@ 0x54
 80020e6:	e7aa      	b.n	800203e <HAL_SPI_Transmit+0xb2>
 80020e8:	2002      	movs	r0, #2
 80020ea:	e7d5      	b.n	8002098 <HAL_SPI_Transmit+0x10c>

080020ec <HAL_SPI_Transmit_DMA>:
 80020ec:	b570      	push	{r4, r5, r6, lr}
 80020ee:	f890 3051 	ldrb.w	r3, [r0, #81]	@ 0x51
 80020f2:	4604      	mov	r4, r0
 80020f4:	2b01      	cmp	r3, #1
 80020f6:	b2dd      	uxtb	r5, r3
 80020f8:	d14e      	bne.n	8002198 <HAL_SPI_Transmit_DMA+0xac>
 80020fa:	2900      	cmp	r1, #0
 80020fc:	d036      	beq.n	800216c <HAL_SPI_Transmit_DMA+0x80>
 80020fe:	2a00      	cmp	r2, #0
 8002100:	d034      	beq.n	800216c <HAL_SPI_Transmit_DMA+0x80>
 8002102:	f890 3050 	ldrb.w	r3, [r0, #80]	@ 0x50
 8002106:	2b01      	cmp	r3, #1
 8002108:	d046      	beq.n	8002198 <HAL_SPI_Transmit_DMA+0xac>
 800210a:	2303      	movs	r3, #3
 800210c:	f880 3051 	strb.w	r3, [r0, #81]	@ 0x51
 8002110:	2300      	movs	r3, #0
 8002112:	6543      	str	r3, [r0, #84]	@ 0x54
 8002114:	e9c0 3310 	strd	r3, r3, [r0, #64]	@ 0x40
 8002118:	86c2      	strh	r2, [r0, #54]	@ 0x36
 800211a:	6383      	str	r3, [r0, #56]	@ 0x38
 800211c:	8783      	strh	r3, [r0, #60]	@ 0x3c
 800211e:	87c3      	strh	r3, [r0, #62]	@ 0x3e
 8002120:	6883      	ldr	r3, [r0, #8]
 8002122:	8682      	strh	r2, [r0, #52]	@ 0x34
 8002124:	f5b3 4f00 	cmp.w	r3, #32768	@ 0x8000
 8002128:	6802      	ldr	r2, [r0, #0]
 800212a:	f880 5050 	strb.w	r5, [r0, #80]	@ 0x50
 800212e:	6301      	str	r1, [r0, #48]	@ 0x30
 8002130:	d107      	bne.n	8002142 <HAL_SPI_Transmit_DMA+0x56>
 8002132:	6813      	ldr	r3, [r2, #0]
 8002134:	f023 0340 	bic.w	r3, r3, #64	@ 0x40
 8002138:	6013      	str	r3, [r2, #0]
 800213a:	6813      	ldr	r3, [r2, #0]
 800213c:	f443 4380 	orr.w	r3, r3, #16384	@ 0x4000
 8002140:	6013      	str	r3, [r2, #0]
 8002142:	2600      	movs	r6, #0
 8002144:	6ca0      	ldr	r0, [r4, #72]	@ 0x48
 8002146:	4b15      	ldr	r3, [pc, #84]	@ (800219c <HAL_SPI_Transmit_DMA+0xb0>)
 8002148:	6346      	str	r6, [r0, #52]	@ 0x34
 800214a:	62c3      	str	r3, [r0, #44]	@ 0x2c
 800214c:	4b14      	ldr	r3, [pc, #80]	@ (80021a0 <HAL_SPI_Transmit_DMA+0xb4>)
 800214e:	320c      	adds	r2, #12
 8002150:	6283      	str	r3, [r0, #40]	@ 0x28
 8002152:	4b14      	ldr	r3, [pc, #80]	@ (80021a4 <HAL_SPI_Transmit_DMA+0xb8>)
 8002154:	6303      	str	r3, [r0, #48]	@ 0x30
 8002156:	8ee3      	ldrh	r3, [r4, #54]	@ 0x36
 8002158:	b29b      	uxth	r3, r3
 800215a:	f7ff fb6f 	bl	800183c <HAL_DMA_Start_IT>
 800215e:	b138      	cbz	r0, 8002170 <HAL_SPI_Transmit_DMA+0x84>
 8002160:	6d63      	ldr	r3, [r4, #84]	@ 0x54
 8002162:	f884 6050 	strb.w	r6, [r4, #80]	@ 0x50
 8002166:	f043 0310 	orr.w	r3, r3, #16
 800216a:	6563      	str	r3, [r4, #84]	@ 0x54
 800216c:	4628      	mov	r0, r5
 800216e:	bd70      	pop	{r4, r5, r6, pc}
 8002170:	2500      	movs	r5, #0
 8002172:	6823      	ldr	r3, [r4, #0]
 8002174:	681a      	ldr	r2, [r3, #0]
 8002176:	0652      	lsls	r2, r2, #25
 8002178:	bf5e      	ittt	pl
 800217a:	681a      	ldrpl	r2, [r3, #0]
 800217c:	f042 0240 	orrpl.w	r2, r2, #64	@ 0x40
 8002180:	601a      	strpl	r2, [r3, #0]
 8002182:	f884 5050 	strb.w	r5, [r4, #80]	@ 0x50
 8002186:	685a      	ldr	r2, [r3, #4]
 8002188:	f042 0220 	orr.w	r2, r2, #32
 800218c:	605a      	str	r2, [r3, #4]
 800218e:	685a      	ldr	r2, [r3, #4]
 8002190:	f042 0202 	orr.w	r2, r2, #2
 8002194:	605a      	str	r2, [r3, #4]
 8002196:	e7e9      	b.n	800216c <HAL_SPI_Transmit_DMA+0x80>
 8002198:	2502      	movs	r5, #2
 800219a:	e7e7      	b.n	800216c <HAL_SPI_Transmit_DMA+0x80>
 800219c:	080021ad 	.word	0x080021ad
 80021a0:	080021db 	.word	0x080021db
 80021a4:	080021b9 	.word	0x080021b9

080021a8 <HAL_SPI_TxCpltCallback>:
 80021a8:	4770      	bx	lr

080021aa <HAL_SPI_TxHalfCpltCallback>:
 80021aa:	4770      	bx	lr

080021ac <SPI_DMAHalfTransmitCplt>:
 80021ac:	b508      	push	{r3, lr}
 80021ae:	6a40      	ldr	r0, [r0, #36]	@ 0x24
 80021b0:	f7ff fffb 	bl	80021aa <HAL_SPI_TxHalfCpltCallback>
 80021b4:	bd08      	pop	{r3, pc}

080021b6 <HAL_SPI_ErrorCallback>:
 80021b6:	4770      	bx	lr

080021b8 <SPI_DMAError>:
 80021b8:	6a40      	ldr	r0, [r0, #36]	@ 0x24
 80021ba:	b508      	push	{r3, lr}
 80021bc:	6802      	ldr	r2, [r0, #0]
 80021be:	6853      	ldr	r3, [r2, #4]
 80021c0:	f023 0303 	bic.w	r3, r3, #3
 80021c4:	6053      	str	r3, [r2, #4]
 80021c6:	6d43      	ldr	r3, [r0, #84]	@ 0x54
 80021c8:	f043 0310 	orr.w	r3, r3, #16
 80021cc:	6543      	str	r3, [r0, #84]	@ 0x54
 80021ce:	2301      	movs	r3, #1
 80021d0:	f880 3051 	strb.w	r3, [r0, #81]	@ 0x51
 80021d4:	f7ff ffef 	bl	80021b6 <HAL_SPI_ErrorCallback>
 80021d8:	bd08      	pop	{r3, pc}

080021da <SPI_DMATransmitCplt>:
 80021da:	b537      	push	{r0, r1, r2, r4, r5, lr}
 80021dc:	4605      	mov	r5, r0
 80021de:	6a44      	ldr	r4, [r0, #36]	@ 0x24
 80021e0:	f7fe fd84 	bl	8000cec <HAL_GetTick>
 80021e4:	682b      	ldr	r3, [r5, #0]
 80021e6:	4602      	mov	r2, r0
 80021e8:	681b      	ldr	r3, [r3, #0]
 80021ea:	069b      	lsls	r3, r3, #26
 80021ec:	d426      	bmi.n	800223c <SPI_DMATransmitCplt+0x62>
 80021ee:	6823      	ldr	r3, [r4, #0]
 80021f0:	4620      	mov	r0, r4
 80021f2:	6859      	ldr	r1, [r3, #4]
 80021f4:	f021 0120 	bic.w	r1, r1, #32
 80021f8:	6059      	str	r1, [r3, #4]
 80021fa:	6859      	ldr	r1, [r3, #4]
 80021fc:	f021 0102 	bic.w	r1, r1, #2
 8002200:	6059      	str	r1, [r3, #4]
 8002202:	2164      	movs	r1, #100	@ 0x64
 8002204:	f7ff fe38 	bl	8001e78 <SPI_EndRxTxTransaction>
 8002208:	b118      	cbz	r0, 8002212 <SPI_DMATransmitCplt+0x38>
 800220a:	6d63      	ldr	r3, [r4, #84]	@ 0x54
 800220c:	f043 0320 	orr.w	r3, r3, #32
 8002210:	6563      	str	r3, [r4, #84]	@ 0x54
 8002212:	68a3      	ldr	r3, [r4, #8]
 8002214:	b933      	cbnz	r3, 8002224 <SPI_DMATransmitCplt+0x4a>
 8002216:	9301      	str	r3, [sp, #4]
 8002218:	6823      	ldr	r3, [r4, #0]
 800221a:	68da      	ldr	r2, [r3, #12]
 800221c:	9201      	str	r2, [sp, #4]
 800221e:	689b      	ldr	r3, [r3, #8]
 8002220:	9301      	str	r3, [sp, #4]
 8002222:	9b01      	ldr	r3, [sp, #4]
 8002224:	2300      	movs	r3, #0
 8002226:	86e3      	strh	r3, [r4, #54]	@ 0x36
 8002228:	2301      	movs	r3, #1
 800222a:	f884 3051 	strb.w	r3, [r4, #81]	@ 0x51
 800222e:	6d63      	ldr	r3, [r4, #84]	@ 0x54
 8002230:	b123      	cbz	r3, 800223c <SPI_DMATransmitCplt+0x62>
 8002232:	4620      	mov	r0, r4
 8002234:	f7ff ffbf 	bl	80021b6 <HAL_SPI_ErrorCallback>
 8002238:	b003      	add	sp, #12
 800223a:	bd30      	pop	{r4, r5, pc}
 800223c:	4620      	mov	r0, r4
 800223e:	f7ff ffb3 	bl	80021a8 <HAL_SPI_TxCpltCallback>
 8002242:	e7f9      	b.n	8002238 <SPI_DMATransmitCplt+0x5e>

08002244 <UART_EndRxTransfer>:
 8002244:	6802      	ldr	r2, [r0, #0]
 8002246:	f102 030c 	add.w	r3, r2, #12
 800224a:	e853 3f00 	ldrex	r3, [r3]
 800224e:	f423 7390 	bic.w	r3, r3, #288	@ 0x120
 8002252:	320c      	adds	r2, #12
 8002254:	e842 3100 	strex	r1, r3, [r2]
 8002258:	6802      	ldr	r2, [r0, #0]
 800225a:	2900      	cmp	r1, #0
 800225c:	d1f2      	bne.n	8002244 <UART_EndRxTransfer>
 800225e:	f102 0314 	add.w	r3, r2, #20
 8002262:	e853 3f00 	ldrex	r3, [r3]
 8002266:	f023 0301 	bic.w	r3, r3, #1
 800226a:	f102 0c14 	add.w	ip, r2, #20
 800226e:	e84c 3100 	strex	r1, r3, [ip]
 8002272:	2900      	cmp	r1, #0
 8002274:	d1f3      	bne.n	800225e <UART_EndRxTransfer+0x1a>
 8002276:	6b03      	ldr	r3, [r0, #48]	@ 0x30
 8002278:	2b01      	cmp	r3, #1
 800227a:	d10b      	bne.n	8002294 <UART_EndRxTransfer+0x50>
 800227c:	f102 030c 	add.w	r3, r2, #12
 8002280:	e853 3f00 	ldrex	r3, [r3]
 8002284:	f023 0310 	bic.w	r3, r3, #16
 8002288:	f102 0c0c 	add.w	ip, r2, #12
 800228c:	e84c 3100 	strex	r1, r3, [ip]
 8002290:	2900      	cmp	r1, #0
 8002292:	d1f3      	bne.n	800227c <UART_EndRxTransfer+0x38>
 8002294:	2320      	movs	r3, #32
 8002296:	f880 3042 	strb.w	r3, [r0, #66]	@ 0x42
 800229a:	2300      	movs	r3, #0
 800229c:	6303      	str	r3, [r0, #48]	@ 0x30
 800229e:	4770      	bx	lr

080022a0 <UART_SetConfig>:
 80022a0:	b510      	push	{r4, lr}
 80022a2:	4604      	mov	r4, r0
 80022a4:	6803      	ldr	r3, [r0, #0]
 80022a6:	68c1      	ldr	r1, [r0, #12]
 80022a8:	691a      	ldr	r2, [r3, #16]
 80022aa:	f422 5240 	bic.w	r2, r2, #12288	@ 0x3000
 80022ae:	430a      	orrs	r2, r1
 80022b0:	611a      	str	r2, [r3, #16]
 80022b2:	6882      	ldr	r2, [r0, #8]
 80022b4:	6900      	ldr	r0, [r0, #16]
 80022b6:	68d9      	ldr	r1, [r3, #12]
 80022b8:	4302      	orrs	r2, r0
 80022ba:	6960      	ldr	r0, [r4, #20]
 80022bc:	f421 51b0 	bic.w	r1, r1, #5632	@ 0x1600
 80022c0:	f021 010c 	bic.w	r1, r1, #12
 80022c4:	4302      	orrs	r2, r0
 80022c6:	430a      	orrs	r2, r1
 80022c8:	60da      	str	r2, [r3, #12]
 80022ca:	695a      	ldr	r2, [r3, #20]
 80022cc:	69a1      	ldr	r1, [r4, #24]
 80022ce:	f422 7240 	bic.w	r2, r2, #768	@ 0x300
 80022d2:	430a      	orrs	r2, r1
 80022d4:	615a      	str	r2, [r3, #20]
 80022d6:	4a0e      	ldr	r2, [pc, #56]	@ (8002310 <UART_SetConfig+0x70>)
 80022d8:	4293      	cmp	r3, r2
 80022da:	d115      	bne.n	8002308 <UART_SetConfig+0x68>
 80022dc:	f7fe fff8 	bl	80012d0 <HAL_RCC_GetPCLK2Freq>
 80022e0:	2319      	movs	r3, #25
 80022e2:	4343      	muls	r3, r0
 80022e4:	6862      	ldr	r2, [r4, #4]
 80022e6:	6820      	ldr	r0, [r4, #0]
 80022e8:	0092      	lsls	r2, r2, #2
 80022ea:	fbb3 f3f2 	udiv	r3, r3, r2
 80022ee:	2264      	movs	r2, #100	@ 0x64
 80022f0:	fbb3 f1f2 	udiv	r1, r3, r2
 80022f4:	fb02 3311 	mls	r3, r2, r1, r3
 80022f8:	011b      	lsls	r3, r3, #4
 80022fa:	3332      	adds	r3, #50	@ 0x32
 80022fc:	fbb3 f3f2 	udiv	r3, r3, r2
 8002300:	eb03 1301 	add.w	r3, r3, r1, lsl #4
 8002304:	6083      	str	r3, [r0, #8]
 8002306:	bd10      	pop	{r4, pc}
 8002308:	f7fe ffd2 	bl	80012b0 <HAL_RCC_GetPCLK1Freq>
 800230c:	e7e8      	b.n	80022e0 <UART_SetConfig+0x40>
 800230e:	bf00      	nop
 8002310:	40013800 	.word	0x40013800

08002314 <HAL_UART_Init>:
 8002314:	b510      	push	{r4, lr}
 8002316:	4604      	mov	r4, r0
 8002318:	b348      	cbz	r0, 800236e <HAL_UART_Init+0x5a>
 800231a:	f890 3041 	ldrb.w	r3, [r0, #65]	@ 0x41
 800231e:	f003 02ff 	and.w	r2, r3, #255	@ 0xff
 8002322:	b91b      	cbnz	r3, 800232c <HAL_UART_Init+0x18>
 8002324:	f880 2040 	strb.w	r2, [r0, #64]	@ 0x40
 8002328:	f001 fa70 	bl	800380c <HAL_UART_MspInit>
 800232c:	2324      	movs	r3, #36	@ 0x24
 800232e:	6822      	ldr	r2, [r4, #0]
 8002330:	f884 3041 	strb.w	r3, [r4, #65]	@ 0x41
 8002334:	68d3      	ldr	r3, [r2, #12]
 8002336:	4620      	mov	r0, r4
 8002338:	f423 5300 	bic.w	r3, r3, #8192	@ 0x2000
 800233c:	60d3      	str	r3, [r2, #12]
 800233e:	f7ff ffaf 	bl	80022a0 <UART_SetConfig>
 8002342:	6823      	ldr	r3, [r4, #0]
 8002344:	2000      	movs	r0, #0
 8002346:	691a      	ldr	r2, [r3, #16]
 8002348:	f422 4290 	bic.w	r2, r2, #18432	@ 0x4800
 800234c:	611a      	str	r2, [r3, #16]
 800234e:	695a      	ldr	r2, [r3, #20]
 8002350:	f022 022a 	bic.w	r2, r2, #42	@ 0x2a
 8002354:	615a      	str	r2, [r3, #20]
 8002356:	68da      	ldr	r2, [r3, #12]
 8002358:	f442 5200 	orr.w	r2, r2, #8192	@ 0x2000
 800235c:	60da      	str	r2, [r3, #12]
 800235e:	2320      	movs	r3, #32
 8002360:	6460      	str	r0, [r4, #68]	@ 0x44
 8002362:	f884 3041 	strb.w	r3, [r4, #65]	@ 0x41
 8002366:	f884 3042 	strb.w	r3, [r4, #66]	@ 0x42
 800236a:	6360      	str	r0, [r4, #52]	@ 0x34
 800236c:	bd10      	pop	{r4, pc}
 800236e:	2001      	movs	r0, #1
 8002370:	e7fc      	b.n	800236c <HAL_UART_Init+0x58>

08002372 <HAL_UART_DeInit>:
 8002372:	b510      	push	{r4, lr}
 8002374:	4604      	mov	r4, r0
 8002376:	b1a0      	cbz	r0, 80023a2 <HAL_UART_DeInit+0x30>
 8002378:	2324      	movs	r3, #36	@ 0x24
 800237a:	6802      	ldr	r2, [r0, #0]
 800237c:	f880 3041 	strb.w	r3, [r0, #65]	@ 0x41
 8002380:	68d3      	ldr	r3, [r2, #12]
 8002382:	f423 5300 	bic.w	r3, r3, #8192	@ 0x2000
 8002386:	60d3      	str	r3, [r2, #12]
 8002388:	f001 fab4 	bl	80038f4 <HAL_UART_MspDeInit>
 800238c:	2000      	movs	r0, #0
 800238e:	6460      	str	r0, [r4, #68]	@ 0x44
 8002390:	f884 0040 	strb.w	r0, [r4, #64]	@ 0x40
 8002394:	f884 0041 	strb.w	r0, [r4, #65]	@ 0x41
 8002398:	f884 0042 	strb.w	r0, [r4, #66]	@ 0x42
 800239c:	6320      	str	r0, [r4, #48]	@ 0x30
 800239e:	6360      	str	r0, [r4, #52]	@ 0x34
 80023a0:	bd10      	pop	{r4, pc}
 80023a2:	2001      	movs	r0, #1
 80023a4:	e7fc      	b.n	80023a0 <HAL_UART_DeInit+0x2e>

080023a6 <HAL_UART_Transmit_IT>:
 80023a6:	f890 3041 	ldrb.w	r3, [r0, #65]	@ 0x41
 80023aa:	2b20      	cmp	r3, #32
 80023ac:	d110      	bne.n	80023d0 <HAL_UART_Transmit_IT+0x2a>
 80023ae:	b189      	cbz	r1, 80023d4 <HAL_UART_Transmit_IT+0x2e>
 80023b0:	b182      	cbz	r2, 80023d4 <HAL_UART_Transmit_IT+0x2e>
 80023b2:	84c2      	strh	r2, [r0, #38]	@ 0x26
 80023b4:	8482      	strh	r2, [r0, #36]	@ 0x24
 80023b6:	2300      	movs	r3, #0
 80023b8:	2221      	movs	r2, #33	@ 0x21
 80023ba:	6201      	str	r1, [r0, #32]
 80023bc:	6801      	ldr	r1, [r0, #0]
 80023be:	6443      	str	r3, [r0, #68]	@ 0x44
 80023c0:	f880 2041 	strb.w	r2, [r0, #65]	@ 0x41
 80023c4:	68ca      	ldr	r2, [r1, #12]
 80023c6:	4618      	mov	r0, r3
 80023c8:	f042 0280 	orr.w	r2, r2, #128	@ 0x80
 80023cc:	60ca      	str	r2, [r1, #12]
 80023ce:	4770      	bx	lr
 80023d0:	2002      	movs	r0, #2
 80023d2:	4770      	bx	lr
 80023d4:	2001      	movs	r0, #1
 80023d6:	4770      	bx	lr

080023d8 <HAL_UART_ErrorCallback>:
 80023d8:	4770      	bx	lr

080023da <UART_DMAAbortOnError>:
 80023da:	b508      	push	{r3, lr}
 80023dc:	2300      	movs	r3, #0
 80023de:	6a40      	ldr	r0, [r0, #36]	@ 0x24
 80023e0:	85c3      	strh	r3, [r0, #46]	@ 0x2e
 80023e2:	84c3      	strh	r3, [r0, #38]	@ 0x26
 80023e4:	f7ff fff8 	bl	80023d8 <HAL_UART_ErrorCallback>
 80023e8:	bd08      	pop	{r3, pc}

080023ea <HAL_UARTEx_RxEventCallback>:
 80023ea:	4770      	bx	lr

080023ec <UART_Receive_IT.isra.0>:
 80023ec:	f890 3042 	ldrb.w	r3, [r0, #66]	@ 0x42
 80023f0:	b507      	push	{r0, r1, r2, lr}
 80023f2:	2b22      	cmp	r3, #34	@ 0x22
 80023f4:	d142      	bne.n	800247c <UART_Receive_IT.isra.0+0x90>
 80023f6:	6881      	ldr	r1, [r0, #8]
 80023f8:	6802      	ldr	r2, [r0, #0]
 80023fa:	f5b1 5f80 	cmp.w	r1, #4096	@ 0x1000
 80023fe:	6a83      	ldr	r3, [r0, #40]	@ 0x28
 8002400:	d13f      	bne.n	8002482 <UART_Receive_IT.isra.0+0x96>
 8002402:	6901      	ldr	r1, [r0, #16]
 8002404:	2900      	cmp	r1, #0
 8002406:	d13f      	bne.n	8002488 <UART_Receive_IT.isra.0+0x9c>
 8002408:	6852      	ldr	r2, [r2, #4]
 800240a:	f3c2 0208 	ubfx	r2, r2, #0, #9
 800240e:	f823 2b02 	strh.w	r2, [r3], #2
 8002412:	6283      	str	r3, [r0, #40]	@ 0x28
 8002414:	8dc3      	ldrh	r3, [r0, #46]	@ 0x2e
 8002416:	3b01      	subs	r3, #1
 8002418:	b29b      	uxth	r3, r3
 800241a:	85c3      	strh	r3, [r0, #46]	@ 0x2e
 800241c:	2b00      	cmp	r3, #0
 800241e:	d12d      	bne.n	800247c <UART_Receive_IT.isra.0+0x90>
 8002420:	6802      	ldr	r2, [r0, #0]
 8002422:	68d1      	ldr	r1, [r2, #12]
 8002424:	f021 0120 	bic.w	r1, r1, #32
 8002428:	60d1      	str	r1, [r2, #12]
 800242a:	68d1      	ldr	r1, [r2, #12]
 800242c:	f421 7180 	bic.w	r1, r1, #256	@ 0x100
 8002430:	60d1      	str	r1, [r2, #12]
 8002432:	6951      	ldr	r1, [r2, #20]
 8002434:	f021 0101 	bic.w	r1, r1, #1
 8002438:	6151      	str	r1, [r2, #20]
 800243a:	2220      	movs	r2, #32
 800243c:	f880 2042 	strb.w	r2, [r0, #66]	@ 0x42
 8002440:	6343      	str	r3, [r0, #52]	@ 0x34
 8002442:	6b02      	ldr	r2, [r0, #48]	@ 0x30
 8002444:	2a01      	cmp	r2, #1
 8002446:	6802      	ldr	r2, [r0, #0]
 8002448:	d128      	bne.n	800249c <UART_Receive_IT.isra.0+0xb0>
 800244a:	6303      	str	r3, [r0, #48]	@ 0x30
 800244c:	f102 030c 	add.w	r3, r2, #12
 8002450:	e853 3f00 	ldrex	r3, [r3]
 8002454:	f023 0310 	bic.w	r3, r3, #16
 8002458:	f102 0c0c 	add.w	ip, r2, #12
 800245c:	e84c 3100 	strex	r1, r3, [ip]
 8002460:	2900      	cmp	r1, #0
 8002462:	d1f3      	bne.n	800244c <UART_Receive_IT.isra.0+0x60>
 8002464:	6813      	ldr	r3, [r2, #0]
 8002466:	06db      	lsls	r3, r3, #27
 8002468:	d505      	bpl.n	8002476 <UART_Receive_IT.isra.0+0x8a>
 800246a:	9101      	str	r1, [sp, #4]
 800246c:	6813      	ldr	r3, [r2, #0]
 800246e:	9301      	str	r3, [sp, #4]
 8002470:	6853      	ldr	r3, [r2, #4]
 8002472:	9301      	str	r3, [sp, #4]
 8002474:	9b01      	ldr	r3, [sp, #4]
 8002476:	8d81      	ldrh	r1, [r0, #44]	@ 0x2c
 8002478:	f7ff ffb7 	bl	80023ea <HAL_UARTEx_RxEventCallback>
 800247c:	b003      	add	sp, #12
 800247e:	f85d fb04 	ldr.w	pc, [sp], #4
 8002482:	b939      	cbnz	r1, 8002494 <UART_Receive_IT.isra.0+0xa8>
 8002484:	6901      	ldr	r1, [r0, #16]
 8002486:	b929      	cbnz	r1, 8002494 <UART_Receive_IT.isra.0+0xa8>
 8002488:	6852      	ldr	r2, [r2, #4]
 800248a:	b2d2      	uxtb	r2, r2
 800248c:	701a      	strb	r2, [r3, #0]
 800248e:	6a83      	ldr	r3, [r0, #40]	@ 0x28
 8002490:	3301      	adds	r3, #1
 8002492:	e7be      	b.n	8002412 <UART_Receive_IT.isra.0+0x26>
 8002494:	6852      	ldr	r2, [r2, #4]
 8002496:	f002 027f 	and.w	r2, r2, #127	@ 0x7f
 800249a:	e7f7      	b.n	800248c <UART_Receive_IT.isra.0+0xa0>
 800249c:	f001 f842 	bl	8003524 <HAL_UART_RxCpltCallback>
 80024a0:	e7ec      	b.n	800247c <UART_Receive_IT.isra.0+0x90>
	...

080024a4 <HAL_UART_IRQHandler>:
 80024a4:	6803      	ldr	r3, [r0, #0]
 80024a6:	b573      	push	{r0, r1, r4, r5, r6, lr}
 80024a8:	681a      	ldr	r2, [r3, #0]
 80024aa:	4604      	mov	r4, r0
 80024ac:	0716      	lsls	r6, r2, #28
 80024ae:	68d9      	ldr	r1, [r3, #12]
 80024b0:	695d      	ldr	r5, [r3, #20]
 80024b2:	d108      	bne.n	80024c6 <HAL_UART_IRQHandler+0x22>
 80024b4:	0696      	lsls	r6, r2, #26
 80024b6:	d568      	bpl.n	800258a <HAL_UART_IRQHandler+0xe6>
 80024b8:	068d      	lsls	r5, r1, #26
 80024ba:	d566      	bpl.n	800258a <HAL_UART_IRQHandler+0xe6>
 80024bc:	b002      	add	sp, #8
 80024be:	e8bd 4070 	ldmia.w	sp!, {r4, r5, r6, lr}
 80024c2:	f7ff bf93 	b.w	80023ec <UART_Receive_IT.isra.0>
 80024c6:	f005 0001 	and.w	r0, r5, #1
 80024ca:	f401 7590 	and.w	r5, r1, #288	@ 0x120
 80024ce:	4305      	orrs	r5, r0
 80024d0:	d05b      	beq.n	800258a <HAL_UART_IRQHandler+0xe6>
 80024d2:	07d6      	lsls	r6, r2, #31
 80024d4:	d505      	bpl.n	80024e2 <HAL_UART_IRQHandler+0x3e>
 80024d6:	05cd      	lsls	r5, r1, #23
 80024d8:	bf42      	ittt	mi
 80024da:	6c63      	ldrmi	r3, [r4, #68]	@ 0x44
 80024dc:	f043 0301 	orrmi.w	r3, r3, #1
 80024e0:	6463      	strmi	r3, [r4, #68]	@ 0x44
 80024e2:	0753      	lsls	r3, r2, #29
 80024e4:	d504      	bpl.n	80024f0 <HAL_UART_IRQHandler+0x4c>
 80024e6:	b118      	cbz	r0, 80024f0 <HAL_UART_IRQHandler+0x4c>
 80024e8:	6c63      	ldr	r3, [r4, #68]	@ 0x44
 80024ea:	f043 0302 	orr.w	r3, r3, #2
 80024ee:	6463      	str	r3, [r4, #68]	@ 0x44
 80024f0:	0796      	lsls	r6, r2, #30
 80024f2:	d504      	bpl.n	80024fe <HAL_UART_IRQHandler+0x5a>
 80024f4:	b118      	cbz	r0, 80024fe <HAL_UART_IRQHandler+0x5a>
 80024f6:	6c63      	ldr	r3, [r4, #68]	@ 0x44
 80024f8:	f043 0304 	orr.w	r3, r3, #4
 80024fc:	6463      	str	r3, [r4, #68]	@ 0x44
 80024fe:	0715      	lsls	r5, r2, #28
 8002500:	d507      	bpl.n	8002512 <HAL_UART_IRQHandler+0x6e>
 8002502:	f001 0320 	and.w	r3, r1, #32
 8002506:	4303      	orrs	r3, r0
 8002508:	bf1e      	ittt	ne
 800250a:	6c63      	ldrne	r3, [r4, #68]	@ 0x44
 800250c:	f043 0308 	orrne.w	r3, r3, #8
 8002510:	6463      	strne	r3, [r4, #68]	@ 0x44
 8002512:	6c63      	ldr	r3, [r4, #68]	@ 0x44
 8002514:	2b00      	cmp	r3, #0
 8002516:	d032      	beq.n	800257e <HAL_UART_IRQHandler+0xda>
 8002518:	0692      	lsls	r2, r2, #26
 800251a:	d504      	bpl.n	8002526 <HAL_UART_IRQHandler+0x82>
 800251c:	068b      	lsls	r3, r1, #26
 800251e:	d502      	bpl.n	8002526 <HAL_UART_IRQHandler+0x82>
 8002520:	4620      	mov	r0, r4
 8002522:	f7ff ff63 	bl	80023ec <UART_Receive_IT.isra.0>
 8002526:	6826      	ldr	r6, [r4, #0]
 8002528:	4620      	mov	r0, r4
 800252a:	6973      	ldr	r3, [r6, #20]
 800252c:	6c62      	ldr	r2, [r4, #68]	@ 0x44
 800252e:	f003 0340 	and.w	r3, r3, #64	@ 0x40
 8002532:	f002 0208 	and.w	r2, r2, #8
 8002536:	ea53 0502 	orrs.w	r5, r3, r2
 800253a:	d022      	beq.n	8002582 <HAL_UART_IRQHandler+0xde>
 800253c:	f7ff fe82 	bl	8002244 <UART_EndRxTransfer>
 8002540:	6973      	ldr	r3, [r6, #20]
 8002542:	065e      	lsls	r6, r3, #25
 8002544:	d518      	bpl.n	8002578 <HAL_UART_IRQHandler+0xd4>
 8002546:	6822      	ldr	r2, [r4, #0]
 8002548:	f102 0314 	add.w	r3, r2, #20
 800254c:	e853 3f00 	ldrex	r3, [r3]
 8002550:	f023 0340 	bic.w	r3, r3, #64	@ 0x40
 8002554:	3214      	adds	r2, #20
 8002556:	e842 3100 	strex	r1, r3, [r2]
 800255a:	2900      	cmp	r1, #0
 800255c:	d1f3      	bne.n	8002546 <HAL_UART_IRQHandler+0xa2>
 800255e:	6be0      	ldr	r0, [r4, #60]	@ 0x3c
 8002560:	b150      	cbz	r0, 8002578 <HAL_UART_IRQHandler+0xd4>
 8002562:	4b74      	ldr	r3, [pc, #464]	@ (8002734 <HAL_UART_IRQHandler+0x290>)
 8002564:	6343      	str	r3, [r0, #52]	@ 0x34
 8002566:	f7ff f9c5 	bl	80018f4 <HAL_DMA_Abort_IT>
 800256a:	b140      	cbz	r0, 800257e <HAL_UART_IRQHandler+0xda>
 800256c:	6be0      	ldr	r0, [r4, #60]	@ 0x3c
 800256e:	6b43      	ldr	r3, [r0, #52]	@ 0x34
 8002570:	b002      	add	sp, #8
 8002572:	e8bd 4070 	ldmia.w	sp!, {r4, r5, r6, lr}
 8002576:	4718      	bx	r3
 8002578:	4620      	mov	r0, r4
 800257a:	f7ff ff2d 	bl	80023d8 <HAL_UART_ErrorCallback>
 800257e:	b002      	add	sp, #8
 8002580:	bd70      	pop	{r4, r5, r6, pc}
 8002582:	f7ff ff29 	bl	80023d8 <HAL_UART_ErrorCallback>
 8002586:	6465      	str	r5, [r4, #68]	@ 0x44
 8002588:	e7f9      	b.n	800257e <HAL_UART_IRQHandler+0xda>
 800258a:	6b20      	ldr	r0, [r4, #48]	@ 0x30
 800258c:	2801      	cmp	r0, #1
 800258e:	f040 8094 	bne.w	80026ba <HAL_UART_IRQHandler+0x216>
 8002592:	06d5      	lsls	r5, r2, #27
 8002594:	f140 8091 	bpl.w	80026ba <HAL_UART_IRQHandler+0x216>
 8002598:	06c8      	lsls	r0, r1, #27
 800259a:	f140 808e 	bpl.w	80026ba <HAL_UART_IRQHandler+0x216>
 800259e:	2200      	movs	r2, #0
 80025a0:	9201      	str	r2, [sp, #4]
 80025a2:	681a      	ldr	r2, [r3, #0]
 80025a4:	9201      	str	r2, [sp, #4]
 80025a6:	685a      	ldr	r2, [r3, #4]
 80025a8:	9201      	str	r2, [sp, #4]
 80025aa:	9a01      	ldr	r2, [sp, #4]
 80025ac:	695a      	ldr	r2, [r3, #20]
 80025ae:	0652      	lsls	r2, r2, #25
 80025b0:	d54d      	bpl.n	800264e <HAL_UART_IRQHandler+0x1aa>
 80025b2:	6be1      	ldr	r1, [r4, #60]	@ 0x3c
 80025b4:	680a      	ldr	r2, [r1, #0]
 80025b6:	6852      	ldr	r2, [r2, #4]
 80025b8:	b292      	uxth	r2, r2
 80025ba:	2a00      	cmp	r2, #0
 80025bc:	d0df      	beq.n	800257e <HAL_UART_IRQHandler+0xda>
 80025be:	8da0      	ldrh	r0, [r4, #44]	@ 0x2c
 80025c0:	4290      	cmp	r0, r2
 80025c2:	d9dc      	bls.n	800257e <HAL_UART_IRQHandler+0xda>
 80025c4:	85e2      	strh	r2, [r4, #46]	@ 0x2e
 80025c6:	698a      	ldr	r2, [r1, #24]
 80025c8:	2a20      	cmp	r2, #32
 80025ca:	d036      	beq.n	800263a <HAL_UART_IRQHandler+0x196>
 80025cc:	f103 020c 	add.w	r2, r3, #12
 80025d0:	e852 2f00 	ldrex	r2, [r2]
 80025d4:	f422 7280 	bic.w	r2, r2, #256	@ 0x100
 80025d8:	f103 000c 	add.w	r0, r3, #12
 80025dc:	e840 2100 	strex	r1, r2, [r0]
 80025e0:	2900      	cmp	r1, #0
 80025e2:	d1f3      	bne.n	80025cc <HAL_UART_IRQHandler+0x128>
 80025e4:	f103 0214 	add.w	r2, r3, #20
 80025e8:	e852 2f00 	ldrex	r2, [r2]
 80025ec:	f022 0201 	bic.w	r2, r2, #1
 80025f0:	f103 0014 	add.w	r0, r3, #20
 80025f4:	e840 2100 	strex	r1, r2, [r0]
 80025f8:	2900      	cmp	r1, #0
 80025fa:	d1f3      	bne.n	80025e4 <HAL_UART_IRQHandler+0x140>
 80025fc:	f103 0214 	add.w	r2, r3, #20
 8002600:	e852 2f00 	ldrex	r2, [r2]
 8002604:	f022 0240 	bic.w	r2, r2, #64	@ 0x40
 8002608:	f103 0014 	add.w	r0, r3, #20
 800260c:	e840 2100 	strex	r1, r2, [r0]
 8002610:	2900      	cmp	r1, #0
 8002612:	d1f3      	bne.n	80025fc <HAL_UART_IRQHandler+0x158>
 8002614:	2220      	movs	r2, #32
 8002616:	f884 2042 	strb.w	r2, [r4, #66]	@ 0x42
 800261a:	6321      	str	r1, [r4, #48]	@ 0x30
 800261c:	f103 020c 	add.w	r2, r3, #12
 8002620:	e852 2f00 	ldrex	r2, [r2]
 8002624:	f022 0210 	bic.w	r2, r2, #16
 8002628:	f103 000c 	add.w	r0, r3, #12
 800262c:	e840 2100 	strex	r1, r2, [r0]
 8002630:	2900      	cmp	r1, #0
 8002632:	d1f3      	bne.n	800261c <HAL_UART_IRQHandler+0x178>
 8002634:	6be0      	ldr	r0, [r4, #60]	@ 0x3c
 8002636:	f7ff f93d 	bl	80018b4 <HAL_DMA_Abort>
 800263a:	2302      	movs	r3, #2
 800263c:	6363      	str	r3, [r4, #52]	@ 0x34
 800263e:	8de3      	ldrh	r3, [r4, #46]	@ 0x2e
 8002640:	8da1      	ldrh	r1, [r4, #44]	@ 0x2c
 8002642:	1ac9      	subs	r1, r1, r3
 8002644:	b289      	uxth	r1, r1
 8002646:	4620      	mov	r0, r4
 8002648:	f7ff fecf 	bl	80023ea <HAL_UARTEx_RxEventCallback>
 800264c:	e797      	b.n	800257e <HAL_UART_IRQHandler+0xda>
 800264e:	8de2      	ldrh	r2, [r4, #46]	@ 0x2e
 8002650:	8de0      	ldrh	r0, [r4, #46]	@ 0x2e
 8002652:	8da1      	ldrh	r1, [r4, #44]	@ 0x2c
 8002654:	b280      	uxth	r0, r0
 8002656:	b292      	uxth	r2, r2
 8002658:	2800      	cmp	r0, #0
 800265a:	d090      	beq.n	800257e <HAL_UART_IRQHandler+0xda>
 800265c:	1a89      	subs	r1, r1, r2
 800265e:	b289      	uxth	r1, r1
 8002660:	2900      	cmp	r1, #0
 8002662:	d08c      	beq.n	800257e <HAL_UART_IRQHandler+0xda>
 8002664:	f103 020c 	add.w	r2, r3, #12
 8002668:	e852 2f00 	ldrex	r2, [r2]
 800266c:	f422 7290 	bic.w	r2, r2, #288	@ 0x120
 8002670:	f103 050c 	add.w	r5, r3, #12
 8002674:	e845 2000 	strex	r0, r2, [r5]
 8002678:	2800      	cmp	r0, #0
 800267a:	d1f3      	bne.n	8002664 <HAL_UART_IRQHandler+0x1c0>
 800267c:	f103 0214 	add.w	r2, r3, #20
 8002680:	e852 2f00 	ldrex	r2, [r2]
 8002684:	f022 0201 	bic.w	r2, r2, #1
 8002688:	f103 0514 	add.w	r5, r3, #20
 800268c:	e845 2000 	strex	r0, r2, [r5]
 8002690:	2800      	cmp	r0, #0
 8002692:	d1f3      	bne.n	800267c <HAL_UART_IRQHandler+0x1d8>
 8002694:	2220      	movs	r2, #32
 8002696:	f884 2042 	strb.w	r2, [r4, #66]	@ 0x42
 800269a:	6320      	str	r0, [r4, #48]	@ 0x30
 800269c:	f103 020c 	add.w	r2, r3, #12
 80026a0:	e852 2f00 	ldrex	r2, [r2]
 80026a4:	f022 0210 	bic.w	r2, r2, #16
 80026a8:	f103 050c 	add.w	r5, r3, #12
 80026ac:	e845 2000 	strex	r0, r2, [r5]
 80026b0:	2800      	cmp	r0, #0
 80026b2:	d1f3      	bne.n	800269c <HAL_UART_IRQHandler+0x1f8>
 80026b4:	2302      	movs	r3, #2
 80026b6:	6363      	str	r3, [r4, #52]	@ 0x34
 80026b8:	e7c5      	b.n	8002646 <HAL_UART_IRQHandler+0x1a2>
 80026ba:	0616      	lsls	r6, r2, #24
 80026bc:	d528      	bpl.n	8002710 <HAL_UART_IRQHandler+0x26c>
 80026be:	060d      	lsls	r5, r1, #24
 80026c0:	d526      	bpl.n	8002710 <HAL_UART_IRQHandler+0x26c>
 80026c2:	f894 2041 	ldrb.w	r2, [r4, #65]	@ 0x41
 80026c6:	2a21      	cmp	r2, #33	@ 0x21
 80026c8:	f47f af59 	bne.w	800257e <HAL_UART_IRQHandler+0xda>
 80026cc:	68a1      	ldr	r1, [r4, #8]
 80026ce:	6a22      	ldr	r2, [r4, #32]
 80026d0:	f5b1 5f80 	cmp.w	r1, #4096	@ 0x1000
 80026d4:	d117      	bne.n	8002706 <HAL_UART_IRQHandler+0x262>
 80026d6:	6921      	ldr	r1, [r4, #16]
 80026d8:	b9a9      	cbnz	r1, 8002706 <HAL_UART_IRQHandler+0x262>
 80026da:	f832 1b02 	ldrh.w	r1, [r2], #2
 80026de:	f3c1 0108 	ubfx	r1, r1, #0, #9
 80026e2:	6059      	str	r1, [r3, #4]
 80026e4:	6222      	str	r2, [r4, #32]
 80026e6:	8ce2      	ldrh	r2, [r4, #38]	@ 0x26
 80026e8:	3a01      	subs	r2, #1
 80026ea:	b292      	uxth	r2, r2
 80026ec:	84e2      	strh	r2, [r4, #38]	@ 0x26
 80026ee:	2a00      	cmp	r2, #0
 80026f0:	f47f af45 	bne.w	800257e <HAL_UART_IRQHandler+0xda>
 80026f4:	68da      	ldr	r2, [r3, #12]
 80026f6:	f022 0280 	bic.w	r2, r2, #128	@ 0x80
 80026fa:	60da      	str	r2, [r3, #12]
 80026fc:	68da      	ldr	r2, [r3, #12]
 80026fe:	f042 0240 	orr.w	r2, r2, #64	@ 0x40
 8002702:	60da      	str	r2, [r3, #12]
 8002704:	e73b      	b.n	800257e <HAL_UART_IRQHandler+0xda>
 8002706:	1c51      	adds	r1, r2, #1
 8002708:	6221      	str	r1, [r4, #32]
 800270a:	7812      	ldrb	r2, [r2, #0]
 800270c:	605a      	str	r2, [r3, #4]
 800270e:	e7ea      	b.n	80026e6 <HAL_UART_IRQHandler+0x242>
 8002710:	0650      	lsls	r0, r2, #25
 8002712:	f57f af34 	bpl.w	800257e <HAL_UART_IRQHandler+0xda>
 8002716:	064a      	lsls	r2, r1, #25
 8002718:	f57f af31 	bpl.w	800257e <HAL_UART_IRQHandler+0xda>
 800271c:	68da      	ldr	r2, [r3, #12]
 800271e:	4620      	mov	r0, r4
 8002720:	f022 0240 	bic.w	r2, r2, #64	@ 0x40
 8002724:	60da      	str	r2, [r3, #12]
 8002726:	2320      	movs	r3, #32
 8002728:	f884 3041 	strb.w	r3, [r4, #65]	@ 0x41
 800272c:	f000 fef8 	bl	8003520 <HAL_UART_TxCpltCallback>
 8002730:	e725      	b.n	800257e <HAL_UART_IRQHandler+0xda>
 8002732:	bf00      	nop
 8002734:	080023db 	.word	0x080023db

08002738 <UART_Start_Receive_IT>:
 8002738:	2300      	movs	r3, #0
 800273a:	85c2      	strh	r2, [r0, #46]	@ 0x2e
 800273c:	6443      	str	r3, [r0, #68]	@ 0x44
 800273e:	2322      	movs	r3, #34	@ 0x22
 8002740:	8582      	strh	r2, [r0, #44]	@ 0x2c
 8002742:	6902      	ldr	r2, [r0, #16]
 8002744:	f880 3042 	strb.w	r3, [r0, #66]	@ 0x42
 8002748:	6281      	str	r1, [r0, #40]	@ 0x28
 800274a:	6803      	ldr	r3, [r0, #0]
 800274c:	b11a      	cbz	r2, 8002756 <UART_Start_Receive_IT+0x1e>
 800274e:	68da      	ldr	r2, [r3, #12]
 8002750:	f442 7280 	orr.w	r2, r2, #256	@ 0x100
 8002754:	60da      	str	r2, [r3, #12]
 8002756:	695a      	ldr	r2, [r3, #20]
 8002758:	2000      	movs	r0, #0
 800275a:	f042 0201 	orr.w	r2, r2, #1
 800275e:	615a      	str	r2, [r3, #20]
 8002760:	68da      	ldr	r2, [r3, #12]
 8002762:	f042 0220 	orr.w	r2, r2, #32
 8002766:	60da      	str	r2, [r3, #12]
 8002768:	4770      	bx	lr

0800276a <HAL_UART_Receive_IT>:
 800276a:	b470      	push	{r4, r5, r6}
 800276c:	f890 6042 	ldrb.w	r6, [r0, #66]	@ 0x42
 8002770:	2e20      	cmp	r6, #32
 8002772:	d106      	bne.n	8002782 <HAL_UART_Receive_IT+0x18>
 8002774:	b141      	cbz	r1, 8002788 <HAL_UART_Receive_IT+0x1e>
 8002776:	b13a      	cbz	r2, 8002788 <HAL_UART_Receive_IT+0x1e>
 8002778:	2400      	movs	r4, #0
 800277a:	6304      	str	r4, [r0, #48]	@ 0x30
 800277c:	bc70      	pop	{r4, r5, r6}
 800277e:	f7ff bfdb 	b.w	8002738 <UART_Start_Receive_IT>
 8002782:	2002      	movs	r0, #2
 8002784:	bc70      	pop	{r4, r5, r6}
 8002786:	4770      	bx	lr
 8002788:	2001      	movs	r0, #1
 800278a:	e7fb      	b.n	8002784 <HAL_UART_Receive_IT+0x1a>

0800278c <clearScreen>:
 800278c:	b508      	push	{r3, lr}
 800278e:	f64f 70ff 	movw	r0, #65535	@ 0xffff
 8002792:	f001 ff1f 	bl	80045d4 <UG_FillScreen>
 8002796:	f64f 70ff 	movw	r0, #65535	@ 0xffff
 800279a:	f001 ff1b 	bl	80045d4 <UG_FillScreen>
 800279e:	e8bd 4008 	ldmia.w	sp!, {r3, lr}
 80027a2:	f64f 70ff 	movw	r0, #65535	@ 0xffff
 80027a6:	f001 bf15 	b.w	80045d4 <UG_FillScreen>

080027aa <updateSelectedOption>:
 80027aa:	b573      	push	{r0, r1, r4, r5, r6, lr}
 80027ac:	b3a0      	cbz	r0, 8002818 <updateSelectedOption+0x6e>
 80027ae:	2801      	cmp	r0, #1
 80027b0:	d035      	beq.n	800281e <updateSelectedOption+0x74>
 80027b2:	2802      	cmp	r0, #2
 80027b4:	d039      	beq.n	800282a <updateSelectedOption+0x80>
 80027b6:	f64f 75ff 	movw	r5, #65535	@ 0xffff
 80027ba:	f64f 74ff 	movw	r4, #65535	@ 0xffff
 80027be:	4626      	mov	r6, r4
 80027c0:	236d      	movs	r3, #109	@ 0x6d
 80027c2:	22a2      	movs	r2, #162	@ 0xa2
 80027c4:	213a      	movs	r1, #58	@ 0x3a
 80027c6:	204e      	movs	r0, #78	@ 0x4e
 80027c8:	9500      	str	r5, [sp, #0]
 80027ca:	f001 ffab 	bl	8004724 <UG_DrawFrame>
 80027ce:	236e      	movs	r3, #110	@ 0x6e
 80027d0:	22a3      	movs	r2, #163	@ 0xa3
 80027d2:	2139      	movs	r1, #57	@ 0x39
 80027d4:	204d      	movs	r0, #77	@ 0x4d
 80027d6:	9500      	str	r5, [sp, #0]
 80027d8:	f001 ffa4 	bl	8004724 <UG_DrawFrame>
 80027dc:	23ab      	movs	r3, #171	@ 0xab
 80027de:	22a2      	movs	r2, #162	@ 0xa2
 80027e0:	2178      	movs	r1, #120	@ 0x78
 80027e2:	204e      	movs	r0, #78	@ 0x4e
 80027e4:	9400      	str	r4, [sp, #0]
 80027e6:	f001 ff9d 	bl	8004724 <UG_DrawFrame>
 80027ea:	23ac      	movs	r3, #172	@ 0xac
 80027ec:	22a3      	movs	r2, #163	@ 0xa3
 80027ee:	2177      	movs	r1, #119	@ 0x77
 80027f0:	204d      	movs	r0, #77	@ 0x4d
 80027f2:	9400      	str	r4, [sp, #0]
 80027f4:	f001 ff96 	bl	8004724 <UG_DrawFrame>
 80027f8:	23e9      	movs	r3, #233	@ 0xe9
 80027fa:	22a2      	movs	r2, #162	@ 0xa2
 80027fc:	21b6      	movs	r1, #182	@ 0xb6
 80027fe:	204e      	movs	r0, #78	@ 0x4e
 8002800:	9600      	str	r6, [sp, #0]
 8002802:	f001 ff8f 	bl	8004724 <UG_DrawFrame>
 8002806:	23ea      	movs	r3, #234	@ 0xea
 8002808:	22a3      	movs	r2, #163	@ 0xa3
 800280a:	21b5      	movs	r1, #181	@ 0xb5
 800280c:	204d      	movs	r0, #77	@ 0x4d
 800280e:	9600      	str	r6, [sp, #0]
 8002810:	f001 ff88 	bl	8004724 <UG_DrawFrame>
 8002814:	b002      	add	sp, #8
 8002816:	bd70      	pop	{r4, r5, r6, pc}
 8002818:	f248 0510 	movw	r5, #32784	@ 0x8010
 800281c:	e7cd      	b.n	80027ba <updateSelectedOption+0x10>
 800281e:	f64f 75ff 	movw	r5, #65535	@ 0xffff
 8002822:	f248 0410 	movw	r4, #32784	@ 0x8010
 8002826:	462e      	mov	r6, r5
 8002828:	e7ca      	b.n	80027c0 <updateSelectedOption+0x16>
 800282a:	f64f 74ff 	movw	r4, #65535	@ 0xffff
 800282e:	f248 0610 	movw	r6, #32784	@ 0x8010
 8002832:	4625      	mov	r5, r4
 8002834:	e7c4      	b.n	80027c0 <updateSelectedOption+0x16>
	...

08002838 <updateSelectedGame>:
 8002838:	e92d 4ff7 	stmdb	sp!, {r0, r1, r2, r4, r5, r6, r7, r8, r9, sl, fp, lr}
 800283c:	4607      	mov	r7, r0
 800283e:	251a      	movs	r5, #26
 8002840:	2600      	movs	r6, #0
 8002842:	f64f 7aff 	movw	sl, #65535	@ 0xffff
 8002846:	f248 0b10 	movw	fp, #32784	@ 0x8010
 800284a:	f8df 904c 	ldr.w	r9, [pc, #76]	@ 8002898 <updateSelectedGame+0x60>
 800284e:	f899 2000 	ldrb.w	r2, [r9]
 8002852:	b2f3      	uxtb	r3, r6
 8002854:	429a      	cmp	r2, r3
 8002856:	d802      	bhi.n	800285e <updateSelectedGame+0x26>
 8002858:	b003      	add	sp, #12
 800285a:	e8bd 8ff0 	ldmia.w	sp!, {r4, r5, r6, r7, r8, r9, sl, fp, pc}
 800285e:	429f      	cmp	r7, r3
 8002860:	bf14      	ite	ne
 8002862:	46d0      	movne	r8, sl
 8002864:	46d8      	moveq	r8, fp
 8002866:	b2ac      	uxth	r4, r5
 8002868:	f104 031a 	add.w	r3, r4, #26
 800286c:	b229      	sxth	r1, r5
 800286e:	22f0      	movs	r2, #240	@ 0xf0
 8002870:	2000      	movs	r0, #0
 8002872:	b21b      	sxth	r3, r3
 8002874:	f8cd 8000 	str.w	r8, [sp]
 8002878:	f001 ff54 	bl	8004724 <UG_DrawFrame>
 800287c:	f104 031b 	add.w	r3, r4, #27
 8002880:	1e61      	subs	r1, r4, #1
 8002882:	22f0      	movs	r2, #240	@ 0xf0
 8002884:	2000      	movs	r0, #0
 8002886:	f8cd 8000 	str.w	r8, [sp]
 800288a:	b21b      	sxth	r3, r3
 800288c:	b209      	sxth	r1, r1
 800288e:	f001 ff49 	bl	8004724 <UG_DrawFrame>
 8002892:	3601      	adds	r6, #1
 8002894:	351a      	adds	r5, #26
 8002896:	e7da      	b.n	800284e <updateSelectedGame+0x16>
 8002898:	200000e5 	.word	0x200000e5

0800289c <drawFailureScreen>:
 800289c:	b500      	push	{lr}
 800289e:	b08b      	sub	sp, #44	@ 0x2c
 80028a0:	f7ff ff74 	bl	800278c <clearScreen>
 80028a4:	490c      	ldr	r1, [pc, #48]	@ (80028d8 <drawFailureScreen+0x3c>)
 80028a6:	a802      	add	r0, sp, #8
 80028a8:	f003 fe59 	bl	800655e <strcpy>
 80028ac:	a802      	add	r0, sp, #8
 80028ae:	f7fd fc4f 	bl	8000150 <strlen>
 80028b2:	230a      	movs	r3, #10
 80028b4:	f64f 72ff 	movw	r2, #65535	@ 0xffff
 80028b8:	4358      	muls	r0, r3
 80028ba:	2300      	movs	r3, #0
 80028bc:	0840      	lsrs	r0, r0, #1
 80028be:	f1c0 0078 	rsb	r0, r0, #120	@ 0x78
 80028c2:	e9cd 3200 	strd	r3, r2, [sp]
 80028c6:	2170      	movs	r1, #112	@ 0x70
 80028c8:	4b04      	ldr	r3, [pc, #16]	@ (80028dc <drawFailureScreen+0x40>)
 80028ca:	aa02      	add	r2, sp, #8
 80028cc:	b280      	uxth	r0, r0
 80028ce:	f001 fad3 	bl	8003e78 <LCD_PutStr>
 80028d2:	b00b      	add	sp, #44	@ 0x2c
 80028d4:	f85d fb04 	ldr.w	pc, [sp], #4
 80028d8:	08007400 	.word	0x08007400
 80028dc:	08007d88 	.word	0x08007d88

080028e0 <deInitPeripherals>:
 80028e0:	b570      	push	{r4, r5, r6, lr}
 80028e2:	f002 ff83 	bl	80057ec <vTaskSuspendAll>
 80028e6:	4828      	ldr	r0, [pc, #160]	@ (8002988 <deInitPeripherals+0xa8>)
 80028e8:	f7ff fd43 	bl	8002372 <HAL_UART_DeInit>
 80028ec:	4827      	ldr	r0, [pc, #156]	@ (800298c <deInitPeripherals+0xac>)
 80028ee:	f7ff fd40 	bl	8002372 <HAL_UART_DeInit>
 80028f2:	4827      	ldr	r0, [pc, #156]	@ (8002990 <deInitPeripherals+0xb0>)
 80028f4:	4c27      	ldr	r4, [pc, #156]	@ (8002994 <deInitPeripherals+0xb4>)
 80028f6:	f7fd fcd5 	bl	80002a4 <HAL_TIM_PWM_DeInit>
 80028fa:	4827      	ldr	r0, [pc, #156]	@ (8002998 <deInitPeripherals+0xb8>)
 80028fc:	f7fe f966 	bl	8000bcc <HAL_ADC_DeInit>
 8002900:	4826      	ldr	r0, [pc, #152]	@ (800299c <deInitPeripherals+0xbc>)
 8002902:	f7ff fb2d 	bl	8001f60 <HAL_SPI_DeInit>
 8002906:	6963      	ldr	r3, [r4, #20]
 8002908:	4e25      	ldr	r6, [pc, #148]	@ (80029a0 <deInitPeripherals+0xc0>)
 800290a:	f023 0301 	bic.w	r3, r3, #1
 800290e:	6163      	str	r3, [r4, #20]
 8002910:	4d24      	ldr	r5, [pc, #144]	@ (80029a4 <deInitPeripherals+0xc4>)
 8002912:	200d      	movs	r0, #13
 8002914:	f7ff f91c 	bl	8001b50 <HAL_NVIC_DisableIRQ>
 8002918:	2200      	movs	r2, #0
 800291a:	2120      	movs	r1, #32
 800291c:	4630      	mov	r0, r6
 800291e:	f7fe ff25 	bl	800176c <HAL_GPIO_WritePin>
 8002922:	2201      	movs	r2, #1
 8002924:	f44f 71e0 	mov.w	r1, #448	@ 0x1c0
 8002928:	4628      	mov	r0, r5
 800292a:	f7fe ff1f 	bl	800176c <HAL_GPIO_WritePin>
 800292e:	2110      	movs	r1, #16
 8002930:	4630      	mov	r0, r6
 8002932:	f7fe fea7 	bl	8001684 <HAL_GPIO_DeInit>
 8002936:	2120      	movs	r1, #32
 8002938:	4630      	mov	r0, r6
 800293a:	f7fe fea3 	bl	8001684 <HAL_GPIO_DeInit>
 800293e:	f243 0104 	movw	r1, #12292	@ 0x3004
 8002942:	4628      	mov	r0, r5
 8002944:	f7fe fe9e 	bl	8001684 <HAL_GPIO_DeInit>
 8002948:	21c0      	movs	r1, #192	@ 0xc0
 800294a:	4817      	ldr	r0, [pc, #92]	@ (80029a8 <deInitPeripherals+0xc8>)
 800294c:	f7fe fe9a 	bl	8001684 <HAL_GPIO_DeInit>
 8002950:	2140      	movs	r1, #64	@ 0x40
 8002952:	4628      	mov	r0, r5
 8002954:	f7fe fe96 	bl	8001684 <HAL_GPIO_DeInit>
 8002958:	f44f 71c0 	mov.w	r1, #384	@ 0x180
 800295c:	4628      	mov	r0, r5
 800295e:	f7fe fe91 	bl	8001684 <HAL_GPIO_DeInit>
 8002962:	69a3      	ldr	r3, [r4, #24]
 8002964:	f023 0308 	bic.w	r3, r3, #8
 8002968:	61a3      	str	r3, [r4, #24]
 800296a:	69a3      	ldr	r3, [r4, #24]
 800296c:	f023 0304 	bic.w	r3, r3, #4
 8002970:	61a3      	str	r3, [r4, #24]
 8002972:	f7fe f9d3 	bl	8000d1c <HAL_RCC_DeInit>
 8002976:	f7fe f98b 	bl	8000c90 <HAL_DeInit>
 800297a:	f04f 23e0 	mov.w	r3, #3758153728	@ 0xe000e000
 800297e:	2200      	movs	r2, #0
 8002980:	611a      	str	r2, [r3, #16]
 8002982:	615a      	str	r2, [r3, #20]
 8002984:	619a      	str	r2, [r3, #24]
 8002986:	bd70      	pop	{r4, r5, r6, pc}
 8002988:	200004ac 	.word	0x200004ac
 800298c:	200004f4 	.word	0x200004f4
 8002990:	2000053c 	.word	0x2000053c
 8002994:	40021000 	.word	0x40021000
 8002998:	20000620 	.word	0x20000620
 800299c:	200005c8 	.word	0x200005c8
 80029a0:	40010800 	.word	0x40010800
 80029a4:	40010c00 	.word	0x40010c00
 80029a8:	40011000 	.word	0x40011000

080029ac <testTask>:
 80029ac:	b508      	push	{r3, lr}
 80029ae:	4c05      	ldr	r4, [pc, #20]	@ (80029c4 <testTask+0x18>)
 80029b0:	4620      	mov	r0, r4
 80029b2:	2120      	movs	r1, #32
 80029b4:	f7fe fedf 	bl	8001776 <HAL_GPIO_TogglePin>
 80029b8:	f44f 70fa 	mov.w	r0, #500	@ 0x1f4
 80029bc:	f003 f872 	bl	8005aa4 <vTaskDelay>
 80029c0:	e7f6      	b.n	80029b0 <testTask+0x4>
 80029c2:	bf00      	nop
 80029c4:	40010800 	.word	0x40010800

080029c8 <drawSelectGameScreen>:
 80029c8:	e92d 43f0 	stmdb	sp!, {r4, r5, r6, r7, r8, r9, lr}
 80029cc:	b0e3      	sub	sp, #396	@ 0x18c
 80029ce:	f7ff fedd 	bl	800278c <clearScreen>
 80029d2:	496b      	ldr	r1, [pc, #428]	@ (8002b80 <drawSelectGameScreen+0x1b8>)
 80029d4:	a806      	add	r0, sp, #24
 80029d6:	f003 fdc2 	bl	800655e <strcpy>
 80029da:	a806      	add	r0, sp, #24
 80029dc:	f7fd fbb8 	bl	8000150 <strlen>
 80029e0:	230a      	movs	r3, #10
 80029e2:	2500      	movs	r5, #0
 80029e4:	4358      	muls	r0, r3
 80029e6:	f64f 73ff 	movw	r3, #65535	@ 0xffff
 80029ea:	0840      	lsrs	r0, r0, #1
 80029ec:	f1c0 0078 	rsb	r0, r0, #120	@ 0x78
 80029f0:	2170      	movs	r1, #112	@ 0x70
 80029f2:	e9cd 5300 	strd	r5, r3, [sp]
 80029f6:	aa06      	add	r2, sp, #24
 80029f8:	4b62      	ldr	r3, [pc, #392]	@ (8002b84 <drawSelectGameScreen+0x1bc>)
 80029fa:	b280      	uxth	r0, r0
 80029fc:	f001 fa3c 	bl	8003e78 <LCD_PutStr>
 8002a00:	2201      	movs	r2, #1
 8002a02:	2102      	movs	r1, #2
 8002a04:	4860      	ldr	r0, [pc, #384]	@ (8002b88 <drawSelectGameScreen+0x1c0>)
 8002a06:	f7fe feb1 	bl	800176c <HAL_GPIO_WritePin>
 8002a0a:	4860      	ldr	r0, [pc, #384]	@ (8002b8c <drawSelectGameScreen+0x1c4>)
 8002a0c:	f003 fa0a 	bl	8005e24 <Esp8266_Init>
 8002a10:	2801      	cmp	r0, #1
 8002a12:	d103      	bne.n	8002a1c <drawSelectGameScreen+0x54>
 8002a14:	f003 f974 	bl	8005d00 <Esp8266_SetCwMode>
 8002a18:	2801      	cmp	r0, #1
 8002a1a:	d004      	beq.n	8002a26 <drawSelectGameScreen+0x5e>
 8002a1c:	f7ff ff3e 	bl	800289c <drawFailureScreen>
 8002a20:	b063      	add	sp, #396	@ 0x18c
 8002a22:	e8bd 83f0 	ldmia.w	sp!, {r4, r5, r6, r7, r8, r9, pc}
 8002a26:	4c5a      	ldr	r4, [pc, #360]	@ (8002b90 <drawSelectGameScreen+0x1c8>)
 8002a28:	ab42      	add	r3, sp, #264	@ 0x108
 8002a2a:	6820      	ldr	r0, [r4, #0]
 8002a2c:	6861      	ldr	r1, [r4, #4]
 8002a2e:	f88d 50a8 	strb.w	r5, [sp, #168]	@ 0xa8
 8002a32:	c303      	stmia	r3!, {r0, r1}
 8002a34:	68a0      	ldr	r0, [r4, #8]
 8002a36:	6018      	str	r0, [r3, #0]
 8002a38:	4b56      	ldr	r3, [pc, #344]	@ (8002b94 <drawSelectGameScreen+0x1cc>)
 8002a3a:	9329      	str	r3, [sp, #164]	@ 0xa4
 8002a3c:	4b56      	ldr	r3, [pc, #344]	@ (8002b98 <drawSelectGameScreen+0x1d0>)
 8002a3e:	6819      	ldr	r1, [r3, #0]
 8002a40:	4b56      	ldr	r3, [pc, #344]	@ (8002b9c <drawSelectGameScreen+0x1d4>)
 8002a42:	6818      	ldr	r0, [r3, #0]
 8002a44:	f003 f980 	bl	8005d48 <Esp8266_ConnectAP>
 8002a48:	2801      	cmp	r0, #1
 8002a4a:	d1e7      	bne.n	8002a1c <drawSelectGameScreen+0x54>
 8002a4c:	a929      	add	r1, sp, #164	@ 0xa4
 8002a4e:	a842      	add	r0, sp, #264	@ 0x108
 8002a50:	f003 f99c 	bl	8005d8c <Esp8266_StartTCPIPConnection>
 8002a54:	2802      	cmp	r0, #2
 8002a56:	d10b      	bne.n	8002a70 <drawSelectGameScreen+0xa8>
 8002a58:	a929      	add	r1, sp, #164	@ 0xa4
 8002a5a:	a842      	add	r0, sp, #264	@ 0x108
 8002a5c:	f003 f996 	bl	8005d8c <Esp8266_StartTCPIPConnection>
 8002a60:	2802      	cmp	r0, #2
 8002a62:	d105      	bne.n	8002a70 <drawSelectGameScreen+0xa8>
 8002a64:	a929      	add	r1, sp, #164	@ 0xa4
 8002a66:	a842      	add	r0, sp, #264	@ 0x108
 8002a68:	f003 f990 	bl	8005d8c <Esp8266_StartTCPIPConnection>
 8002a6c:	2802      	cmp	r0, #2
 8002a6e:	d0d5      	beq.n	8002a1c <drawSelectGameScreen+0x54>
 8002a70:	2801      	cmp	r0, #1
 8002a72:	d1d3      	bne.n	8002a1c <drawSelectGameScreen+0x54>
 8002a74:	2232      	movs	r2, #50	@ 0x32
 8002a76:	2100      	movs	r1, #0
 8002a78:	a80d      	add	r0, sp, #52	@ 0x34
 8002a7a:	f003 fc06 	bl	800628a <memset>
 8002a7e:	6820      	ldr	r0, [r4, #0]
 8002a80:	6861      	ldr	r1, [r4, #4]
 8002a82:	ab03      	add	r3, sp, #12
 8002a84:	c303      	stmia	r3!, {r0, r1}
 8002a86:	68a0      	ldr	r0, [r4, #8]
 8002a88:	4945      	ldr	r1, [pc, #276]	@ (8002ba0 <drawSelectGameScreen+0x1d8>)
 8002a8a:	6018      	str	r0, [r3, #0]
 8002a8c:	aa03      	add	r2, sp, #12
 8002a8e:	a81a      	add	r0, sp, #104	@ 0x68
 8002a90:	f003 fb96 	bl	80061c0 <siprintf>
 8002a94:	a81a      	add	r0, sp, #104	@ 0x68
 8002a96:	f003 f997 	bl	8005dc8 <Esp8266_SendIpCommand>
 8002a9a:	2801      	cmp	r0, #1
 8002a9c:	d1be      	bne.n	8002a1c <drawSelectGameScreen+0x54>
 8002a9e:	4c41      	ldr	r4, [pc, #260]	@ (8002ba4 <drawSelectGameScreen+0x1dc>)
 8002aa0:	220c      	movs	r2, #12
 8002aa2:	4620      	mov	r0, r4
 8002aa4:	4940      	ldr	r1, [pc, #256]	@ (8002ba8 <drawSelectGameScreen+0x1e0>)
 8002aa6:	f003 f89f 	bl	8005be8 <find_str>
 8002aaa:	1821      	adds	r1, r4, r0
 8002aac:	a842      	add	r0, sp, #264	@ 0x108
 8002aae:	f003 fd56 	bl	800655e <strcpy>
 8002ab2:	493e      	ldr	r1, [pc, #248]	@ (8002bac <drawSelectGameScreen+0x1e4>)
 8002ab4:	a842      	add	r0, sp, #264	@ 0x108
 8002ab6:	f003 fbff 	bl	80062b8 <strtok>
 8002aba:	4604      	mov	r4, r0
 8002abc:	b308      	cbz	r0, 8002b02 <drawSelectGameScreen+0x13a>
 8002abe:	4f3b      	ldr	r7, [pc, #236]	@ (8002bac <drawSelectGameScreen+0x1e4>)
 8002ac0:	f8df 80ec 	ldr.w	r8, [pc, #236]	@ 8002bb0 <drawSelectGameScreen+0x1e8>
 8002ac4:	4e3b      	ldr	r6, [pc, #236]	@ (8002bb4 <drawSelectGameScreen+0x1ec>)
 8002ac6:	4639      	mov	r1, r7
 8002ac8:	2000      	movs	r0, #0
 8002aca:	f003 fbf5 	bl	80062b8 <strtok>
 8002ace:	4604      	mov	r4, r0
 8002ad0:	f7fd fb3e 	bl	8000150 <strlen>
 8002ad4:	4605      	mov	r5, r0
 8002ad6:	a829      	add	r0, sp, #164	@ 0xa4
 8002ad8:	f7fd fb3a 	bl	8000150 <strlen>
 8002adc:	f1c0 0364 	rsb	r3, r0, #100	@ 0x64
 8002ae0:	429d      	cmp	r5, r3
 8002ae2:	d2f0      	bcs.n	8002ac6 <drawSelectGameScreen+0xfe>
 8002ae4:	4641      	mov	r1, r8
 8002ae6:	4620      	mov	r0, r4
 8002ae8:	f003 fc42 	bl	8006370 <strstr>
 8002aec:	2800      	cmp	r0, #0
 8002aee:	d1ea      	bne.n	8002ac6 <drawSelectGameScreen+0xfe>
 8002af0:	4621      	mov	r1, r4
 8002af2:	a829      	add	r0, sp, #164	@ 0xa4
 8002af4:	f003 fbd1 	bl	800629a <strcat>
 8002af8:	4631      	mov	r1, r6
 8002afa:	a829      	add	r0, sp, #164	@ 0xa4
 8002afc:	f003 fbcd 	bl	800629a <strcat>
 8002b00:	e7e1      	b.n	8002ac6 <drawSelectGameScreen+0xfe>
 8002b02:	a929      	add	r1, sp, #164	@ 0xa4
 8002b04:	a80d      	add	r0, sp, #52	@ 0x34
 8002b06:	f003 fd2a 	bl	800655e <strcpy>
 8002b0a:	f7ff fe3f 	bl	800278c <clearScreen>
 8002b0e:	4929      	ldr	r1, [pc, #164]	@ (8002bb4 <drawSelectGameScreen+0x1ec>)
 8002b10:	a80d      	add	r0, sp, #52	@ 0x34
 8002b12:	f003 fbd1 	bl	80062b8 <strtok>
 8002b16:	4680      	mov	r8, r0
 8002b18:	4620      	mov	r0, r4
 8002b1a:	4d27      	ldr	r5, [pc, #156]	@ (8002bb8 <drawSelectGameScreen+0x1f0>)
 8002b1c:	4e27      	ldr	r6, [pc, #156]	@ (8002bbc <drawSelectGameScreen+0x1f4>)
 8002b1e:	4f25      	ldr	r7, [pc, #148]	@ (8002bb4 <drawSelectGameScreen+0x1ec>)
 8002b20:	f100 041a 	add.w	r4, r0, #26
 8002b24:	f1b8 0f00 	cmp.w	r8, #0
 8002b28:	d10c      	bne.n	8002b44 <drawSelectGameScreen+0x17c>
 8002b2a:	2800      	cmp	r0, #0
 8002b2c:	f47f af78 	bne.w	8002a20 <drawSelectGameScreen+0x58>
 8002b30:	f64f 73ff 	movw	r3, #65535	@ 0xffff
 8002b34:	2178      	movs	r1, #120	@ 0x78
 8002b36:	e9cd 0300 	strd	r0, r3, [sp]
 8002b3a:	4a21      	ldr	r2, [pc, #132]	@ (8002bc0 <drawSelectGameScreen+0x1f8>)
 8002b3c:	4b1f      	ldr	r3, [pc, #124]	@ (8002bbc <drawSelectGameScreen+0x1f4>)
 8002b3e:	f001 f99b 	bl	8003e78 <LCD_PutStr>
 8002b42:	e76d      	b.n	8002a20 <drawSelectGameScreen+0x58>
 8002b44:	782b      	ldrb	r3, [r5, #0]
 8002b46:	4640      	mov	r0, r8
 8002b48:	3301      	adds	r3, #1
 8002b4a:	702b      	strb	r3, [r5, #0]
 8002b4c:	f7fd fb00 	bl	8000150 <strlen>
 8002b50:	0103      	lsls	r3, r0, #4
 8002b52:	085b      	lsrs	r3, r3, #1
 8002b54:	f1c3 0378 	rsb	r3, r3, #120	@ 0x78
 8002b58:	b298      	uxth	r0, r3
 8002b5a:	f04f 0900 	mov.w	r9, #0
 8002b5e:	f64f 73ff 	movw	r3, #65535	@ 0xffff
 8002b62:	4642      	mov	r2, r8
 8002b64:	e9cd 9300 	strd	r9, r3, [sp]
 8002b68:	b2a1      	uxth	r1, r4
 8002b6a:	4633      	mov	r3, r6
 8002b6c:	f001 f984 	bl	8003e78 <LCD_PutStr>
 8002b70:	4639      	mov	r1, r7
 8002b72:	4648      	mov	r0, r9
 8002b74:	f003 fba0 	bl	80062b8 <strtok>
 8002b78:	4680      	mov	r8, r0
 8002b7a:	4620      	mov	r0, r4
 8002b7c:	e7d0      	b.n	8002b20 <drawSelectGameScreen+0x158>
 8002b7e:	bf00      	nop
 8002b80:	0800741a 	.word	0x0800741a
 8002b84:	08007d88 	.word	0x08007d88
 8002b88:	40011000 	.word	0x40011000
 8002b8c:	200004ac 	.word	0x200004ac
 8002b90:	0800747f 	.word	0x0800747f
 8002b94:	30303035 	.word	0x30303035
 8002b98:	2000000c 	.word	0x2000000c
 8002b9c:	20000010 	.word	0x20000010
 8002ba0:	0800742f 	.word	0x0800742f
 8002ba4:	20002080 	.word	0x20002080
 8002ba8:	08007458 	.word	0x08007458
 8002bac:	080074e2 	.word	0x080074e2
 8002bb0:	08007465 	.word	0x08007465
 8002bb4:	0800767a 	.word	0x0800767a
 8002bb8:	200000e5 	.word	0x200000e5
 8002bbc:	0800c5a4 	.word	0x0800c5a4
 8002bc0:	0800746f 	.word	0x0800746f

08002bc4 <mainMenuScreenLogic>:
 8002bc4:	b538      	push	{r3, r4, r5, lr}
 8002bc6:	4c20      	ldr	r4, [pc, #128]	@ (8002c48 <mainMenuScreenLogic+0x84>)
 8002bc8:	4d20      	ldr	r5, [pc, #128]	@ (8002c4c <mainMenuScreenLogic+0x88>)
 8002bca:	7823      	ldrb	r3, [r4, #0]
 8002bcc:	b973      	cbnz	r3, 8002bec <mainMenuScreenLogic+0x28>
 8002bce:	7c2b      	ldrb	r3, [r5, #16]
 8002bd0:	bb0b      	cbnz	r3, 8002c16 <mainMenuScreenLogic+0x52>
 8002bd2:	f7ff fe85 	bl	80028e0 <deInitPeripherals>
 8002bd6:	4a1e      	ldr	r2, [pc, #120]	@ (8002c50 <mainMenuScreenLogic+0x8c>)
 8002bd8:	6993      	ldr	r3, [r2, #24]
 8002bda:	f023 0310 	bic.w	r3, r3, #16
 8002bde:	6193      	str	r3, [r2, #24]
 8002be0:	4b1c      	ldr	r3, [pc, #112]	@ (8002c54 <mainMenuScreenLogic+0x90>)
 8002be2:	e9d3 2300 	ldrd	r2, r3, [r3]
 8002be6:	f382 8808 	msr	MSP, r2
 8002bea:	4718      	bx	r3
 8002bec:	7823      	ldrb	r3, [r4, #0]
 8002bee:	2b01      	cmp	r3, #1
 8002bf0:	d105      	bne.n	8002bfe <mainMenuScreenLogic+0x3a>
 8002bf2:	7c2a      	ldrb	r2, [r5, #16]
 8002bf4:	b97a      	cbnz	r2, 8002c16 <mainMenuScreenLogic+0x52>
 8002bf6:	4a18      	ldr	r2, [pc, #96]	@ (8002c58 <mainMenuScreenLogic+0x94>)
 8002bf8:	7013      	strb	r3, [r2, #0]
 8002bfa:	f7ff fee5 	bl	80029c8 <drawSelectGameScreen>
 8002bfe:	7823      	ldrb	r3, [r4, #0]
 8002c00:	2b02      	cmp	r3, #2
 8002c02:	d108      	bne.n	8002c16 <mainMenuScreenLogic+0x52>
 8002c04:	7c2b      	ldrb	r3, [r5, #16]
 8002c06:	b933      	cbnz	r3, 8002c16 <mainMenuScreenLogic+0x52>
 8002c08:	f7ff fe6a 	bl	80028e0 <deInitPeripherals>
 8002c0c:	2201      	movs	r2, #1
 8002c0e:	2104      	movs	r1, #4
 8002c10:	4812      	ldr	r0, [pc, #72]	@ (8002c5c <mainMenuScreenLogic+0x98>)
 8002c12:	f7fe fdab 	bl	800176c <HAL_GPIO_WritePin>
 8002c16:	7bab      	ldrb	r3, [r5, #14]
 8002c18:	b963      	cbnz	r3, 8002c34 <mainMenuScreenLogic+0x70>
 8002c1a:	4b11      	ldr	r3, [pc, #68]	@ (8002c60 <mainMenuScreenLogic+0x9c>)
 8002c1c:	7b9b      	ldrb	r3, [r3, #14]
 8002c1e:	b14b      	cbz	r3, 8002c34 <mainMenuScreenLogic+0x70>
 8002c20:	7820      	ldrb	r0, [r4, #0]
 8002c22:	2801      	cmp	r0, #1
 8002c24:	d80f      	bhi.n	8002c46 <mainMenuScreenLogic+0x82>
 8002c26:	3001      	adds	r0, #1
 8002c28:	b2c0      	uxtb	r0, r0
 8002c2a:	7020      	strb	r0, [r4, #0]
 8002c2c:	e8bd 4038 	ldmia.w	sp!, {r3, r4, r5, lr}
 8002c30:	f7ff bdbb 	b.w	80027aa <updateSelectedOption>
 8002c34:	7b6b      	ldrb	r3, [r5, #13]
 8002c36:	b933      	cbnz	r3, 8002c46 <mainMenuScreenLogic+0x82>
 8002c38:	4b09      	ldr	r3, [pc, #36]	@ (8002c60 <mainMenuScreenLogic+0x9c>)
 8002c3a:	7b5b      	ldrb	r3, [r3, #13]
 8002c3c:	b11b      	cbz	r3, 8002c46 <mainMenuScreenLogic+0x82>
 8002c3e:	7820      	ldrb	r0, [r4, #0]
 8002c40:	b108      	cbz	r0, 8002c46 <mainMenuScreenLogic+0x82>
 8002c42:	3801      	subs	r0, #1
 8002c44:	e7f0      	b.n	8002c28 <mainMenuScreenLogic+0x64>
 8002c46:	bd38      	pop	{r3, r4, r5, pc}
 8002c48:	20000481 	.word	0x20000481
 8002c4c:	20000496 	.word	0x20000496
 8002c50:	40021000 	.word	0x40021000
 8002c54:	08010000 	.word	0x08010000
 8002c58:	20000480 	.word	0x20000480
 8002c5c:	40011000 	.word	0x40011000
 8002c60:	20000482 	.word	0x20000482

08002c64 <drawPic.constprop.0>:
 8002c64:	e92d 4ff0 	stmdb	sp!, {r4, r5, r6, r7, r8, r9, sl, fp, lr}
 8002c68:	2700      	movs	r7, #0
 8002c6a:	b087      	sub	sp, #28
 8002c6c:	ab06      	add	r3, sp, #24
 8002c6e:	e903 0003 	stmdb	r3, {r0, r1}
 8002c72:	f8bd 9014 	ldrh.w	r9, [sp, #20]
 8002c76:	9202      	str	r2, [sp, #8]
 8002c78:	f109 33ff 	add.w	r3, r9, #4294967295
 8002c7c:	9303      	str	r3, [sp, #12]
 8002c7e:	f8bd 3016 	ldrh.w	r3, [sp, #22]
 8002c82:	b2bc      	uxth	r4, r7
 8002c84:	42a3      	cmp	r3, r4
 8002c86:	d937      	bls.n	8002cf8 <drawPic.constprop.0+0x94>
 8002c88:	4623      	mov	r3, r4
 8002c8a:	220b      	movs	r2, #11
 8002c8c:	4353      	muls	r3, r2
 8002c8e:	9301      	str	r3, [sp, #4]
 8002c90:	9b02      	ldr	r3, [sp, #8]
 8002c92:	2600      	movs	r6, #0
 8002c94:	441c      	add	r4, r3
 8002c96:	f04f 0a4e 	mov.w	sl, #78	@ 0x4e
 8002c9a:	b224      	sxth	r4, r4
 8002c9c:	e027      	b.n	8002cee <drawPic.constprop.0+0x8a>
 8002c9e:	4655      	mov	r5, sl
 8002ca0:	2207      	movs	r2, #7
 8002ca2:	f04f 0b01 	mov.w	fp, #1
 8002ca6:	9b03      	ldr	r3, [sp, #12]
 8002ca8:	1b9b      	subs	r3, r3, r6
 8002caa:	f1d3 0800 	rsbs	r8, r3, #0
 8002cae:	eb48 0803 	adc.w	r8, r8, r3
 8002cb2:	ea4f 0888 	mov.w	r8, r8, lsl #2
 8002cb6:	9904      	ldr	r1, [sp, #16]
 8002cb8:	9b01      	ldr	r3, [sp, #4]
 8002cba:	4431      	add	r1, r6
 8002cbc:	5cc9      	ldrb	r1, [r1, r3]
 8002cbe:	fa0b f202 	lsl.w	r2, fp, r2
 8002cc2:	fa5f fc82 	uxtb.w	ip, r2
 8002cc6:	400a      	ands	r2, r1
 8002cc8:	4594      	cmp	ip, r2
 8002cca:	bf0c      	ite	eq
 8002ccc:	f64f 72ff 	movweq	r2, #65535	@ 0xffff
 8002cd0:	2200      	movne	r2, #0
 8002cd2:	b228      	sxth	r0, r5
 8002cd4:	4621      	mov	r1, r4
 8002cd6:	3501      	adds	r5, #1
 8002cd8:	f001 fc90 	bl	80045fc <UG_DrawPixel>
 8002cdc:	b2ad      	uxth	r5, r5
 8002cde:	f10a 0207 	add.w	r2, sl, #7
 8002ce2:	1b52      	subs	r2, r2, r5
 8002ce4:	b252      	sxtb	r2, r2
 8002ce6:	4542      	cmp	r2, r8
 8002ce8:	dae5      	bge.n	8002cb6 <drawPic.constprop.0+0x52>
 8002cea:	46aa      	mov	sl, r5
 8002cec:	3601      	adds	r6, #1
 8002cee:	b2b2      	uxth	r2, r6
 8002cf0:	4591      	cmp	r9, r2
 8002cf2:	d8d4      	bhi.n	8002c9e <drawPic.constprop.0+0x3a>
 8002cf4:	3701      	adds	r7, #1
 8002cf6:	e7c2      	b.n	8002c7e <drawPic.constprop.0+0x1a>
 8002cf8:	b007      	add	sp, #28
 8002cfa:	e8bd 8ff0 	ldmia.w	sp!, {r4, r5, r6, r7, r8, r9, sl, fp, pc}
	...

08002d00 <drawMainMenu>:
 8002d00:	b510      	push	{r4, lr}
 8002d02:	b08a      	sub	sp, #40	@ 0x28
 8002d04:	f7ff fd42 	bl	800278c <clearScreen>
 8002d08:	f248 0410 	movw	r4, #32784	@ 0x8010
 8002d0c:	2100      	movs	r1, #0
 8002d0e:	231e      	movs	r3, #30
 8002d10:	22f0      	movs	r2, #240	@ 0xf0
 8002d12:	4608      	mov	r0, r1
 8002d14:	9400      	str	r4, [sp, #0]
 8002d16:	f001 fc1d 	bl	8004554 <UG_FillFrame>
 8002d1a:	4911      	ldr	r1, [pc, #68]	@ (8002d60 <drawMainMenu+0x60>)
 8002d1c:	a803      	add	r0, sp, #12
 8002d1e:	f003 fc1e 	bl	800655e <strcpy>
 8002d22:	210a      	movs	r1, #10
 8002d24:	f64f 73ff 	movw	r3, #65535	@ 0xffff
 8002d28:	aa03      	add	r2, sp, #12
 8002d2a:	9300      	str	r3, [sp, #0]
 8002d2c:	4608      	mov	r0, r1
 8002d2e:	4b0d      	ldr	r3, [pc, #52]	@ (8002d64 <drawMainMenu+0x64>)
 8002d30:	9401      	str	r4, [sp, #4]
 8002d32:	f001 f8a1 	bl	8003e78 <LCD_PutStr>
 8002d36:	4b0c      	ldr	r3, [pc, #48]	@ (8002d68 <drawMainMenu+0x68>)
 8002d38:	223a      	movs	r2, #58	@ 0x3a
 8002d3a:	e893 0003 	ldmia.w	r3, {r0, r1}
 8002d3e:	f7ff ff91 	bl	8002c64 <drawPic.constprop.0>
 8002d42:	4b0a      	ldr	r3, [pc, #40]	@ (8002d6c <drawMainMenu+0x6c>)
 8002d44:	2278      	movs	r2, #120	@ 0x78
 8002d46:	e893 0003 	ldmia.w	r3, {r0, r1}
 8002d4a:	f7ff ff8b 	bl	8002c64 <drawPic.constprop.0>
 8002d4e:	4b08      	ldr	r3, [pc, #32]	@ (8002d70 <drawMainMenu+0x70>)
 8002d50:	22b6      	movs	r2, #182	@ 0xb6
 8002d52:	e893 0003 	ldmia.w	r3, {r0, r1}
 8002d56:	f7ff ff85 	bl	8002c64 <drawPic.constprop.0>
 8002d5a:	b00a      	add	sp, #40	@ 0x28
 8002d5c:	bd10      	pop	{r4, pc}
 8002d5e:	bf00      	nop
 8002d60:	0800748b 	.word	0x0800748b
 8002d64:	08009d96 	.word	0x08009d96
 8002d68:	2000002c 	.word	0x2000002c
 8002d6c:	20000024 	.word	0x20000024
 8002d70:	20000034 	.word	0x20000034

08002d74 <taskMainMenu>:
 8002d74:	e92d 4880 	stmdb	sp!, {r7, fp, lr}
 8002d78:	b09f      	sub	sp, #124	@ 0x7c
 8002d7a:	f7ff ffc1 	bl	8002d00 <drawMainMenu>
 8002d7e:	4b87      	ldr	r3, [pc, #540]	@ (8002f9c <taskMainMenu+0x228>)
 8002d80:	f8df 921c 	ldr.w	r9, [pc, #540]	@ 8002fa0 <taskMainMenu+0x22c>
 8002d84:	7818      	ldrb	r0, [r3, #0]
 8002d86:	f7ff fd10 	bl	80027aa <updateSelectedOption>
 8002d8a:	4b86      	ldr	r3, [pc, #536]	@ (8002fa4 <taskMainMenu+0x230>)
 8002d8c:	781a      	ldrb	r2, [r3, #0]
 8002d8e:	2a01      	cmp	r2, #1
 8002d90:	d005      	beq.n	8002d9e <taskMainMenu+0x2a>
 8002d92:	f7ff ff17 	bl	8002bc4 <mainMenuScreenLogic>
 8002d96:	2021      	movs	r0, #33	@ 0x21
 8002d98:	f002 fe84 	bl	8005aa4 <vTaskDelay>
 8002d9c:	e7f5      	b.n	8002d8a <taskMainMenu+0x16>
 8002d9e:	f8df a208 	ldr.w	sl, [pc, #520]	@ 8002fa8 <taskMainMenu+0x234>
 8002da2:	f89a 200f 	ldrb.w	r2, [sl, #15]
 8002da6:	b952      	cbnz	r2, 8002dbe <taskMainMenu+0x4a>
 8002da8:	4880      	ldr	r0, [pc, #512]	@ (8002fac <taskMainMenu+0x238>)
 8002daa:	2102      	movs	r1, #2
 8002dac:	701a      	strb	r2, [r3, #0]
 8002dae:	f7fe fcdd 	bl	800176c <HAL_GPIO_WritePin>
 8002db2:	f7ff ffa5 	bl	8002d00 <drawMainMenu>
 8002db6:	4b79      	ldr	r3, [pc, #484]	@ (8002f9c <taskMainMenu+0x228>)
 8002db8:	7818      	ldrb	r0, [r3, #0]
 8002dba:	f7ff fcf6 	bl	80027aa <updateSelectedOption>
 8002dbe:	f89a 4010 	ldrb.w	r4, [sl, #16]
 8002dc2:	2c00      	cmp	r4, #0
 8002dc4:	f040 80c6 	bne.w	8002f54 <taskMainMenu+0x1e0>
 8002dc8:	4a79      	ldr	r2, [pc, #484]	@ (8002fb0 <taskMainMenu+0x23c>)
 8002dca:	ab0c      	add	r3, sp, #48	@ 0x30
 8002dcc:	6810      	ldr	r0, [r2, #0]
 8002dce:	6851      	ldr	r1, [r2, #4]
 8002dd0:	f88d 4020 	strb.w	r4, [sp, #32]
 8002dd4:	c303      	stmia	r3!, {r0, r1}
 8002dd6:	6890      	ldr	r0, [r2, #8]
 8002dd8:	2401      	movs	r4, #1
 8002dda:	6018      	str	r0, [r3, #0]
 8002ddc:	4b75      	ldr	r3, [pc, #468]	@ (8002fb4 <taskMainMenu+0x240>)
 8002dde:	4e76      	ldr	r6, [pc, #472]	@ (8002fb8 <taskMainMenu+0x244>)
 8002de0:	9307      	str	r3, [sp, #28]
 8002de2:	2340      	movs	r3, #64	@ 0x40
 8002de4:	940f      	str	r4, [sp, #60]	@ 0x3c
 8002de6:	e9cd 6311 	strd	r6, r3, [sp, #68]	@ 0x44
 8002dea:	f7fe feeb 	bl	8001bc4 <HAL_FLASH_Unlock>
 8002dee:	2800      	cmp	r0, #0
 8002df0:	f040 80b0 	bne.w	8002f54 <taskMainMenu+0x1e0>
 8002df4:	a909      	add	r1, sp, #36	@ 0x24
 8002df6:	a80f      	add	r0, sp, #60	@ 0x3c
 8002df8:	f7fe ff8e 	bl	8001d18 <HAL_FLASHEx_Erase>
 8002dfc:	4605      	mov	r5, r0
 8002dfe:	2800      	cmp	r0, #0
 8002e00:	f040 80a8 	bne.w	8002f54 <taskMainMenu+0x1e0>
 8002e04:	462f      	mov	r7, r5
 8002e06:	2203      	movs	r2, #3
 8002e08:	200d      	movs	r0, #13
 8002e0a:	a906      	add	r1, sp, #24
 8002e0c:	f003 f82e 	bl	8005e6c <intToString>
 8002e10:	9603      	str	r6, [sp, #12]
 8002e12:	9402      	str	r4, [sp, #8]
 8002e14:	a907      	add	r1, sp, #28
 8002e16:	a80c      	add	r0, sp, #48	@ 0x30
 8002e18:	f002 ffb8 	bl	8005d8c <Esp8266_StartTCPIPConnection>
 8002e1c:	2802      	cmp	r0, #2
 8002e1e:	d109      	bne.n	8002e34 <taskMainMenu+0xc0>
 8002e20:	a907      	add	r1, sp, #28
 8002e22:	a80c      	add	r0, sp, #48	@ 0x30
 8002e24:	f002 ffb2 	bl	8005d8c <Esp8266_StartTCPIPConnection>
 8002e28:	2802      	cmp	r0, #2
 8002e2a:	d103      	bne.n	8002e34 <taskMainMenu+0xc0>
 8002e2c:	a907      	add	r1, sp, #28
 8002e2e:	a80c      	add	r0, sp, #48	@ 0x30
 8002e30:	f002 ffac 	bl	8005d8c <Esp8266_StartTCPIPConnection>
 8002e34:	2400      	movs	r4, #0
 8002e36:	f64f 76ff 	movw	r6, #65535	@ 0xffff
 8002e3a:	2203      	movs	r2, #3
 8002e3c:	9802      	ldr	r0, [sp, #8]
 8002e3e:	a905      	add	r1, sp, #20
 8002e40:	f003 f814 	bl	8005e6c <intToString>
 8002e44:	f7ff fca2 	bl	800278c <clearScreen>
 8002e48:	213c      	movs	r1, #60	@ 0x3c
 8002e4a:	2019      	movs	r0, #25
 8002e4c:	4b5b      	ldr	r3, [pc, #364]	@ (8002fbc <taskMainMenu+0x248>)
 8002e4e:	4a5c      	ldr	r2, [pc, #368]	@ (8002fc0 <taskMainMenu+0x24c>)
 8002e50:	e9cd 4600 	strd	r4, r6, [sp]
 8002e54:	f001 f810 	bl	8003e78 <LCD_PutStr>
 8002e58:	495a      	ldr	r1, [pc, #360]	@ (8002fc4 <taskMainMenu+0x250>)
 8002e5a:	ab06      	add	r3, sp, #24
 8002e5c:	aa05      	add	r2, sp, #20
 8002e5e:	a809      	add	r0, sp, #36	@ 0x24
 8002e60:	f003 f9ae 	bl	80061c0 <siprintf>
 8002e64:	a809      	add	r0, sp, #36	@ 0x24
 8002e66:	f7fd f973 	bl	8000150 <strlen>
 8002e6a:	230a      	movs	r3, #10
 8002e6c:	4358      	muls	r0, r3
 8002e6e:	0840      	lsrs	r0, r0, #1
 8002e70:	f1c0 0078 	rsb	r0, r0, #120	@ 0x78
 8002e74:	215c      	movs	r1, #92	@ 0x5c
 8002e76:	4b51      	ldr	r3, [pc, #324]	@ (8002fbc <taskMainMenu+0x248>)
 8002e78:	aa09      	add	r2, sp, #36	@ 0x24
 8002e7a:	b280      	uxth	r0, r0
 8002e7c:	e9cd 4600 	strd	r4, r6, [sp]
 8002e80:	f000 fffa 	bl	8003e78 <LCD_PutStr>
 8002e84:	4950      	ldr	r1, [pc, #320]	@ (8002fc8 <taskMainMenu+0x254>)
 8002e86:	ab0c      	add	r3, sp, #48	@ 0x30
 8002e88:	aa05      	add	r2, sp, #20
 8002e8a:	a80f      	add	r0, sp, #60	@ 0x3c
 8002e8c:	f003 f998 	bl	80061c0 <siprintf>
 8002e90:	a80f      	add	r0, sp, #60	@ 0x3c
 8002e92:	f002 ff99 	bl	8005dc8 <Esp8266_SendIpCommand>
 8002e96:	2801      	cmp	r0, #1
 8002e98:	d15c      	bne.n	8002f54 <taskMainMenu+0x1e0>
 8002e9a:	4626      	mov	r6, r4
 8002e9c:	2207      	movs	r2, #7
 8002e9e:	494b      	ldr	r1, [pc, #300]	@ (8002fcc <taskMainMenu+0x258>)
 8002ea0:	eb09 0004 	add.w	r0, r9, r4
 8002ea4:	f002 fea0 	bl	8005be8 <find_str>
 8002ea8:	1c42      	adds	r2, r0, #1
 8002eaa:	d03e      	beq.n	8002f2a <taskMainMenu+0x1b6>
 8002eac:	1d44      	adds	r4, r0, #5
 8002eae:	b1b6      	cbz	r6, 8002ede <taskMainMenu+0x16a>
 8002eb0:	eb04 0809 	add.w	r8, r4, r9
 8002eb4:	2207      	movs	r2, #7
 8002eb6:	4640      	mov	r0, r8
 8002eb8:	4944      	ldr	r1, [pc, #272]	@ (8002fcc <taskMainMenu+0x258>)
 8002eba:	f002 fe95 	bl	8005be8 <find_str>
 8002ebe:	1c43      	adds	r3, r0, #1
 8002ec0:	4606      	mov	r6, r0
 8002ec2:	d107      	bne.n	8002ed4 <taskMainMenu+0x160>
 8002ec4:	2206      	movs	r2, #6
 8002ec6:	4640      	mov	r0, r8
 8002ec8:	4941      	ldr	r1, [pc, #260]	@ (8002fd0 <taskMainMenu+0x25c>)
 8002eca:	f002 fe8d 	bl	8005be8 <find_str>
 8002ece:	4606      	mov	r6, r0
 8002ed0:	1c70      	adds	r0, r6, #1
 8002ed2:	d03f      	beq.n	8002f54 <taskMainMenu+0x1e0>
 8002ed4:	46a0      	mov	r8, r4
 8002ed6:	f04f 0b00 	mov.w	fp, #0
 8002eda:	45b0      	cmp	r8, r6
 8002edc:	db01      	blt.n	8002ee2 <taskMainMenu+0x16e>
 8002ede:	2601      	movs	r6, #1
 8002ee0:	e7dc      	b.n	8002e9c <taskMainMenu+0x128>
 8002ee2:	f1bb 0f00 	cmp.w	fp, #0
 8002ee6:	d10a      	bne.n	8002efe <taskMainMenu+0x18a>
 8002ee8:	f819 b008 	ldrb.w	fp, [r9, r8]
 8002eec:	f1ab 013a 	sub.w	r1, fp, #58	@ 0x3a
 8002ef0:	f1d1 0b00 	rsbs	fp, r1, #0
 8002ef4:	eb4b 0b01 	adc.w	fp, fp, r1
 8002ef8:	f108 0801 	add.w	r8, r8, #1
 8002efc:	e7ed      	b.n	8002eda <taskMainMenu+0x166>
 8002efe:	f819 3008 	ldrb.w	r3, [r9, r8]
 8002f02:	00ea      	lsls	r2, r5, #3
 8002f04:	4093      	lsls	r3, r2
 8002f06:	2d03      	cmp	r5, #3
 8002f08:	ea47 0703 	orr.w	r7, r7, r3
 8002f0c:	d10b      	bne.n	8002f26 <taskMainMenu+0x1b2>
 8002f0e:	463a      	mov	r2, r7
 8002f10:	2700      	movs	r7, #0
 8002f12:	2300      	movs	r3, #0
 8002f14:	2002      	movs	r0, #2
 8002f16:	9903      	ldr	r1, [sp, #12]
 8002f18:	f7fe fe9a 	bl	8001c50 <HAL_FLASH_Program>
 8002f1c:	9b03      	ldr	r3, [sp, #12]
 8002f1e:	463d      	mov	r5, r7
 8002f20:	3304      	adds	r3, #4
 8002f22:	9303      	str	r3, [sp, #12]
 8002f24:	e7e8      	b.n	8002ef8 <taskMainMenu+0x184>
 8002f26:	3501      	adds	r5, #1
 8002f28:	e7e6      	b.n	8002ef8 <taskMainMenu+0x184>
 8002f2a:	9b02      	ldr	r3, [sp, #8]
 8002f2c:	3301      	adds	r3, #1
 8002f2e:	2b0e      	cmp	r3, #14
 8002f30:	9302      	str	r3, [sp, #8]
 8002f32:	f47f af6f 	bne.w	8002e14 <taskMainMenu+0xa0>
 8002f36:	f7fe fe57 	bl	8001be8 <HAL_FLASH_Lock>
 8002f3a:	f7ff fc27 	bl	800278c <clearScreen>
 8002f3e:	2300      	movs	r3, #0
 8002f40:	f64f 72ff 	movw	r2, #65535	@ 0xffff
 8002f44:	2178      	movs	r1, #120	@ 0x78
 8002f46:	e9cd 3200 	strd	r3, r2, [sp]
 8002f4a:	2041      	movs	r0, #65	@ 0x41
 8002f4c:	4b1b      	ldr	r3, [pc, #108]	@ (8002fbc <taskMainMenu+0x248>)
 8002f4e:	4a21      	ldr	r2, [pc, #132]	@ (8002fd4 <taskMainMenu+0x260>)
 8002f50:	f000 ff92 	bl	8003e78 <LCD_PutStr>
 8002f54:	f89a 300e 	ldrb.w	r3, [sl, #14]
 8002f58:	b97b      	cbnz	r3, 8002f7a <taskMainMenu+0x206>
 8002f5a:	4b1f      	ldr	r3, [pc, #124]	@ (8002fd8 <taskMainMenu+0x264>)
 8002f5c:	7b9b      	ldrb	r3, [r3, #14]
 8002f5e:	b163      	cbz	r3, 8002f7a <taskMainMenu+0x206>
 8002f60:	4b1e      	ldr	r3, [pc, #120]	@ (8002fdc <taskMainMenu+0x268>)
 8002f62:	4a1f      	ldr	r2, [pc, #124]	@ (8002fe0 <taskMainMenu+0x26c>)
 8002f64:	7818      	ldrb	r0, [r3, #0]
 8002f66:	7812      	ldrb	r2, [r2, #0]
 8002f68:	4282      	cmp	r2, r0
 8002f6a:	f67f af14 	bls.w	8002d96 <taskMainMenu+0x22>
 8002f6e:	3001      	adds	r0, #1
 8002f70:	b2c0      	uxtb	r0, r0
 8002f72:	7018      	strb	r0, [r3, #0]
 8002f74:	f7ff fc60 	bl	8002838 <updateSelectedGame>
 8002f78:	e70d      	b.n	8002d96 <taskMainMenu+0x22>
 8002f7a:	f89a 300d 	ldrb.w	r3, [sl, #13]
 8002f7e:	2b00      	cmp	r3, #0
 8002f80:	f47f af09 	bne.w	8002d96 <taskMainMenu+0x22>
 8002f84:	4b14      	ldr	r3, [pc, #80]	@ (8002fd8 <taskMainMenu+0x264>)
 8002f86:	7b5b      	ldrb	r3, [r3, #13]
 8002f88:	2b00      	cmp	r3, #0
 8002f8a:	f43f af04 	beq.w	8002d96 <taskMainMenu+0x22>
 8002f8e:	4b13      	ldr	r3, [pc, #76]	@ (8002fdc <taskMainMenu+0x268>)
 8002f90:	7818      	ldrb	r0, [r3, #0]
 8002f92:	2800      	cmp	r0, #0
 8002f94:	f43f aeff 	beq.w	8002d96 <taskMainMenu+0x22>
 8002f98:	3801      	subs	r0, #1
 8002f9a:	e7e9      	b.n	8002f70 <taskMainMenu+0x1fc>
 8002f9c:	20000481 	.word	0x20000481
 8002fa0:	20002080 	.word	0x20002080
 8002fa4:	20000480 	.word	0x20000480
 8002fa8:	20000496 	.word	0x20000496
 8002fac:	40011000 	.word	0x40011000
 8002fb0:	0800747f 	.word	0x0800747f
 8002fb4:	30303035 	.word	0x30303035
 8002fb8:	08010000 	.word	0x08010000
 8002fbc:	08007d88 	.word	0x08007d88
 8002fc0:	0800749f 	.word	0x0800749f
 8002fc4:	080074b3 	.word	0x080074b3
 8002fc8:	080074b9 	.word	0x080074b9
 8002fcc:	080074e5 	.word	0x080074e5
 8002fd0:	080074ed 	.word	0x080074ed
 8002fd4:	080074f4 	.word	0x080074f4
 8002fd8:	20000482 	.word	0x20000482
 8002fdc:	200000e4 	.word	0x200000e4
 8002fe0:	200000e5 	.word	0x200000e5

08002fe4 <SystemClock_Config>:
 8002fe4:	b530      	push	{r4, r5, lr}
 8002fe6:	b095      	sub	sp, #84	@ 0x54
 8002fe8:	2220      	movs	r2, #32
 8002fea:	2100      	movs	r1, #0
 8002fec:	a80b      	add	r0, sp, #44	@ 0x2c
 8002fee:	f003 f94c 	bl	800628a <memset>
 8002ff2:	2214      	movs	r2, #20
 8002ff4:	2510      	movs	r5, #16
 8002ff6:	2100      	movs	r1, #0
 8002ff8:	eb0d 0002 	add.w	r0, sp, r2
 8002ffc:	f003 f945 	bl	800628a <memset>
 8003000:	462a      	mov	r2, r5
 8003002:	2100      	movs	r1, #0
 8003004:	a801      	add	r0, sp, #4
 8003006:	f003 f940 	bl	800628a <memset>
 800300a:	2301      	movs	r3, #1
 800300c:	2402      	movs	r4, #2
 800300e:	e9cd 350e 	strd	r3, r5, [sp, #56]	@ 0x38
 8003012:	f44f 1360 	mov.w	r3, #3670016	@ 0x380000
 8003016:	a80a      	add	r0, sp, #40	@ 0x28
 8003018:	940a      	str	r4, [sp, #40]	@ 0x28
 800301a:	9411      	str	r4, [sp, #68]	@ 0x44
 800301c:	9313      	str	r3, [sp, #76]	@ 0x4c
 800301e:	f7fd fee9 	bl	8000df4 <HAL_RCC_OscConfig>
 8003022:	b108      	cbz	r0, 8003028 <SystemClock_Config+0x44>
 8003024:	b672      	cpsid	i
 8003026:	e7fe      	b.n	8003026 <SystemClock_Config+0x42>
 8003028:	230f      	movs	r3, #15
 800302a:	e9cd 3405 	strd	r3, r4, [sp, #20]
 800302e:	f44f 6380 	mov.w	r3, #1024	@ 0x400
 8003032:	9007      	str	r0, [sp, #28]
 8003034:	e9cd 3008 	strd	r3, r0, [sp, #32]
 8003038:	4621      	mov	r1, r4
 800303a:	a805      	add	r0, sp, #20
 800303c:	f7fe f89c 	bl	8001178 <HAL_RCC_ClockConfig>
 8003040:	b108      	cbz	r0, 8003046 <SystemClock_Config+0x62>
 8003042:	b672      	cpsid	i
 8003044:	e7fe      	b.n	8003044 <SystemClock_Config+0x60>
 8003046:	f44f 4300 	mov.w	r3, #32768	@ 0x8000
 800304a:	a801      	add	r0, sp, #4
 800304c:	9401      	str	r4, [sp, #4]
 800304e:	9303      	str	r3, [sp, #12]
 8003050:	f7fe f96c 	bl	800132c <HAL_RCCEx_PeriphCLKConfig>
 8003054:	b108      	cbz	r0, 800305a <SystemClock_Config+0x76>
 8003056:	b672      	cpsid	i
 8003058:	e7fe      	b.n	8003058 <SystemClock_Config+0x74>
 800305a:	b015      	add	sp, #84	@ 0x54
 800305c:	bd30      	pop	{r4, r5, pc}

0800305e <ADC_SetActiveChannel>:
 800305e:	b51f      	push	{r0, r1, r2, r3, r4, lr}
 8003060:	2300      	movs	r3, #0
 8003062:	9303      	str	r3, [sp, #12]
 8003064:	2301      	movs	r3, #1
 8003066:	9101      	str	r1, [sp, #4]
 8003068:	a901      	add	r1, sp, #4
 800306a:	9302      	str	r3, [sp, #8]
 800306c:	f7fd fbee 	bl	800084c <HAL_ADC_ConfigChannel>
 8003070:	b108      	cbz	r0, 8003076 <ADC_SetActiveChannel+0x18>
 8003072:	b672      	cpsid	i
 8003074:	e7fe      	b.n	8003074 <ADC_SetActiveChannel+0x16>
 8003076:	b005      	add	sp, #20
 8003078:	f85d fb04 	ldr.w	pc, [sp], #4

0800307c <taskGetUserInput>:
 800307c:	2300      	movs	r3, #0
 800307e:	e92d 47f0 	stmdb	sp!, {r4, r5, r6, r7, r8, r9, sl, lr}
 8003082:	b086      	sub	sp, #24
 8003084:	e9cd 3300 	strd	r3, r3, [sp]
 8003088:	4b3a      	ldr	r3, [pc, #232]	@ (8003174 <taskGetUserInput+0xf8>)
 800308a:	af02      	add	r7, sp, #8
 800308c:	cb0f      	ldmia	r3, {r0, r1, r2, r3}
 800308e:	e887 000f 	stmia.w	r7, {r0, r1, r2, r3}
 8003092:	4d39      	ldr	r5, [pc, #228]	@ (8003178 <taskGetUserInput+0xfc>)
 8003094:	4e39      	ldr	r6, [pc, #228]	@ (800317c <taskGetUserInput+0x100>)
 8003096:	f8df 80e8 	ldr.w	r8, [pc, #232]	@ 8003180 <taskGetUserInput+0x104>
 800309a:	46ba      	mov	sl, r7
 800309c:	46e9      	mov	r9, sp
 800309e:	2400      	movs	r4, #0
 80030a0:	f85a 1b04 	ldr.w	r1, [sl], #4
 80030a4:	4628      	mov	r0, r5
 80030a6:	f7ff ffda 	bl	800305e <ADC_SetActiveChannel>
 80030aa:	4628      	mov	r0, r5
 80030ac:	f7fd fc88 	bl	80009c0 <HAL_ADC_Start>
 80030b0:	210a      	movs	r1, #10
 80030b2:	4628      	mov	r0, r5
 80030b4:	f7fd fb22 	bl	80006fc <HAL_ADC_PollForConversion>
 80030b8:	4628      	mov	r0, r5
 80030ba:	f7fd fbc3 	bl	8000844 <HAL_ADC_GetValue>
 80030be:	3401      	adds	r4, #1
 80030c0:	2c04      	cmp	r4, #4
 80030c2:	f829 0b02 	strh.w	r0, [r9], #2
 80030c6:	d1eb      	bne.n	80030a0 <taskGetUserInput+0x24>
 80030c8:	4b2e      	ldr	r3, [pc, #184]	@ (8003184 <taskGetUserInput+0x108>)
 80030ca:	4a2f      	ldr	r2, [pc, #188]	@ (8003188 <taskGetUserInput+0x10c>)
 80030cc:	461c      	mov	r4, r3
 80030ce:	f103 0114 	add.w	r1, r3, #20
 80030d2:	f853 0b04 	ldr.w	r0, [r3], #4
 80030d6:	428b      	cmp	r3, r1
 80030d8:	f842 0b04 	str.w	r0, [r2], #4
 80030dc:	d1f9      	bne.n	80030d2 <taskGetUserInput+0x56>
 80030de:	f8bd 3000 	ldrh.w	r3, [sp]
 80030e2:	2110      	movs	r1, #16
 80030e4:	8023      	strh	r3, [r4, #0]
 80030e6:	f8bd 3002 	ldrh.w	r3, [sp, #2]
 80030ea:	4828      	ldr	r0, [pc, #160]	@ (800318c <taskGetUserInput+0x110>)
 80030ec:	8063      	strh	r3, [r4, #2]
 80030ee:	f8bd 3004 	ldrh.w	r3, [sp, #4]
 80030f2:	80e3      	strh	r3, [r4, #6]
 80030f4:	f8bd 3006 	ldrh.w	r3, [sp, #6]
 80030f8:	8123      	strh	r3, [r4, #8]
 80030fa:	f7fe fb31 	bl	8001760 <HAL_GPIO_ReadPin>
 80030fe:	2104      	movs	r1, #4
 8003100:	7120      	strb	r0, [r4, #4]
 8003102:	4630      	mov	r0, r6
 8003104:	f7fe fb2c 	bl	8001760 <HAL_GPIO_ReadPin>
 8003108:	f44f 5180 	mov.w	r1, #4096	@ 0x1000
 800310c:	72a0      	strb	r0, [r4, #10]
 800310e:	4630      	mov	r0, r6
 8003110:	f7fe fb26 	bl	8001760 <HAL_GPIO_ReadPin>
 8003114:	f44f 5100 	mov.w	r1, #8192	@ 0x2000
 8003118:	73a0      	strb	r0, [r4, #14]
 800311a:	4630      	mov	r0, r6
 800311c:	f7fe fb20 	bl	8001760 <HAL_GPIO_ReadPin>
 8003120:	2140      	movs	r1, #64	@ 0x40
 8003122:	7360      	strb	r0, [r4, #13]
 8003124:	4640      	mov	r0, r8
 8003126:	f7fe fb1b 	bl	8001760 <HAL_GPIO_ReadPin>
 800312a:	2180      	movs	r1, #128	@ 0x80
 800312c:	7420      	strb	r0, [r4, #16]
 800312e:	4640      	mov	r0, r8
 8003130:	f7fe fb16 	bl	8001760 <HAL_GPIO_ReadPin>
 8003134:	f44f 4100 	mov.w	r1, #32768	@ 0x8000
 8003138:	73e0      	strb	r0, [r4, #15]
 800313a:	4630      	mov	r0, r6
 800313c:	f7fe fb10 	bl	8001760 <HAL_GPIO_ReadPin>
 8003140:	f44f 4180 	mov.w	r1, #16384	@ 0x4000
 8003144:	72e0      	strb	r0, [r4, #11]
 8003146:	4630      	mov	r0, r6
 8003148:	f7fe fb0a 	bl	8001760 <HAL_GPIO_ReadPin>
 800314c:	210a      	movs	r1, #10
 800314e:	7320      	strb	r0, [r4, #12]
 8003150:	4628      	mov	r0, r5
 8003152:	f7ff ff84 	bl	800305e <ADC_SetActiveChannel>
 8003156:	4628      	mov	r0, r5
 8003158:	f7fd fc32 	bl	80009c0 <HAL_ADC_Start>
 800315c:	210a      	movs	r1, #10
 800315e:	4628      	mov	r0, r5
 8003160:	f7fd facc 	bl	80006fc <HAL_ADC_PollForConversion>
 8003164:	4628      	mov	r0, r5
 8003166:	f7fd fb6d 	bl	8000844 <HAL_ADC_GetValue>
 800316a:	8260      	strh	r0, [r4, #18]
 800316c:	2021      	movs	r0, #33	@ 0x21
 800316e:	f002 fc99 	bl	8005aa4 <vTaskDelay>
 8003172:	e792      	b.n	800309a <taskGetUserInput+0x1e>
 8003174:	080073b4 	.word	0x080073b4
 8003178:	20000620 	.word	0x20000620
 800317c:	40010c00 	.word	0x40010c00
 8003180:	40011000 	.word	0x40011000
 8003184:	20000496 	.word	0x20000496
 8003188:	20000482 	.word	0x20000482
 800318c:	40010800 	.word	0x40010800

08003190 <main>:
 8003190:	e92d 4ff0 	stmdb	sp!, {r4, r5, r6, r7, r8, r9, sl, fp, lr}
 8003194:	f04f 0a10 	mov.w	sl, #16
 8003198:	2501      	movs	r5, #1
 800319a:	2702      	movs	r7, #2
 800319c:	b099      	sub	sp, #100	@ 0x64
 800319e:	f8df 9294 	ldr.w	r9, [pc, #660]	@ 8003434 <main+0x2a4>
 80031a2:	f7fd fd85 	bl	8000cb0 <HAL_Init>
 80031a6:	f7ff ff1d 	bl	8002fe4 <SystemClock_Config>
 80031aa:	4652      	mov	r2, sl
 80031ac:	2100      	movs	r1, #0
 80031ae:	a810      	add	r0, sp, #64	@ 0x40
 80031b0:	f003 f86b 	bl	800628a <memset>
 80031b4:	f8d9 3018 	ldr.w	r3, [r9, #24]
 80031b8:	2200      	movs	r2, #0
 80031ba:	ea43 030a 	orr.w	r3, r3, sl
 80031be:	f8c9 3018 	str.w	r3, [r9, #24]
 80031c2:	f8d9 3018 	ldr.w	r3, [r9, #24]
 80031c6:	2106      	movs	r1, #6
 80031c8:	ea03 030a 	and.w	r3, r3, sl
 80031cc:	9304      	str	r3, [sp, #16]
 80031ce:	9b04      	ldr	r3, [sp, #16]
 80031d0:	f8d9 3018 	ldr.w	r3, [r9, #24]
 80031d4:	4898      	ldr	r0, [pc, #608]	@ (8003438 <main+0x2a8>)
 80031d6:	f043 0304 	orr.w	r3, r3, #4
 80031da:	f8c9 3018 	str.w	r3, [r9, #24]
 80031de:	f8d9 3018 	ldr.w	r3, [r9, #24]
 80031e2:	2400      	movs	r4, #0
 80031e4:	f003 0304 	and.w	r3, r3, #4
 80031e8:	9305      	str	r3, [sp, #20]
 80031ea:	9b05      	ldr	r3, [sp, #20]
 80031ec:	f8d9 3018 	ldr.w	r3, [r9, #24]
 80031f0:	2620      	movs	r6, #32
 80031f2:	f043 0308 	orr.w	r3, r3, #8
 80031f6:	f8c9 3018 	str.w	r3, [r9, #24]
 80031fa:	f8d9 3018 	ldr.w	r3, [r9, #24]
 80031fe:	f04f 0803 	mov.w	r8, #3
 8003202:	f003 0308 	and.w	r3, r3, #8
 8003206:	9306      	str	r3, [sp, #24]
 8003208:	9b06      	ldr	r3, [sp, #24]
 800320a:	f7fe faaf 	bl	800176c <HAL_GPIO_WritePin>
 800320e:	2200      	movs	r2, #0
 8003210:	2120      	movs	r1, #32
 8003212:	488a      	ldr	r0, [pc, #552]	@ (800343c <main+0x2ac>)
 8003214:	f7fe faaa 	bl	800176c <HAL_GPIO_WritePin>
 8003218:	2201      	movs	r2, #1
 800321a:	f44f 71e0 	mov.w	r1, #448	@ 0x1c0
 800321e:	4888      	ldr	r0, [pc, #544]	@ (8003440 <main+0x2b0>)
 8003220:	f7fe faa4 	bl	800176c <HAL_GPIO_WritePin>
 8003224:	4884      	ldr	r0, [pc, #528]	@ (8003438 <main+0x2a8>)
 8003226:	a910      	add	r1, sp, #64	@ 0x40
 8003228:	e9cd 7510 	strd	r7, r5, [sp, #64]	@ 0x40
 800322c:	e9cd 7712 	strd	r7, r7, [sp, #72]	@ 0x48
 8003230:	f7fe f954 	bl	80014dc <HAL_GPIO_Init>
 8003234:	2304      	movs	r3, #4
 8003236:	4880      	ldr	r0, [pc, #512]	@ (8003438 <main+0x2a8>)
 8003238:	a910      	add	r1, sp, #64	@ 0x40
 800323a:	e9cd 3510 	strd	r3, r5, [sp, #64]	@ 0x40
 800323e:	e9cd 4712 	strd	r4, r7, [sp, #72]	@ 0x48
 8003242:	f7fe f94b 	bl	80014dc <HAL_GPIO_Init>
 8003246:	487d      	ldr	r0, [pc, #500]	@ (800343c <main+0x2ac>)
 8003248:	a910      	add	r1, sp, #64	@ 0x40
 800324a:	e9cd a410 	strd	sl, r4, [sp, #64]	@ 0x40
 800324e:	9512      	str	r5, [sp, #72]	@ 0x48
 8003250:	f7fe f944 	bl	80014dc <HAL_GPIO_Init>
 8003254:	4879      	ldr	r0, [pc, #484]	@ (800343c <main+0x2ac>)
 8003256:	a910      	add	r1, sp, #64	@ 0x40
 8003258:	e9cd 6510 	strd	r6, r5, [sp, #64]	@ 0x40
 800325c:	e9cd 4712 	strd	r4, r7, [sp, #72]	@ 0x48
 8003260:	f7fe f93c 	bl	80014dc <HAL_GPIO_Init>
 8003264:	f24f 0304 	movw	r3, #61444	@ 0xf004
 8003268:	4875      	ldr	r0, [pc, #468]	@ (8003440 <main+0x2b0>)
 800326a:	a910      	add	r1, sp, #64	@ 0x40
 800326c:	e9cd 3410 	strd	r3, r4, [sp, #64]	@ 0x40
 8003270:	9512      	str	r5, [sp, #72]	@ 0x48
 8003272:	f7fe f933 	bl	80014dc <HAL_GPIO_Init>
 8003276:	23c0      	movs	r3, #192	@ 0xc0
 8003278:	486f      	ldr	r0, [pc, #444]	@ (8003438 <main+0x2a8>)
 800327a:	a910      	add	r1, sp, #64	@ 0x40
 800327c:	e9cd 3410 	strd	r3, r4, [sp, #64]	@ 0x40
 8003280:	9512      	str	r5, [sp, #72]	@ 0x48
 8003282:	f7fe f92b 	bl	80014dc <HAL_GPIO_Init>
 8003286:	2340      	movs	r3, #64	@ 0x40
 8003288:	486d      	ldr	r0, [pc, #436]	@ (8003440 <main+0x2b0>)
 800328a:	eb0d 0103 	add.w	r1, sp, r3
 800328e:	e9cd 3510 	strd	r3, r5, [sp, #64]	@ 0x40
 8003292:	9412      	str	r4, [sp, #72]	@ 0x48
 8003294:	f8cd 804c 	str.w	r8, [sp, #76]	@ 0x4c
 8003298:	f7fe f920 	bl	80014dc <HAL_GPIO_Init>
 800329c:	f44f 73c0 	mov.w	r3, #384	@ 0x180
 80032a0:	4867      	ldr	r0, [pc, #412]	@ (8003440 <main+0x2b0>)
 80032a2:	a910      	add	r1, sp, #64	@ 0x40
 80032a4:	e9cd 3510 	strd	r3, r5, [sp, #64]	@ 0x40
 80032a8:	e9cd 5812 	strd	r5, r8, [sp, #72]	@ 0x48
 80032ac:	f7fe f916 	bl	80014dc <HAL_GPIO_Init>
 80032b0:	f8d9 3014 	ldr.w	r3, [r9, #20]
 80032b4:	4622      	mov	r2, r4
 80032b6:	432b      	orrs	r3, r5
 80032b8:	f8c9 3014 	str.w	r3, [r9, #20]
 80032bc:	f8d9 3014 	ldr.w	r3, [r9, #20]
 80032c0:	4621      	mov	r1, r4
 80032c2:	402b      	ands	r3, r5
 80032c4:	200d      	movs	r0, #13
 80032c6:	9303      	str	r3, [sp, #12]
 80032c8:	9b03      	ldr	r3, [sp, #12]
 80032ca:	f7fe fc03 	bl	8001ad4 <HAL_NVIC_SetPriority>
 80032ce:	200d      	movs	r0, #13
 80032d0:	f7fe fc30 	bl	8001b34 <HAL_NVIC_EnableIRQ>
 80032d4:	f44f 7382 	mov.w	r3, #260	@ 0x104
 80032d8:	485a      	ldr	r0, [pc, #360]	@ (8003444 <main+0x2b4>)
 80032da:	f8df e16c 	ldr.w	lr, [pc, #364]	@ 8003448 <main+0x2b8>
 80032de:	f04f 090a 	mov.w	r9, #10
 80032e2:	e9c0 e300 	strd	lr, r3, [r0]
 80032e6:	f44f 7300 	mov.w	r3, #512	@ 0x200
 80032ea:	e9c0 4402 	strd	r4, r4, [r0, #8]
 80032ee:	e9c0 4404 	strd	r4, r4, [r0, #16]
 80032f2:	e9c0 3a06 	strd	r3, sl, [r0, #24]
 80032f6:	e9c0 4408 	strd	r4, r4, [r0, #32]
 80032fa:	6284      	str	r4, [r0, #40]	@ 0x28
 80032fc:	f8c0 902c 	str.w	r9, [r0, #44]	@ 0x2c
 8003300:	f7fe fdd6 	bl	8001eb0 <HAL_SPI_Init>
 8003304:	b108      	cbz	r0, 800330a <main+0x17a>
 8003306:	b672      	cpsid	i
 8003308:	e7fe      	b.n	8003308 <main+0x178>
 800330a:	4c50      	ldr	r4, [pc, #320]	@ (800344c <main+0x2bc>)
 800330c:	4b50      	ldr	r3, [pc, #320]	@ (8003450 <main+0x2c0>)
 800330e:	e9cd 0010 	strd	r0, r0, [sp, #64]	@ 0x40
 8003312:	6023      	str	r3, [r4, #0]
 8003314:	f44f 2360 	mov.w	r3, #917504	@ 0xe0000
 8003318:	9012      	str	r0, [sp, #72]	@ 0x48
 800331a:	60a0      	str	r0, [r4, #8]
 800331c:	7320      	strb	r0, [r4, #12]
 800331e:	7520      	strb	r0, [r4, #20]
 8003320:	6060      	str	r0, [r4, #4]
 8003322:	4620      	mov	r0, r4
 8003324:	61e3      	str	r3, [r4, #28]
 8003326:	6125      	str	r5, [r4, #16]
 8003328:	f7fd fbd2 	bl	8000ad0 <HAL_ADC_Init>
 800332c:	b108      	cbz	r0, 8003332 <main+0x1a2>
 800332e:	b672      	cpsid	i
 8003330:	e7fe      	b.n	8003330 <main+0x1a0>
 8003332:	2306      	movs	r3, #6
 8003334:	9012      	str	r0, [sp, #72]	@ 0x48
 8003336:	a910      	add	r1, sp, #64	@ 0x40
 8003338:	4620      	mov	r0, r4
 800333a:	e9cd 3510 	strd	r3, r5, [sp, #64]	@ 0x40
 800333e:	f7fd fa85 	bl	800084c <HAL_ADC_ConfigChannel>
 8003342:	4603      	mov	r3, r0
 8003344:	b108      	cbz	r0, 800334a <main+0x1ba>
 8003346:	b672      	cpsid	i
 8003348:	e7fe      	b.n	8003348 <main+0x1b8>
 800334a:	f44f 32e1 	mov.w	r2, #115200	@ 0x1c200
 800334e:	f04f 0a0c 	mov.w	sl, #12
 8003352:	4840      	ldr	r0, [pc, #256]	@ (8003454 <main+0x2c4>)
 8003354:	f8df c100 	ldr.w	ip, [pc, #256]	@ 8003458 <main+0x2c8>
 8003358:	e9c0 3302 	strd	r3, r3, [r0, #8]
 800335c:	e9c0 c200 	strd	ip, r2, [r0]
 8003360:	e9c0 a305 	strd	sl, r3, [r0, #20]
 8003364:	6103      	str	r3, [r0, #16]
 8003366:	61c3      	str	r3, [r0, #28]
 8003368:	f7fe ffd4 	bl	8002314 <HAL_UART_Init>
 800336c:	4683      	mov	fp, r0
 800336e:	b108      	cbz	r0, 8003374 <main+0x1e4>
 8003370:	b672      	cpsid	i
 8003372:	e7fe      	b.n	8003372 <main+0x1e2>
 8003374:	4601      	mov	r1, r0
 8003376:	221c      	movs	r2, #28
 8003378:	e9cd 0007 	strd	r0, r0, [sp, #28]
 800337c:	a809      	add	r0, sp, #36	@ 0x24
 800337e:	f002 ff84 	bl	800628a <memset>
 8003382:	4632      	mov	r2, r6
 8003384:	4659      	mov	r1, fp
 8003386:	a810      	add	r0, sp, #64	@ 0x40
 8003388:	f002 ff7f 	bl	800628a <memset>
 800338c:	4e33      	ldr	r6, [pc, #204]	@ (800345c <main+0x2cc>)
 800338e:	4b34      	ldr	r3, [pc, #208]	@ (8003460 <main+0x2d0>)
 8003390:	4630      	mov	r0, r6
 8003392:	e9c6 3b00 	strd	r3, fp, [r6]
 8003396:	f242 7316 	movw	r3, #10006	@ 0x2716
 800339a:	e9c6 bb05 	strd	fp, fp, [r6, #20]
 800339e:	e9c6 3b03 	strd	r3, fp, [r6, #12]
 80033a2:	f8c6 b008 	str.w	fp, [r6, #8]
 80033a6:	f7fd f8a3 	bl	80004f0 <HAL_TIM_PWM_Init>
 80033aa:	b108      	cbz	r0, 80033b0 <main+0x220>
 80033ac:	b672      	cpsid	i
 80033ae:	e7fe      	b.n	80033ae <main+0x21e>
 80033b0:	e9cd 0007 	strd	r0, r0, [sp, #28]
 80033b4:	a907      	add	r1, sp, #28
 80033b6:	4630      	mov	r0, r6
 80033b8:	f7fd f94a 	bl	8000650 <HAL_TIMEx_MasterConfigSynchronization>
 80033bc:	4602      	mov	r2, r0
 80033be:	b108      	cbz	r0, 80033c4 <main+0x234>
 80033c0:	b672      	cpsid	i
 80033c2:	e7fe      	b.n	80033c2 <main+0x232>
 80033c4:	2160      	movs	r1, #96	@ 0x60
 80033c6:	f44f 73fa 	mov.w	r3, #500	@ 0x1f4
 80033ca:	e9cd 000b 	strd	r0, r0, [sp, #44]	@ 0x2c
 80033ce:	e9cd 1309 	strd	r1, r3, [sp, #36]	@ 0x24
 80033d2:	e9cd 000d 	strd	r0, r0, [sp, #52]	@ 0x34
 80033d6:	900f      	str	r0, [sp, #60]	@ 0x3c
 80033d8:	a909      	add	r1, sp, #36	@ 0x24
 80033da:	4630      	mov	r0, r6
 80033dc:	f7fd f8e0 	bl	80005a0 <HAL_TIM_PWM_ConfigChannel>
 80033e0:	b108      	cbz	r0, 80033e6 <main+0x256>
 80033e2:	b672      	cpsid	i
 80033e4:	e7fe      	b.n	80033e4 <main+0x254>
 80033e6:	f44f 5300 	mov.w	r3, #8192	@ 0x2000
 80033ea:	e9cd 0010 	strd	r0, r0, [sp, #64]	@ 0x40
 80033ee:	e9cd 0012 	strd	r0, r0, [sp, #72]	@ 0x48
 80033f2:	9014      	str	r0, [sp, #80]	@ 0x50
 80033f4:	9017      	str	r0, [sp, #92]	@ 0x5c
 80033f6:	a910      	add	r1, sp, #64	@ 0x40
 80033f8:	4630      	mov	r0, r6
 80033fa:	9315      	str	r3, [sp, #84]	@ 0x54
 80033fc:	f7fd f956 	bl	80006ac <HAL_TIMEx_ConfigBreakDeadTime>
 8003400:	4683      	mov	fp, r0
 8003402:	b108      	cbz	r0, 8003408 <main+0x278>
 8003404:	b672      	cpsid	i
 8003406:	e7fe      	b.n	8003406 <main+0x276>
 8003408:	4630      	mov	r0, r6
 800340a:	f000 f9c9 	bl	80037a0 <HAL_TIM_MspPostInit>
 800340e:	f44f 5316 	mov.w	r3, #9600	@ 0x2580
 8003412:	4814      	ldr	r0, [pc, #80]	@ (8003464 <main+0x2d4>)
 8003414:	4a14      	ldr	r2, [pc, #80]	@ (8003468 <main+0x2d8>)
 8003416:	e9c0 ba04 	strd	fp, sl, [r0, #16]
 800341a:	e9c0 2300 	strd	r2, r3, [r0]
 800341e:	e9c0 bb02 	strd	fp, fp, [r0, #8]
 8003422:	e9c0 bb06 	strd	fp, fp, [r0, #24]
 8003426:	f7fe ff75 	bl	8002314 <HAL_UART_Init>
 800342a:	4682      	mov	sl, r0
 800342c:	b1f0      	cbz	r0, 800346c <main+0x2dc>
 800342e:	b672      	cpsid	i
 8003430:	e7fe      	b.n	8003430 <main+0x2a0>
 8003432:	bf00      	nop
 8003434:	40021000 	.word	0x40021000
 8003438:	40011000 	.word	0x40011000
 800343c:	40010800 	.word	0x40010800
 8003440:	40010c00 	.word	0x40010c00
 8003444:	200005c8 	.word	0x200005c8
 8003448:	40013000 	.word	0x40013000
 800344c:	20000620 	.word	0x20000620
 8003450:	40012400 	.word	0x40012400
 8003454:	200004f4 	.word	0x200004f4
 8003458:	40004400 	.word	0x40004400
 800345c:	2000053c 	.word	0x2000053c
 8003460:	40012c00 	.word	0x40012c00
 8003464:	200004ac 	.word	0x200004ac
 8003468:	40004800 	.word	0x40004800
 800346c:	f000 fd2c 	bl	8003ec8 <LCD_init>
 8003470:	f44f 63fa 	mov.w	r3, #2000	@ 0x7d0
 8003474:	4e1c      	ldr	r6, [pc, #112]	@ (80034e8 <main+0x358>)
 8003476:	4649      	mov	r1, r9
 8003478:	8033      	strh	r3, [r6, #0]
 800347a:	8073      	strh	r3, [r6, #2]
 800347c:	80f3      	strh	r3, [r6, #6]
 800347e:	8133      	strh	r3, [r6, #8]
 8003480:	f240 1301 	movw	r3, #257	@ 0x101
 8003484:	4620      	mov	r0, r4
 8003486:	81b3      	strh	r3, [r6, #12]
 8003488:	81f3      	strh	r3, [r6, #14]
 800348a:	72f5      	strb	r5, [r6, #11]
 800348c:	7435      	strb	r5, [r6, #16]
 800348e:	f7ff fde6 	bl	800305e <ADC_SetActiveChannel>
 8003492:	4620      	mov	r0, r4
 8003494:	f7fd fa94 	bl	80009c0 <HAL_ADC_Start>
 8003498:	4649      	mov	r1, r9
 800349a:	4620      	mov	r0, r4
 800349c:	f7fd f92e 	bl	80006fc <HAL_ADC_PollForConversion>
 80034a0:	4620      	mov	r0, r4
 80034a2:	f7fd f9cf 	bl	8000844 <HAL_ADC_GetValue>
 80034a6:	4653      	mov	r3, sl
 80034a8:	8270      	strh	r0, [r6, #18]
 80034aa:	f44f 7280 	mov.w	r2, #256	@ 0x100
 80034ae:	490f      	ldr	r1, [pc, #60]	@ (80034ec <main+0x35c>)
 80034b0:	e9cd 5a00 	strd	r5, sl, [sp]
 80034b4:	480e      	ldr	r0, [pc, #56]	@ (80034f0 <main+0x360>)
 80034b6:	f002 f925 	bl	8005704 <xTaskCreate>
 80034ba:	4b0e      	ldr	r3, [pc, #56]	@ (80034f4 <main+0x364>)
 80034bc:	f44f 7280 	mov.w	r2, #256	@ 0x100
 80034c0:	e9cd 8300 	strd	r8, r3, [sp]
 80034c4:	490c      	ldr	r1, [pc, #48]	@ (80034f8 <main+0x368>)
 80034c6:	4653      	mov	r3, sl
 80034c8:	480c      	ldr	r0, [pc, #48]	@ (80034fc <main+0x36c>)
 80034ca:	f002 f91b 	bl	8005704 <xTaskCreate>
 80034ce:	4653      	mov	r3, sl
 80034d0:	f44f 7280 	mov.w	r2, #256	@ 0x100
 80034d4:	490a      	ldr	r1, [pc, #40]	@ (8003500 <main+0x370>)
 80034d6:	e9cd 7a00 	strd	r7, sl, [sp]
 80034da:	480a      	ldr	r0, [pc, #40]	@ (8003504 <main+0x374>)
 80034dc:	f002 f912 	bl	8005704 <xTaskCreate>
 80034e0:	f002 f942 	bl	8005768 <vTaskStartScheduler>
 80034e4:	e7fe      	b.n	80034e4 <main+0x354>
 80034e6:	bf00      	nop
 80034e8:	20000496 	.word	0x20000496
 80034ec:	08007500 	.word	0x08007500
 80034f0:	080029ad 	.word	0x080029ad
 80034f4:	200000e0 	.word	0x200000e0
 80034f8:	08007505 	.word	0x08007505
 80034fc:	08002d75 	.word	0x08002d75
 8003500:	08007512 	.word	0x08007512
 8003504:	0800307d 	.word	0x0800307d

08003508 <vApplicationGetIdleTaskMemory>:
 8003508:	4b03      	ldr	r3, [pc, #12]	@ (8003518 <vApplicationGetIdleTaskMemory+0x10>)
 800350a:	6003      	str	r3, [r0, #0]
 800350c:	4b03      	ldr	r3, [pc, #12]	@ (800351c <vApplicationGetIdleTaskMemory+0x14>)
 800350e:	600b      	str	r3, [r1, #0]
 8003510:	2380      	movs	r3, #128	@ 0x80
 8003512:	6013      	str	r3, [r2, #0]
 8003514:	4770      	bx	lr
 8003516:	bf00      	nop
 8003518:	200002e8 	.word	0x200002e8
 800351c:	200000e8 	.word	0x200000e8

08003520 <HAL_UART_TxCpltCallback>:
 8003520:	f002 bb3e 	b.w	8005ba0 <ESP8266_UART_TxCpltCallback>

08003524 <HAL_UART_RxCpltCallback>:
 8003524:	f002 bb48 	b.w	8005bb8 <ESP8266_UART_RxCpltCallback>

08003528 <HAL_TIM_PeriodElapsedCallback>:
 8003528:	6803      	ldr	r3, [r0, #0]
 800352a:	f1b3 4f80 	cmp.w	r3, #1073741824	@ 0x40000000
 800352e:	d101      	bne.n	8003534 <HAL_TIM_PeriodElapsedCallback+0xc>
 8003530:	f7fd bbd0 	b.w	8000cd4 <HAL_IncTick>
 8003534:	4770      	bx	lr

08003536 <Error_Handler>:
 8003536:	b672      	cpsid	i
 8003538:	e7fe      	b.n	8003538 <Error_Handler+0x2>

0800353a <NMI_Handler>:
 800353a:	e7fe      	b.n	800353a <NMI_Handler>

0800353c <HardFault_Handler>:
 800353c:	e7fe      	b.n	800353c <HardFault_Handler>

0800353e <MemManage_Handler>:
 800353e:	e7fe      	b.n	800353e <MemManage_Handler>

08003540 <BusFault_Handler>:
 8003540:	e7fe      	b.n	8003540 <BusFault_Handler>

08003542 <UsageFault_Handler>:
 8003542:	e7fe      	b.n	8003542 <UsageFault_Handler>

08003544 <DebugMon_Handler>:
 8003544:	4770      	bx	lr
	...

08003548 <DMA1_Channel3_IRQHandler>:
 8003548:	4801      	ldr	r0, [pc, #4]	@ (8003550 <DMA1_Channel3_IRQHandler+0x8>)
 800354a:	f7fe ba19 	b.w	8001980 <HAL_DMA_IRQHandler>
 800354e:	bf00      	nop
 8003550:	20000584 	.word	0x20000584

08003554 <TIM2_IRQHandler>:
 8003554:	4801      	ldr	r0, [pc, #4]	@ (800355c <TIM2_IRQHandler+0x8>)
 8003556:	f7fc bed8 	b.w	800030a <HAL_TIM_IRQHandler>
 800355a:	bf00      	nop
 800355c:	20000650 	.word	0x20000650

08003560 <USART3_IRQHandler>:
 8003560:	4801      	ldr	r0, [pc, #4]	@ (8003568 <USART3_IRQHandler+0x8>)
 8003562:	f7fe bf9f 	b.w	80024a4 <HAL_UART_IRQHandler>
 8003566:	bf00      	nop
 8003568:	200004ac 	.word	0x200004ac

0800356c <HAL_MspInit>:
 800356c:	4b0e      	ldr	r3, [pc, #56]	@ (80035a8 <HAL_MspInit+0x3c>)
 800356e:	b082      	sub	sp, #8
 8003570:	699a      	ldr	r2, [r3, #24]
 8003572:	f042 0201 	orr.w	r2, r2, #1
 8003576:	619a      	str	r2, [r3, #24]
 8003578:	699a      	ldr	r2, [r3, #24]
 800357a:	f002 0201 	and.w	r2, r2, #1
 800357e:	9200      	str	r2, [sp, #0]
 8003580:	9a00      	ldr	r2, [sp, #0]
 8003582:	69da      	ldr	r2, [r3, #28]
 8003584:	f042 5280 	orr.w	r2, r2, #268435456	@ 0x10000000
 8003588:	61da      	str	r2, [r3, #28]
 800358a:	69db      	ldr	r3, [r3, #28]
 800358c:	4a07      	ldr	r2, [pc, #28]	@ (80035ac <HAL_MspInit+0x40>)
 800358e:	f003 5380 	and.w	r3, r3, #268435456	@ 0x10000000
 8003592:	9301      	str	r3, [sp, #4]
 8003594:	9b01      	ldr	r3, [sp, #4]
 8003596:	6853      	ldr	r3, [r2, #4]
 8003598:	f023 63e0 	bic.w	r3, r3, #117440512	@ 0x7000000
 800359c:	f043 7300 	orr.w	r3, r3, #33554432	@ 0x2000000
 80035a0:	6053      	str	r3, [r2, #4]
 80035a2:	b002      	add	sp, #8
 80035a4:	4770      	bx	lr
 80035a6:	bf00      	nop
 80035a8:	40021000 	.word	0x40021000
 80035ac:	40010000 	.word	0x40010000

080035b0 <HAL_ADC_MspInit>:
 80035b0:	2210      	movs	r2, #16
 80035b2:	b510      	push	{r4, lr}
 80035b4:	4604      	mov	r4, r0
 80035b6:	b088      	sub	sp, #32
 80035b8:	eb0d 0002 	add.w	r0, sp, r2
 80035bc:	2100      	movs	r1, #0
 80035be:	f002 fe64 	bl	800628a <memset>
 80035c2:	6822      	ldr	r2, [r4, #0]
 80035c4:	4b1f      	ldr	r3, [pc, #124]	@ (8003644 <HAL_ADC_MspInit+0x94>)
 80035c6:	429a      	cmp	r2, r3
 80035c8:	d13a      	bne.n	8003640 <HAL_ADC_MspInit+0x90>
 80035ca:	f503 436c 	add.w	r3, r3, #60416	@ 0xec00
 80035ce:	699a      	ldr	r2, [r3, #24]
 80035d0:	2403      	movs	r4, #3
 80035d2:	f442 7200 	orr.w	r2, r2, #512	@ 0x200
 80035d6:	619a      	str	r2, [r3, #24]
 80035d8:	699a      	ldr	r2, [r3, #24]
 80035da:	481b      	ldr	r0, [pc, #108]	@ (8003648 <HAL_ADC_MspInit+0x98>)
 80035dc:	f402 7200 	and.w	r2, r2, #512	@ 0x200
 80035e0:	9200      	str	r2, [sp, #0]
 80035e2:	9a00      	ldr	r2, [sp, #0]
 80035e4:	699a      	ldr	r2, [r3, #24]
 80035e6:	a904      	add	r1, sp, #16
 80035e8:	f042 0210 	orr.w	r2, r2, #16
 80035ec:	619a      	str	r2, [r3, #24]
 80035ee:	699a      	ldr	r2, [r3, #24]
 80035f0:	f002 0210 	and.w	r2, r2, #16
 80035f4:	9201      	str	r2, [sp, #4]
 80035f6:	9a01      	ldr	r2, [sp, #4]
 80035f8:	699a      	ldr	r2, [r3, #24]
 80035fa:	f042 0204 	orr.w	r2, r2, #4
 80035fe:	619a      	str	r2, [r3, #24]
 8003600:	699a      	ldr	r2, [r3, #24]
 8003602:	f002 0204 	and.w	r2, r2, #4
 8003606:	9202      	str	r2, [sp, #8]
 8003608:	9a02      	ldr	r2, [sp, #8]
 800360a:	699a      	ldr	r2, [r3, #24]
 800360c:	f042 0208 	orr.w	r2, r2, #8
 8003610:	619a      	str	r2, [r3, #24]
 8003612:	699b      	ldr	r3, [r3, #24]
 8003614:	f003 0308 	and.w	r3, r3, #8
 8003618:	9303      	str	r3, [sp, #12]
 800361a:	9b03      	ldr	r3, [sp, #12]
 800361c:	2301      	movs	r3, #1
 800361e:	e9cd 3404 	strd	r3, r4, [sp, #16]
 8003622:	f7fd ff5b 	bl	80014dc <HAL_GPIO_Init>
 8003626:	23c0      	movs	r3, #192	@ 0xc0
 8003628:	4808      	ldr	r0, [pc, #32]	@ (800364c <HAL_ADC_MspInit+0x9c>)
 800362a:	a904      	add	r1, sp, #16
 800362c:	e9cd 3404 	strd	r3, r4, [sp, #16]
 8003630:	f7fd ff54 	bl	80014dc <HAL_GPIO_Init>
 8003634:	4806      	ldr	r0, [pc, #24]	@ (8003650 <HAL_ADC_MspInit+0xa0>)
 8003636:	a904      	add	r1, sp, #16
 8003638:	e9cd 4404 	strd	r4, r4, [sp, #16]
 800363c:	f7fd ff4e 	bl	80014dc <HAL_GPIO_Init>
 8003640:	b008      	add	sp, #32
 8003642:	bd10      	pop	{r4, pc}
 8003644:	40012400 	.word	0x40012400
 8003648:	40011000 	.word	0x40011000
 800364c:	40010800 	.word	0x40010800
 8003650:	40010c00 	.word	0x40010c00

08003654 <HAL_ADC_MspDeInit>:
 8003654:	b508      	push	{r3, lr}
 8003656:	6802      	ldr	r2, [r0, #0]
 8003658:	4b0b      	ldr	r3, [pc, #44]	@ (8003688 <HAL_ADC_MspDeInit+0x34>)
 800365a:	429a      	cmp	r2, r3
 800365c:	d112      	bne.n	8003684 <HAL_ADC_MspDeInit+0x30>
 800365e:	4a0b      	ldr	r2, [pc, #44]	@ (800368c <HAL_ADC_MspDeInit+0x38>)
 8003660:	2101      	movs	r1, #1
 8003662:	6993      	ldr	r3, [r2, #24]
 8003664:	480a      	ldr	r0, [pc, #40]	@ (8003690 <HAL_ADC_MspDeInit+0x3c>)
 8003666:	f423 7300 	bic.w	r3, r3, #512	@ 0x200
 800366a:	6193      	str	r3, [r2, #24]
 800366c:	f7fe f80a 	bl	8001684 <HAL_GPIO_DeInit>
 8003670:	21c0      	movs	r1, #192	@ 0xc0
 8003672:	4808      	ldr	r0, [pc, #32]	@ (8003694 <HAL_ADC_MspDeInit+0x40>)
 8003674:	f7fe f806 	bl	8001684 <HAL_GPIO_DeInit>
 8003678:	e8bd 4008 	ldmia.w	sp!, {r3, lr}
 800367c:	2103      	movs	r1, #3
 800367e:	4806      	ldr	r0, [pc, #24]	@ (8003698 <HAL_ADC_MspDeInit+0x44>)
 8003680:	f7fe b800 	b.w	8001684 <HAL_GPIO_DeInit>
 8003684:	bd08      	pop	{r3, pc}
 8003686:	bf00      	nop
 8003688:	40012400 	.word	0x40012400
 800368c:	40021000 	.word	0x40021000
 8003690:	40011000 	.word	0x40011000
 8003694:	40010800 	.word	0x40010800
 8003698:	40010c00 	.word	0x40010c00

0800369c <HAL_SPI_MspInit>:
 800369c:	b570      	push	{r4, r5, r6, lr}
 800369e:	2610      	movs	r6, #16
 80036a0:	4605      	mov	r5, r0
 80036a2:	b086      	sub	sp, #24
 80036a4:	4632      	mov	r2, r6
 80036a6:	2100      	movs	r1, #0
 80036a8:	a802      	add	r0, sp, #8
 80036aa:	f002 fdee 	bl	800628a <memset>
 80036ae:	682a      	ldr	r2, [r5, #0]
 80036b0:	4b1e      	ldr	r3, [pc, #120]	@ (800372c <HAL_SPI_MspInit+0x90>)
 80036b2:	429a      	cmp	r2, r3
 80036b4:	d138      	bne.n	8003728 <HAL_SPI_MspInit+0x8c>
 80036b6:	f503 4360 	add.w	r3, r3, #57344	@ 0xe000
 80036ba:	699a      	ldr	r2, [r3, #24]
 80036bc:	481c      	ldr	r0, [pc, #112]	@ (8003730 <HAL_SPI_MspInit+0x94>)
 80036be:	f442 5280 	orr.w	r2, r2, #4096	@ 0x1000
 80036c2:	619a      	str	r2, [r3, #24]
 80036c4:	699a      	ldr	r2, [r3, #24]
 80036c6:	a902      	add	r1, sp, #8
 80036c8:	f402 5280 	and.w	r2, r2, #4096	@ 0x1000
 80036cc:	9200      	str	r2, [sp, #0]
 80036ce:	9a00      	ldr	r2, [sp, #0]
 80036d0:	699a      	ldr	r2, [r3, #24]
 80036d2:	4c18      	ldr	r4, [pc, #96]	@ (8003734 <HAL_SPI_MspInit+0x98>)
 80036d4:	f042 0208 	orr.w	r2, r2, #8
 80036d8:	619a      	str	r2, [r3, #24]
 80036da:	699b      	ldr	r3, [r3, #24]
 80036dc:	2228      	movs	r2, #40	@ 0x28
 80036de:	f003 0308 	and.w	r3, r3, #8
 80036e2:	9301      	str	r3, [sp, #4]
 80036e4:	9b01      	ldr	r3, [sp, #4]
 80036e6:	2302      	movs	r3, #2
 80036e8:	e9cd 2302 	strd	r2, r3, [sp, #8]
 80036ec:	2303      	movs	r3, #3
 80036ee:	9305      	str	r3, [sp, #20]
 80036f0:	f7fd fef4 	bl	80014dc <HAL_GPIO_Init>
 80036f4:	4a10      	ldr	r2, [pc, #64]	@ (8003738 <HAL_SPI_MspInit+0x9c>)
 80036f6:	4620      	mov	r0, r4
 80036f8:	6853      	ldr	r3, [r2, #4]
 80036fa:	f043 63e0 	orr.w	r3, r3, #117440512	@ 0x7000000
 80036fe:	f043 0301 	orr.w	r3, r3, #1
 8003702:	6053      	str	r3, [r2, #4]
 8003704:	4b0d      	ldr	r3, [pc, #52]	@ (800373c <HAL_SPI_MspInit+0xa0>)
 8003706:	2280      	movs	r2, #128	@ 0x80
 8003708:	e9c4 3600 	strd	r3, r6, [r4]
 800370c:	2300      	movs	r3, #0
 800370e:	e9c4 3202 	strd	r3, r2, [r4, #8]
 8003712:	e9c4 3304 	strd	r3, r3, [r4, #16]
 8003716:	e9c4 3306 	strd	r3, r3, [r4, #24]
 800371a:	f7fe f835 	bl	8001788 <HAL_DMA_Init>
 800371e:	b108      	cbz	r0, 8003724 <HAL_SPI_MspInit+0x88>
 8003720:	f7ff ff09 	bl	8003536 <Error_Handler>
 8003724:	64ac      	str	r4, [r5, #72]	@ 0x48
 8003726:	6265      	str	r5, [r4, #36]	@ 0x24
 8003728:	b006      	add	sp, #24
 800372a:	bd70      	pop	{r4, r5, r6, pc}
 800372c:	40013000 	.word	0x40013000
 8003730:	40010c00 	.word	0x40010c00
 8003734:	20000584 	.word	0x20000584
 8003738:	40010000 	.word	0x40010000
 800373c:	40020030 	.word	0x40020030

08003740 <HAL_SPI_MspDeInit>:
 8003740:	6802      	ldr	r2, [r0, #0]
 8003742:	4b0a      	ldr	r3, [pc, #40]	@ (800376c <HAL_SPI_MspDeInit+0x2c>)
 8003744:	b510      	push	{r4, lr}
 8003746:	429a      	cmp	r2, r3
 8003748:	4604      	mov	r4, r0
 800374a:	d10d      	bne.n	8003768 <HAL_SPI_MspDeInit+0x28>
 800374c:	4a08      	ldr	r2, [pc, #32]	@ (8003770 <HAL_SPI_MspDeInit+0x30>)
 800374e:	4809      	ldr	r0, [pc, #36]	@ (8003774 <HAL_SPI_MspDeInit+0x34>)
 8003750:	6993      	ldr	r3, [r2, #24]
 8003752:	2128      	movs	r1, #40	@ 0x28
 8003754:	f423 5380 	bic.w	r3, r3, #4096	@ 0x1000
 8003758:	6193      	str	r3, [r2, #24]
 800375a:	f7fd ff93 	bl	8001684 <HAL_GPIO_DeInit>
 800375e:	6ca0      	ldr	r0, [r4, #72]	@ 0x48
 8003760:	e8bd 4010 	ldmia.w	sp!, {r4, lr}
 8003764:	f7fe b840 	b.w	80017e8 <HAL_DMA_DeInit>
 8003768:	bd10      	pop	{r4, pc}
 800376a:	bf00      	nop
 800376c:	40013000 	.word	0x40013000
 8003770:	40021000 	.word	0x40021000
 8003774:	40010c00 	.word	0x40010c00

08003778 <HAL_TIM_PWM_MspInit>:
 8003778:	6802      	ldr	r2, [r0, #0]
 800377a:	4b08      	ldr	r3, [pc, #32]	@ (800379c <HAL_TIM_PWM_MspInit+0x24>)
 800377c:	b082      	sub	sp, #8
 800377e:	429a      	cmp	r2, r3
 8003780:	d10a      	bne.n	8003798 <HAL_TIM_PWM_MspInit+0x20>
 8003782:	f503 4364 	add.w	r3, r3, #58368	@ 0xe400
 8003786:	699a      	ldr	r2, [r3, #24]
 8003788:	f442 6200 	orr.w	r2, r2, #2048	@ 0x800
 800378c:	619a      	str	r2, [r3, #24]
 800378e:	699b      	ldr	r3, [r3, #24]
 8003790:	f403 6300 	and.w	r3, r3, #2048	@ 0x800
 8003794:	9301      	str	r3, [sp, #4]
 8003796:	9b01      	ldr	r3, [sp, #4]
 8003798:	b002      	add	sp, #8
 800379a:	4770      	bx	lr
 800379c:	40012c00 	.word	0x40012c00

080037a0 <HAL_TIM_MspPostInit>:
 80037a0:	b510      	push	{r4, lr}
 80037a2:	4604      	mov	r4, r0
 80037a4:	b086      	sub	sp, #24
 80037a6:	2210      	movs	r2, #16
 80037a8:	2100      	movs	r1, #0
 80037aa:	a802      	add	r0, sp, #8
 80037ac:	f002 fd6d 	bl	800628a <memset>
 80037b0:	6822      	ldr	r2, [r4, #0]
 80037b2:	4b0d      	ldr	r3, [pc, #52]	@ (80037e8 <HAL_TIM_MspPostInit+0x48>)
 80037b4:	429a      	cmp	r2, r3
 80037b6:	d114      	bne.n	80037e2 <HAL_TIM_MspPostInit+0x42>
 80037b8:	f503 4364 	add.w	r3, r3, #58368	@ 0xe400
 80037bc:	699a      	ldr	r2, [r3, #24]
 80037be:	480b      	ldr	r0, [pc, #44]	@ (80037ec <HAL_TIM_MspPostInit+0x4c>)
 80037c0:	f042 0204 	orr.w	r2, r2, #4
 80037c4:	619a      	str	r2, [r3, #24]
 80037c6:	699b      	ldr	r3, [r3, #24]
 80037c8:	f44f 7280 	mov.w	r2, #256	@ 0x100
 80037cc:	f003 0304 	and.w	r3, r3, #4
 80037d0:	9301      	str	r3, [sp, #4]
 80037d2:	9b01      	ldr	r3, [sp, #4]
 80037d4:	2302      	movs	r3, #2
 80037d6:	a902      	add	r1, sp, #8
 80037d8:	e9cd 2302 	strd	r2, r3, [sp, #8]
 80037dc:	9305      	str	r3, [sp, #20]
 80037de:	f7fd fe7d 	bl	80014dc <HAL_GPIO_Init>
 80037e2:	b006      	add	sp, #24
 80037e4:	bd10      	pop	{r4, pc}
 80037e6:	bf00      	nop
 80037e8:	40012c00 	.word	0x40012c00
 80037ec:	40010800 	.word	0x40010800

080037f0 <HAL_TIM_PWM_MspDeInit>:
 80037f0:	6802      	ldr	r2, [r0, #0]
 80037f2:	4b04      	ldr	r3, [pc, #16]	@ (8003804 <HAL_TIM_PWM_MspDeInit+0x14>)
 80037f4:	429a      	cmp	r2, r3
 80037f6:	bf01      	itttt	eq
 80037f8:	4a03      	ldreq	r2, [pc, #12]	@ (8003808 <HAL_TIM_PWM_MspDeInit+0x18>)
 80037fa:	6993      	ldreq	r3, [r2, #24]
 80037fc:	f423 6300 	biceq.w	r3, r3, #2048	@ 0x800
 8003800:	6193      	streq	r3, [r2, #24]
 8003802:	4770      	bx	lr
 8003804:	40012c00 	.word	0x40012c00
 8003808:	40021000 	.word	0x40021000

0800380c <HAL_UART_MspInit>:
 800380c:	2210      	movs	r2, #16
 800380e:	b510      	push	{r4, lr}
 8003810:	4604      	mov	r4, r0
 8003812:	b088      	sub	sp, #32
 8003814:	eb0d 0002 	add.w	r0, sp, r2
 8003818:	2100      	movs	r1, #0
 800381a:	f002 fd36 	bl	800628a <memset>
 800381e:	6823      	ldr	r3, [r4, #0]
 8003820:	4a2f      	ldr	r2, [pc, #188]	@ (80038e0 <HAL_UART_MspInit+0xd4>)
 8003822:	4293      	cmp	r3, r2
 8003824:	d127      	bne.n	8003876 <HAL_UART_MspInit+0x6a>
 8003826:	4b2f      	ldr	r3, [pc, #188]	@ (80038e4 <HAL_UART_MspInit+0xd8>)
 8003828:	2104      	movs	r1, #4
 800382a:	69da      	ldr	r2, [r3, #28]
 800382c:	482e      	ldr	r0, [pc, #184]	@ (80038e8 <HAL_UART_MspInit+0xdc>)
 800382e:	f442 3200 	orr.w	r2, r2, #131072	@ 0x20000
 8003832:	61da      	str	r2, [r3, #28]
 8003834:	69da      	ldr	r2, [r3, #28]
 8003836:	f402 3200 	and.w	r2, r2, #131072	@ 0x20000
 800383a:	9200      	str	r2, [sp, #0]
 800383c:	9a00      	ldr	r2, [sp, #0]
 800383e:	699a      	ldr	r2, [r3, #24]
 8003840:	f042 0204 	orr.w	r2, r2, #4
 8003844:	619a      	str	r2, [r3, #24]
 8003846:	699b      	ldr	r3, [r3, #24]
 8003848:	f003 0304 	and.w	r3, r3, #4
 800384c:	9301      	str	r3, [sp, #4]
 800384e:	9b01      	ldr	r3, [sp, #4]
 8003850:	2302      	movs	r3, #2
 8003852:	e9cd 1304 	strd	r1, r3, [sp, #16]
 8003856:	2303      	movs	r3, #3
 8003858:	a904      	add	r1, sp, #16
 800385a:	9307      	str	r3, [sp, #28]
 800385c:	f7fd fe3e 	bl	80014dc <HAL_GPIO_Init>
 8003860:	2008      	movs	r0, #8
 8003862:	2300      	movs	r3, #0
 8003864:	a904      	add	r1, sp, #16
 8003866:	e9cd 0304 	strd	r0, r3, [sp, #16]
 800386a:	481f      	ldr	r0, [pc, #124]	@ (80038e8 <HAL_UART_MspInit+0xdc>)
 800386c:	9306      	str	r3, [sp, #24]
 800386e:	f7fd fe35 	bl	80014dc <HAL_GPIO_Init>
 8003872:	b008      	add	sp, #32
 8003874:	bd10      	pop	{r4, pc}
 8003876:	4a1d      	ldr	r2, [pc, #116]	@ (80038ec <HAL_UART_MspInit+0xe0>)
 8003878:	4293      	cmp	r3, r2
 800387a:	d1fa      	bne.n	8003872 <HAL_UART_MspInit+0x66>
 800387c:	4b19      	ldr	r3, [pc, #100]	@ (80038e4 <HAL_UART_MspInit+0xd8>)
 800387e:	a904      	add	r1, sp, #16
 8003880:	69da      	ldr	r2, [r3, #28]
 8003882:	481b      	ldr	r0, [pc, #108]	@ (80038f0 <HAL_UART_MspInit+0xe4>)
 8003884:	f442 2280 	orr.w	r2, r2, #262144	@ 0x40000
 8003888:	61da      	str	r2, [r3, #28]
 800388a:	69da      	ldr	r2, [r3, #28]
 800388c:	2400      	movs	r4, #0
 800388e:	f402 2280 	and.w	r2, r2, #262144	@ 0x40000
 8003892:	9202      	str	r2, [sp, #8]
 8003894:	9a02      	ldr	r2, [sp, #8]
 8003896:	699a      	ldr	r2, [r3, #24]
 8003898:	f042 0208 	orr.w	r2, r2, #8
 800389c:	619a      	str	r2, [r3, #24]
 800389e:	699b      	ldr	r3, [r3, #24]
 80038a0:	f44f 6280 	mov.w	r2, #1024	@ 0x400
 80038a4:	f003 0308 	and.w	r3, r3, #8
 80038a8:	9303      	str	r3, [sp, #12]
 80038aa:	9b03      	ldr	r3, [sp, #12]
 80038ac:	2302      	movs	r3, #2
 80038ae:	e9cd 2304 	strd	r2, r3, [sp, #16]
 80038b2:	2303      	movs	r3, #3
 80038b4:	9307      	str	r3, [sp, #28]
 80038b6:	f7fd fe11 	bl	80014dc <HAL_GPIO_Init>
 80038ba:	f44f 6300 	mov.w	r3, #2048	@ 0x800
 80038be:	a904      	add	r1, sp, #16
 80038c0:	480b      	ldr	r0, [pc, #44]	@ (80038f0 <HAL_UART_MspInit+0xe4>)
 80038c2:	e9cd 3404 	strd	r3, r4, [sp, #16]
 80038c6:	9406      	str	r4, [sp, #24]
 80038c8:	f7fd fe08 	bl	80014dc <HAL_GPIO_Init>
 80038cc:	4622      	mov	r2, r4
 80038ce:	4621      	mov	r1, r4
 80038d0:	2027      	movs	r0, #39	@ 0x27
 80038d2:	f7fe f8ff 	bl	8001ad4 <HAL_NVIC_SetPriority>
 80038d6:	2027      	movs	r0, #39	@ 0x27
 80038d8:	f7fe f92c 	bl	8001b34 <HAL_NVIC_EnableIRQ>
 80038dc:	e7c9      	b.n	8003872 <HAL_UART_MspInit+0x66>
 80038de:	bf00      	nop
 80038e0:	40004400 	.word	0x40004400
 80038e4:	40021000 	.word	0x40021000
 80038e8:	40010800 	.word	0x40010800
 80038ec:	40004800 	.word	0x40004800
 80038f0:	40010c00 	.word	0x40010c00

080038f4 <HAL_UART_MspDeInit>:
 80038f4:	b508      	push	{r3, lr}
 80038f6:	4a12      	ldr	r2, [pc, #72]	@ (8003940 <HAL_UART_MspDeInit+0x4c>)
 80038f8:	6803      	ldr	r3, [r0, #0]
 80038fa:	4293      	cmp	r3, r2
 80038fc:	d10b      	bne.n	8003916 <HAL_UART_MspDeInit+0x22>
 80038fe:	f502 32e6 	add.w	r2, r2, #117760	@ 0x1cc00
 8003902:	69d3      	ldr	r3, [r2, #28]
 8003904:	210c      	movs	r1, #12
 8003906:	f423 3300 	bic.w	r3, r3, #131072	@ 0x20000
 800390a:	61d3      	str	r3, [r2, #28]
 800390c:	480d      	ldr	r0, [pc, #52]	@ (8003944 <HAL_UART_MspDeInit+0x50>)
 800390e:	e8bd 4008 	ldmia.w	sp!, {r3, lr}
 8003912:	f7fd beb7 	b.w	8001684 <HAL_GPIO_DeInit>
 8003916:	4a0c      	ldr	r2, [pc, #48]	@ (8003948 <HAL_UART_MspDeInit+0x54>)
 8003918:	4293      	cmp	r3, r2
 800391a:	d10f      	bne.n	800393c <HAL_UART_MspDeInit+0x48>
 800391c:	f502 32e4 	add.w	r2, r2, #116736	@ 0x1c800
 8003920:	69d3      	ldr	r3, [r2, #28]
 8003922:	480a      	ldr	r0, [pc, #40]	@ (800394c <HAL_UART_MspDeInit+0x58>)
 8003924:	f423 2380 	bic.w	r3, r3, #262144	@ 0x40000
 8003928:	61d3      	str	r3, [r2, #28]
 800392a:	f44f 6140 	mov.w	r1, #3072	@ 0xc00
 800392e:	f7fd fea9 	bl	8001684 <HAL_GPIO_DeInit>
 8003932:	e8bd 4008 	ldmia.w	sp!, {r3, lr}
 8003936:	2027      	movs	r0, #39	@ 0x27
 8003938:	f7fe b90a 	b.w	8001b50 <HAL_NVIC_DisableIRQ>
 800393c:	bd08      	pop	{r3, pc}
 800393e:	bf00      	nop
 8003940:	40004400 	.word	0x40004400
 8003944:	40010800 	.word	0x40010800
 8003948:	40004800 	.word	0x40004800
 800394c:	40010c00 	.word	0x40010c00

08003950 <HAL_InitTick>:
 8003950:	b570      	push	{r4, r5, r6, lr}
 8003952:	4b21      	ldr	r3, [pc, #132]	@ (80039d8 <HAL_InitTick+0x88>)
 8003954:	b088      	sub	sp, #32
 8003956:	69da      	ldr	r2, [r3, #28]
 8003958:	4605      	mov	r5, r0
 800395a:	f042 0201 	orr.w	r2, r2, #1
 800395e:	61da      	str	r2, [r3, #28]
 8003960:	69db      	ldr	r3, [r3, #28]
 8003962:	a901      	add	r1, sp, #4
 8003964:	f003 0301 	and.w	r3, r3, #1
 8003968:	9302      	str	r3, [sp, #8]
 800396a:	a803      	add	r0, sp, #12
 800396c:	9b02      	ldr	r3, [sp, #8]
 800396e:	f7fd fcbf 	bl	80012f0 <HAL_RCC_GetClockConfig>
 8003972:	9b06      	ldr	r3, [sp, #24]
 8003974:	bb53      	cbnz	r3, 80039cc <HAL_InitTick+0x7c>
 8003976:	f7fd fc9b 	bl	80012b0 <HAL_RCC_GetPCLK1Freq>
 800397a:	f04f 4380 	mov.w	r3, #1073741824	@ 0x40000000
 800397e:	4e17      	ldr	r6, [pc, #92]	@ (80039dc <HAL_InitTick+0x8c>)
 8003980:	6033      	str	r3, [r6, #0]
 8003982:	f240 33e7 	movw	r3, #999	@ 0x3e7
 8003986:	60f3      	str	r3, [r6, #12]
 8003988:	4b15      	ldr	r3, [pc, #84]	@ (80039e0 <HAL_InitTick+0x90>)
 800398a:	fbb0 f3f3 	udiv	r3, r0, r3
 800398e:	3b01      	subs	r3, #1
 8003990:	6073      	str	r3, [r6, #4]
 8003992:	2300      	movs	r3, #0
 8003994:	4630      	mov	r0, r6
 8003996:	6133      	str	r3, [r6, #16]
 8003998:	60b3      	str	r3, [r6, #8]
 800399a:	61b3      	str	r3, [r6, #24]
 800399c:	f7fc fd7c 	bl	8000498 <HAL_TIM_Base_Init>
 80039a0:	4604      	mov	r4, r0
 80039a2:	b980      	cbnz	r0, 80039c6 <HAL_InitTick+0x76>
 80039a4:	4630      	mov	r0, r6
 80039a6:	f7fc fc53 	bl	8000250 <HAL_TIM_Base_Start_IT>
 80039aa:	4604      	mov	r4, r0
 80039ac:	b958      	cbnz	r0, 80039c6 <HAL_InitTick+0x76>
 80039ae:	201c      	movs	r0, #28
 80039b0:	f7fe f8c0 	bl	8001b34 <HAL_NVIC_EnableIRQ>
 80039b4:	2d0f      	cmp	r5, #15
 80039b6:	d80d      	bhi.n	80039d4 <HAL_InitTick+0x84>
 80039b8:	4622      	mov	r2, r4
 80039ba:	4629      	mov	r1, r5
 80039bc:	201c      	movs	r0, #28
 80039be:	f7fe f889 	bl	8001ad4 <HAL_NVIC_SetPriority>
 80039c2:	4b08      	ldr	r3, [pc, #32]	@ (80039e4 <HAL_InitTick+0x94>)
 80039c4:	601d      	str	r5, [r3, #0]
 80039c6:	4620      	mov	r0, r4
 80039c8:	b008      	add	sp, #32
 80039ca:	bd70      	pop	{r4, r5, r6, pc}
 80039cc:	f7fd fc70 	bl	80012b0 <HAL_RCC_GetPCLK1Freq>
 80039d0:	0040      	lsls	r0, r0, #1
 80039d2:	e7d2      	b.n	800397a <HAL_InitTick+0x2a>
 80039d4:	2401      	movs	r4, #1
 80039d6:	e7f6      	b.n	80039c6 <HAL_InitTick+0x76>
 80039d8:	40021000 	.word	0x40021000
 80039dc:	20000650 	.word	0x20000650
 80039e0:	000f4240 	.word	0x000f4240
 80039e4:	20000008 	.word	0x20000008

080039e8 <_sbrk>:
 80039e8:	4a0b      	ldr	r2, [pc, #44]	@ (8003a18 <_sbrk+0x30>)
 80039ea:	4603      	mov	r3, r0
 80039ec:	6811      	ldr	r1, [r2, #0]
 80039ee:	b510      	push	{r4, lr}
 80039f0:	b909      	cbnz	r1, 80039f6 <_sbrk+0xe>
 80039f2:	490a      	ldr	r1, [pc, #40]	@ (8003a1c <_sbrk+0x34>)
 80039f4:	6011      	str	r1, [r2, #0]
 80039f6:	6810      	ldr	r0, [r2, #0]
 80039f8:	4909      	ldr	r1, [pc, #36]	@ (8003a20 <_sbrk+0x38>)
 80039fa:	4c0a      	ldr	r4, [pc, #40]	@ (8003a24 <_sbrk+0x3c>)
 80039fc:	4403      	add	r3, r0
 80039fe:	1b09      	subs	r1, r1, r4
 8003a00:	428b      	cmp	r3, r1
 8003a02:	d906      	bls.n	8003a12 <_sbrk+0x2a>
 8003a04:	f002 fd7e 	bl	8006504 <__errno>
 8003a08:	230c      	movs	r3, #12
 8003a0a:	6003      	str	r3, [r0, #0]
 8003a0c:	f04f 30ff 	mov.w	r0, #4294967295
 8003a10:	bd10      	pop	{r4, pc}
 8003a12:	6013      	str	r3, [r2, #0]
 8003a14:	e7fc      	b.n	8003a10 <_sbrk+0x28>
 8003a16:	bf00      	nop
 8003a18:	20000698 	.word	0x20000698
 8003a1c:	20004110 	.word	0x20004110
 8003a20:	20005000 	.word	0x20005000
 8003a24:	00000400 	.word	0x00000400

08003a28 <_getpid>:
 8003a28:	2001      	movs	r0, #1
 8003a2a:	4770      	bx	lr

08003a2c <_kill>:
 8003a2c:	b508      	push	{r3, lr}
 8003a2e:	f002 fd69 	bl	8006504 <__errno>
 8003a32:	2316      	movs	r3, #22
 8003a34:	6003      	str	r3, [r0, #0]
 8003a36:	f04f 30ff 	mov.w	r0, #4294967295
 8003a3a:	bd08      	pop	{r3, pc}

08003a3c <_exit>:
 8003a3c:	b508      	push	{r3, lr}
 8003a3e:	f002 fd61 	bl	8006504 <__errno>
 8003a42:	2316      	movs	r3, #22
 8003a44:	6003      	str	r3, [r0, #0]
 8003a46:	e7fe      	b.n	8003a46 <_exit+0xa>

08003a48 <_read>:
 8003a48:	b570      	push	{r4, r5, r6, lr}
 8003a4a:	460d      	mov	r5, r1
 8003a4c:	4614      	mov	r4, r2
 8003a4e:	460e      	mov	r6, r1
 8003a50:	1b73      	subs	r3, r6, r5
 8003a52:	429c      	cmp	r4, r3
 8003a54:	dc01      	bgt.n	8003a5a <_read+0x12>
 8003a56:	4620      	mov	r0, r4
 8003a58:	bd70      	pop	{r4, r5, r6, pc}
 8003a5a:	f3af 8000 	nop.w
 8003a5e:	f806 0b01 	strb.w	r0, [r6], #1
 8003a62:	e7f5      	b.n	8003a50 <_read+0x8>

08003a64 <_write>:
 8003a64:	b570      	push	{r4, r5, r6, lr}
 8003a66:	460d      	mov	r5, r1
 8003a68:	4614      	mov	r4, r2
 8003a6a:	460e      	mov	r6, r1
 8003a6c:	1b73      	subs	r3, r6, r5
 8003a6e:	429c      	cmp	r4, r3
 8003a70:	dc01      	bgt.n	8003a76 <_write+0x12>
 8003a72:	4620      	mov	r0, r4
 8003a74:	bd70      	pop	{r4, r5, r6, pc}
 8003a76:	f816 0b01 	ldrb.w	r0, [r6], #1
 8003a7a:	f3af 8000 	nop.w
 8003a7e:	e7f5      	b.n	8003a6c <_write+0x8>

08003a80 <_close>:
 8003a80:	f04f 30ff 	mov.w	r0, #4294967295
 8003a84:	4770      	bx	lr

08003a86 <_fstat>:
 8003a86:	f44f 5300 	mov.w	r3, #8192	@ 0x2000
 8003a8a:	2000      	movs	r0, #0
 8003a8c:	604b      	str	r3, [r1, #4]
 8003a8e:	4770      	bx	lr

08003a90 <_isatty>:
 8003a90:	2001      	movs	r0, #1
 8003a92:	4770      	bx	lr

08003a94 <_lseek>:
 8003a94:	2000      	movs	r0, #0
 8003a96:	4770      	bx	lr

08003a98 <Reset_Handler>:
 8003a98:	f7fc fb62 	bl	8000160 <SystemInit>
 8003a9c:	480b      	ldr	r0, [pc, #44]	@ (8003acc <LoopFillZerobss+0xe>)
 8003a9e:	490c      	ldr	r1, [pc, #48]	@ (8003ad0 <LoopFillZerobss+0x12>)
 8003aa0:	4a0c      	ldr	r2, [pc, #48]	@ (8003ad4 <LoopFillZerobss+0x16>)
 8003aa2:	2300      	movs	r3, #0
 8003aa4:	e002      	b.n	8003aac <LoopCopyDataInit>

08003aa6 <CopyDataInit>:
 8003aa6:	58d4      	ldr	r4, [r2, r3]
 8003aa8:	50c4      	str	r4, [r0, r3]
 8003aaa:	3304      	adds	r3, #4

08003aac <LoopCopyDataInit>:
 8003aac:	18c4      	adds	r4, r0, r3
 8003aae:	428c      	cmp	r4, r1
 8003ab0:	d3f9      	bcc.n	8003aa6 <CopyDataInit>
 8003ab2:	4a09      	ldr	r2, [pc, #36]	@ (8003ad8 <LoopFillZerobss+0x1a>)
 8003ab4:	4c09      	ldr	r4, [pc, #36]	@ (8003adc <LoopFillZerobss+0x1e>)
 8003ab6:	2300      	movs	r3, #0
 8003ab8:	e001      	b.n	8003abe <LoopFillZerobss>

08003aba <FillZerobss>:
 8003aba:	6013      	str	r3, [r2, #0]
 8003abc:	3204      	adds	r2, #4

08003abe <LoopFillZerobss>:
 8003abe:	42a2      	cmp	r2, r4
 8003ac0:	d3fb      	bcc.n	8003aba <FillZerobss>
 8003ac2:	f002 fd25 	bl	8006510 <__libc_init_array>
 8003ac6:	f7ff fb63 	bl	8003190 <main>
 8003aca:	4770      	bx	lr
 8003acc:	20000000 	.word	0x20000000
 8003ad0:	2000009c 	.word	0x2000009c
 8003ad4:	0800f9e0 	.word	0x0800f9e0
 8003ad8:	2000009c 	.word	0x2000009c
 8003adc:	20004110 	.word	0x20004110

08003ae0 <ADC1_2_IRQHandler>:
 8003ae0:	e7fe      	b.n	8003ae0 <ADC1_2_IRQHandler>
	...

08003ae4 <LCD_WriteData>:
 8003ae4:	2240      	movs	r2, #64	@ 0x40
 8003ae6:	e92d 43f8 	stmdb	sp!, {r3, r4, r5, r6, r7, r8, r9, lr}
 8003aea:	4b1c      	ldr	r3, [pc, #112]	@ (8003b5c <LCD_WriteData+0x78>)
 8003aec:	4604      	mov	r4, r0
 8003aee:	611a      	str	r2, [r3, #16]
 8003af0:	f04f 7280 	mov.w	r2, #16777216	@ 0x1000000
 8003af4:	460d      	mov	r5, r1
 8003af6:	f64f 79ff 	movw	r9, #65535	@ 0xffff
 8003afa:	4f19      	ldr	r7, [pc, #100]	@ (8003b60 <LCD_WriteData+0x7c>)
 8003afc:	f8df 8064 	ldr.w	r8, [pc, #100]	@ 8003b64 <LCD_WriteData+0x80>
 8003b00:	611a      	str	r2, [r3, #16]
 8003b02:	b92d      	cbnz	r5, 8003b10 <LCD_WriteData+0x2c>
 8003b04:	f44f 7280 	mov.w	r2, #256	@ 0x100
 8003b08:	4b14      	ldr	r3, [pc, #80]	@ (8003b5c <LCD_WriteData+0x78>)
 8003b0a:	611a      	str	r2, [r3, #16]
 8003b0c:	e8bd 83f8 	ldmia.w	sp!, {r3, r4, r5, r6, r7, r8, r9, pc}
 8003b10:	454d      	cmp	r5, r9
 8003b12:	462e      	mov	r6, r5
 8003b14:	bf28      	it	cs
 8003b16:	464e      	movcs	r6, r9
 8003b18:	2d20      	cmp	r5, #32
 8003b1a:	b2b2      	uxth	r2, r6
 8003b1c:	d915      	bls.n	8003b4a <LCD_WriteData+0x66>
 8003b1e:	4621      	mov	r1, r4
 8003b20:	4638      	mov	r0, r7
 8003b22:	f7fe fae3 	bl	80020ec <HAL_SPI_Transmit_DMA>
 8003b26:	6cb8      	ldr	r0, [r7, #72]	@ 0x48
 8003b28:	f7fd ffbe 	bl	8001aa8 <HAL_DMA_GetState>
 8003b2c:	2801      	cmp	r0, #1
 8003b2e:	d1fa      	bne.n	8003b26 <LCD_WriteData+0x42>
 8003b30:	f998 3002 	ldrsb.w	r3, [r8, #2]
 8003b34:	2b01      	cmp	r3, #1
 8003b36:	d106      	bne.n	8003b46 <LCD_WriteData+0x62>
 8003b38:	f998 3001 	ldrsb.w	r3, [r8, #1]
 8003b3c:	2b01      	cmp	r3, #1
 8003b3e:	bf0c      	ite	eq
 8003b40:	19a4      	addeq	r4, r4, r6
 8003b42:	eb04 0446 	addne.w	r4, r4, r6, lsl #1
 8003b46:	1bad      	subs	r5, r5, r6
 8003b48:	e7db      	b.n	8003b02 <LCD_WriteData+0x1e>
 8003b4a:	f04f 33ff 	mov.w	r3, #4294967295
 8003b4e:	4621      	mov	r1, r4
 8003b50:	4638      	mov	r0, r7
 8003b52:	f7fe fa1b 	bl	8001f8c <HAL_SPI_Transmit>
 8003b56:	f998 3000 	ldrsb.w	r3, [r8]
 8003b5a:	e7ef      	b.n	8003b3c <LCD_WriteData+0x58>
 8003b5c:	40010c00 	.word	0x40010c00
 8003b60:	200005c8 	.word	0x200005c8
 8003b64:	20000020 	.word	0x20000020

08003b68 <LCD_FillPixels>:
 8003b68:	b570      	push	{r4, r5, r6, lr}
 8003b6a:	2820      	cmp	r0, #32
 8003b6c:	b092      	sub	sp, #72	@ 0x48
 8003b6e:	4604      	mov	r4, r0
 8003b70:	f8ad 1006 	strh.w	r1, [sp, #6]
 8003b74:	d810      	bhi.n	8003b98 <LCD_FillPixels+0x30>
 8003b76:	aa02      	add	r2, sp, #8
 8003b78:	2300      	movs	r3, #0
 8003b7a:	4616      	mov	r6, r2
 8003b7c:	b289      	uxth	r1, r1
 8003b7e:	42a3      	cmp	r3, r4
 8003b80:	d111      	bne.n	8003ba6 <LCD_FillPixels+0x3e>
 8003b82:	b174      	cbz	r4, 8003ba2 <LCD_FillPixels+0x3a>
 8003b84:	2c20      	cmp	r4, #32
 8003b86:	4625      	mov	r5, r4
 8003b88:	bf28      	it	cs
 8003b8a:	2520      	movcs	r5, #32
 8003b8c:	4630      	mov	r0, r6
 8003b8e:	4629      	mov	r1, r5
 8003b90:	f7ff ffa8 	bl	8003ae4 <LCD_WriteData>
 8003b94:	1b64      	subs	r4, r4, r5
 8003b96:	e7f4      	b.n	8003b82 <LCD_FillPixels+0x1a>
 8003b98:	4601      	mov	r1, r0
 8003b9a:	f10d 0006 	add.w	r0, sp, #6
 8003b9e:	f7ff ffa1 	bl	8003ae4 <LCD_WriteData>
 8003ba2:	b012      	add	sp, #72	@ 0x48
 8003ba4:	bd70      	pop	{r4, r5, r6, pc}
 8003ba6:	f822 1b02 	strh.w	r1, [r2], #2
 8003baa:	3301      	adds	r3, #1
 8003bac:	e7e7      	b.n	8003b7e <LCD_FillPixels+0x16>
	...

08003bb0 <setSPI_Size.part.0>:
 8003bb0:	4a0b      	ldr	r2, [pc, #44]	@ (8003be0 <setSPI_Size.part.0+0x30>)
 8003bb2:	2801      	cmp	r0, #1
 8003bb4:	6813      	ldr	r3, [r2, #0]
 8003bb6:	6819      	ldr	r1, [r3, #0]
 8003bb8:	f021 0140 	bic.w	r1, r1, #64	@ 0x40
 8003bbc:	6019      	str	r1, [r3, #0]
 8003bbe:	4909      	ldr	r1, [pc, #36]	@ (8003be4 <setSPI_Size.part.0+0x34>)
 8003bc0:	7008      	strb	r0, [r1, #0]
 8003bc2:	bf0b      	itete	eq
 8003bc4:	f44f 6100 	moveq.w	r1, #2048	@ 0x800
 8003bc8:	2100      	movne	r1, #0
 8003bca:	60d1      	streq	r1, [r2, #12]
 8003bcc:	60d1      	strne	r1, [r2, #12]
 8003bce:	bf0b      	itete	eq
 8003bd0:	681a      	ldreq	r2, [r3, #0]
 8003bd2:	681a      	ldrne	r2, [r3, #0]
 8003bd4:	430a      	orreq	r2, r1
 8003bd6:	f422 6200 	bicne.w	r2, r2, #2048	@ 0x800
 8003bda:	601a      	str	r2, [r3, #0]
 8003bdc:	4770      	bx	lr
 8003bde:	bf00      	nop
 8003be0:	200005c8 	.word	0x200005c8
 8003be4:	20000020 	.word	0x20000020

08003be8 <setDMAMemMode>:
 8003be8:	b570      	push	{r4, r5, r6, lr}
 8003bea:	4e21      	ldr	r6, [pc, #132]	@ (8003c70 <setDMAMemMode+0x88>)
 8003bec:	4605      	mov	r5, r0
 8003bee:	f996 3000 	ldrsb.w	r3, [r6]
 8003bf2:	b248      	sxtb	r0, r1
 8003bf4:	4283      	cmp	r3, r0
 8003bf6:	460c      	mov	r4, r1
 8003bf8:	d001      	beq.n	8003bfe <setDMAMemMode+0x16>
 8003bfa:	f7ff ffd9 	bl	8003bb0 <setSPI_Size.part.0>
 8003bfe:	f996 3001 	ldrsb.w	r3, [r6, #1]
 8003c02:	42a3      	cmp	r3, r4
 8003c04:	d103      	bne.n	8003c0e <setDMAMemMode+0x26>
 8003c06:	f996 3002 	ldrsb.w	r3, [r6, #2]
 8003c0a:	42ab      	cmp	r3, r5
 8003c0c:	d027      	beq.n	8003c5e <setDMAMemMode+0x76>
 8003c0e:	4b19      	ldr	r3, [pc, #100]	@ (8003c74 <setDMAMemMode+0x8c>)
 8003c10:	7070      	strb	r0, [r6, #1]
 8003c12:	6c9a      	ldr	r2, [r3, #72]	@ 0x48
 8003c14:	70b5      	strb	r5, [r6, #2]
 8003c16:	6813      	ldr	r3, [r2, #0]
 8003c18:	6819      	ldr	r1, [r3, #0]
 8003c1a:	f021 0101 	bic.w	r1, r1, #1
 8003c1e:	6019      	str	r1, [r3, #0]
 8003c20:	6819      	ldr	r1, [r3, #0]
 8003c22:	f011 0101 	ands.w	r1, r1, #1
 8003c26:	d1fb      	bne.n	8003c20 <setDMAMemMode+0x38>
 8003c28:	2d01      	cmp	r5, #1
 8003c2a:	bf0b      	itete	eq
 8003c2c:	2180      	moveq	r1, #128	@ 0x80
 8003c2e:	60d1      	strne	r1, [r2, #12]
 8003c30:	60d1      	streq	r1, [r2, #12]
 8003c32:	6819      	ldrne	r1, [r3, #0]
 8003c34:	bf0a      	itet	eq
 8003c36:	6819      	ldreq	r1, [r3, #0]
 8003c38:	f021 0180 	bicne.w	r1, r1, #128	@ 0x80
 8003c3c:	f041 0180 	orreq.w	r1, r1, #128	@ 0x80
 8003c40:	2c01      	cmp	r4, #1
 8003c42:	6019      	str	r1, [r3, #0]
 8003c44:	d10c      	bne.n	8003c60 <setDMAMemMode+0x78>
 8003c46:	f44f 7080 	mov.w	r0, #256	@ 0x100
 8003c4a:	f44f 6180 	mov.w	r1, #1024	@ 0x400
 8003c4e:	e9c2 0104 	strd	r0, r1, [r2, #16]
 8003c52:	681a      	ldr	r2, [r3, #0]
 8003c54:	f422 6270 	bic.w	r2, r2, #3840	@ 0xf00
 8003c58:	f442 62a0 	orr.w	r2, r2, #1280	@ 0x500
 8003c5c:	601a      	str	r2, [r3, #0]
 8003c5e:	bd70      	pop	{r4, r5, r6, pc}
 8003c60:	2100      	movs	r1, #0
 8003c62:	e9c2 1104 	strd	r1, r1, [r2, #16]
 8003c66:	681a      	ldr	r2, [r3, #0]
 8003c68:	f422 6270 	bic.w	r2, r2, #3840	@ 0xf00
 8003c6c:	e7f6      	b.n	8003c5c <setDMAMemMode+0x74>
 8003c6e:	bf00      	nop
 8003c70:	20000020 	.word	0x20000020
 8003c74:	200005c8 	.word	0x200005c8

08003c78 <LCD_Update>:
 8003c78:	2100      	movs	r1, #0
 8003c7a:	2001      	movs	r0, #1
 8003c7c:	f7ff bfb4 	b.w	8003be8 <setDMAMemMode>

08003c80 <LCD_WriteCommand>:
 8003c80:	b570      	push	{r4, r5, r6, lr}
 8003c82:	4b13      	ldr	r3, [pc, #76]	@ (8003cd0 <LCD_WriteCommand+0x50>)
 8003c84:	4604      	mov	r4, r0
 8003c86:	f993 3000 	ldrsb.w	r3, [r3]
 8003c8a:	460d      	mov	r5, r1
 8003c8c:	b113      	cbz	r3, 8003c94 <LCD_WriteCommand+0x14>
 8003c8e:	2000      	movs	r0, #0
 8003c90:	f7ff ff8e 	bl	8003bb0 <setSPI_Size.part.0>
 8003c94:	f44f 0380 	mov.w	r3, #4194304	@ 0x400000
 8003c98:	4e0e      	ldr	r6, [pc, #56]	@ (8003cd4 <LCD_WriteCommand+0x54>)
 8003c9a:	2201      	movs	r2, #1
 8003c9c:	6133      	str	r3, [r6, #16]
 8003c9e:	f04f 7380 	mov.w	r3, #16777216	@ 0x1000000
 8003ca2:	4621      	mov	r1, r4
 8003ca4:	6133      	str	r3, [r6, #16]
 8003ca6:	480c      	ldr	r0, [pc, #48]	@ (8003cd8 <LCD_WriteCommand+0x58>)
 8003ca8:	f04f 33ff 	mov.w	r3, #4294967295
 8003cac:	f7fe f96e 	bl	8001f8c <HAL_SPI_Transmit>
 8003cb0:	b145      	cbz	r5, 8003cc4 <LCD_WriteCommand+0x44>
 8003cb2:	2340      	movs	r3, #64	@ 0x40
 8003cb4:	462a      	mov	r2, r5
 8003cb6:	6133      	str	r3, [r6, #16]
 8003cb8:	4807      	ldr	r0, [pc, #28]	@ (8003cd8 <LCD_WriteCommand+0x58>)
 8003cba:	f04f 33ff 	mov.w	r3, #4294967295
 8003cbe:	1c61      	adds	r1, r4, #1
 8003cc0:	f7fe f964 	bl	8001f8c <HAL_SPI_Transmit>
 8003cc4:	f44f 7280 	mov.w	r2, #256	@ 0x100
 8003cc8:	4b02      	ldr	r3, [pc, #8]	@ (8003cd4 <LCD_WriteCommand+0x54>)
 8003cca:	611a      	str	r2, [r3, #16]
 8003ccc:	bd70      	pop	{r4, r5, r6, pc}
 8003cce:	bf00      	nop
 8003cd0:	20000020 	.word	0x20000020
 8003cd4:	40010c00 	.word	0x40010c00
 8003cd8:	200005c8 	.word	0x200005c8

08003cdc <LCD_SetAddressWindow>:
 8003cdc:	b537      	push	{r0, r1, r2, r4, r5, lr}
 8003cde:	461c      	mov	r4, r3
 8003ce0:	232a      	movs	r3, #42	@ 0x2a
 8003ce2:	f88d 3000 	strb.w	r3, [sp]
 8003ce6:	1203      	asrs	r3, r0, #8
 8003ce8:	460d      	mov	r5, r1
 8003cea:	f88d 3001 	strb.w	r3, [sp, #1]
 8003cee:	f88d 0002 	strb.w	r0, [sp, #2]
 8003cf2:	1213      	asrs	r3, r2, #8
 8003cf4:	4668      	mov	r0, sp
 8003cf6:	2104      	movs	r1, #4
 8003cf8:	f88d 2004 	strb.w	r2, [sp, #4]
 8003cfc:	f88d 3003 	strb.w	r3, [sp, #3]
 8003d00:	f7ff ffbe 	bl	8003c80 <LCD_WriteCommand>
 8003d04:	232b      	movs	r3, #43	@ 0x2b
 8003d06:	f88d 3000 	strb.w	r3, [sp]
 8003d0a:	122b      	asrs	r3, r5, #8
 8003d0c:	4668      	mov	r0, sp
 8003d0e:	f88d 3001 	strb.w	r3, [sp, #1]
 8003d12:	2104      	movs	r1, #4
 8003d14:	1223      	asrs	r3, r4, #8
 8003d16:	f88d 3003 	strb.w	r3, [sp, #3]
 8003d1a:	f88d 5002 	strb.w	r5, [sp, #2]
 8003d1e:	f88d 4004 	strb.w	r4, [sp, #4]
 8003d22:	f7ff ffad 	bl	8003c80 <LCD_WriteCommand>
 8003d26:	232c      	movs	r3, #44	@ 0x2c
 8003d28:	2100      	movs	r1, #0
 8003d2a:	4668      	mov	r0, sp
 8003d2c:	f88d 3000 	strb.w	r3, [sp]
 8003d30:	f7ff ffa6 	bl	8003c80 <LCD_WriteCommand>
 8003d34:	b003      	add	sp, #12
 8003d36:	bd30      	pop	{r4, r5, pc}

08003d38 <LCD_FillArea>:
 8003d38:	f1b0 3fff 	cmp.w	r0, #4294967295
 8003d3c:	b508      	push	{r3, lr}
 8003d3e:	d105      	bne.n	8003d4c <LCD_FillArea+0x14>
 8003d40:	2001      	movs	r0, #1
 8003d42:	2100      	movs	r1, #0
 8003d44:	f7ff ff50 	bl	8003be8 <setDMAMemMode>
 8003d48:	2000      	movs	r0, #0
 8003d4a:	bd08      	pop	{r3, pc}
 8003d4c:	f7ff ffc6 	bl	8003cdc <LCD_SetAddressWindow>
 8003d50:	2000      	movs	r0, #0
 8003d52:	2101      	movs	r1, #1
 8003d54:	f7ff ff48 	bl	8003be8 <setDMAMemMode>
 8003d58:	2240      	movs	r2, #64	@ 0x40
 8003d5a:	4b02      	ldr	r3, [pc, #8]	@ (8003d64 <LCD_FillArea+0x2c>)
 8003d5c:	4802      	ldr	r0, [pc, #8]	@ (8003d68 <LCD_FillArea+0x30>)
 8003d5e:	611a      	str	r2, [r3, #16]
 8003d60:	e7f3      	b.n	8003d4a <LCD_FillArea+0x12>
 8003d62:	bf00      	nop
 8003d64:	40010c00 	.word	0x40010c00
 8003d68:	08003b69 	.word	0x08003b69

08003d6c <LCD_DrawPixel>:
 8003d6c:	b537      	push	{r0, r1, r2, r4, r5, lr}
 8003d6e:	b285      	uxth	r5, r0
 8003d70:	2def      	cmp	r5, #239	@ 0xef
 8003d72:	460b      	mov	r3, r1
 8003d74:	d818      	bhi.n	8003da8 <LCD_DrawPixel+0x3c>
 8003d76:	b28d      	uxth	r5, r1
 8003d78:	2def      	cmp	r5, #239	@ 0xef
 8003d7a:	d815      	bhi.n	8003da8 <LCD_DrawPixel+0x3c>
 8003d7c:	ba52      	rev16	r2, r2
 8003d7e:	f8ad 2004 	strh.w	r2, [sp, #4]
 8003d82:	4602      	mov	r2, r0
 8003d84:	f7ff ffaa 	bl	8003cdc <LCD_SetAddressWindow>
 8003d88:	2340      	movs	r3, #64	@ 0x40
 8003d8a:	4c08      	ldr	r4, [pc, #32]	@ (8003dac <LCD_DrawPixel+0x40>)
 8003d8c:	2202      	movs	r2, #2
 8003d8e:	6123      	str	r3, [r4, #16]
 8003d90:	f04f 7380 	mov.w	r3, #16777216	@ 0x1000000
 8003d94:	4806      	ldr	r0, [pc, #24]	@ (8003db0 <LCD_DrawPixel+0x44>)
 8003d96:	6123      	str	r3, [r4, #16]
 8003d98:	a901      	add	r1, sp, #4
 8003d9a:	f04f 33ff 	mov.w	r3, #4294967295
 8003d9e:	f7fe f8f5 	bl	8001f8c <HAL_SPI_Transmit>
 8003da2:	f44f 7380 	mov.w	r3, #256	@ 0x100
 8003da6:	6123      	str	r3, [r4, #16]
 8003da8:	b003      	add	sp, #12
 8003daa:	bd30      	pop	{r4, r5, pc}
 8003dac:	40010c00 	.word	0x40010c00
 8003db0:	200005c8 	.word	0x200005c8

08003db4 <LCD_Fill>:
 8003db4:	b538      	push	{r3, r4, r5, lr}
 8003db6:	1a5c      	subs	r4, r3, r1
 8003db8:	1a15      	subs	r5, r2, r0
 8003dba:	3401      	adds	r4, #1
 8003dbc:	fb05 4404 	mla	r4, r5, r4, r4
 8003dc0:	b21b      	sxth	r3, r3
 8003dc2:	b212      	sxth	r2, r2
 8003dc4:	b209      	sxth	r1, r1
 8003dc6:	b200      	sxth	r0, r0
 8003dc8:	f7ff ff88 	bl	8003cdc <LCD_SetAddressWindow>
 8003dcc:	2101      	movs	r1, #1
 8003dce:	2000      	movs	r0, #0
 8003dd0:	f7ff ff0a 	bl	8003be8 <setDMAMemMode>
 8003dd4:	4620      	mov	r0, r4
 8003dd6:	f8bd 1010 	ldrh.w	r1, [sp, #16]
 8003dda:	f7ff fec5 	bl	8003b68 <LCD_FillPixels>
 8003dde:	2100      	movs	r1, #0
 8003de0:	2001      	movs	r0, #1
 8003de2:	f7ff ff01 	bl	8003be8 <setDMAMemMode>
 8003de6:	2000      	movs	r0, #0
 8003de8:	bd38      	pop	{r3, r4, r5, pc}

08003dea <LCD_DrawLine>:
 8003dea:	4290      	cmp	r0, r2
 8003dec:	b513      	push	{r0, r1, r4, lr}
 8003dee:	d109      	bne.n	8003e04 <LCD_DrawLine+0x1a>
 8003df0:	4299      	cmp	r1, r3
 8003df2:	d80f      	bhi.n	8003e14 <LCD_DrawLine+0x2a>
 8003df4:	f8bd 4010 	ldrh.w	r4, [sp, #16]
 8003df8:	9400      	str	r4, [sp, #0]
 8003dfa:	f7ff ffdb 	bl	8003db4 <LCD_Fill>
 8003dfe:	2000      	movs	r0, #0
 8003e00:	b002      	add	sp, #8
 8003e02:	bd10      	pop	{r4, pc}
 8003e04:	4299      	cmp	r1, r3
 8003e06:	d109      	bne.n	8003e1c <LCD_DrawLine+0x32>
 8003e08:	4290      	cmp	r0, r2
 8003e0a:	d9f3      	bls.n	8003df4 <LCD_DrawLine+0xa>
 8003e0c:	4604      	mov	r4, r0
 8003e0e:	4610      	mov	r0, r2
 8003e10:	4622      	mov	r2, r4
 8003e12:	e7ef      	b.n	8003df4 <LCD_DrawLine+0xa>
 8003e14:	460c      	mov	r4, r1
 8003e16:	4619      	mov	r1, r3
 8003e18:	4623      	mov	r3, r4
 8003e1a:	e7eb      	b.n	8003df4 <LCD_DrawLine+0xa>
 8003e1c:	f04f 30ff 	mov.w	r0, #4294967295
 8003e20:	e7ee      	b.n	8003e00 <LCD_DrawLine+0x16>

08003e22 <LCD_DrawImage>:
 8003e22:	28ef      	cmp	r0, #239	@ 0xef
 8003e24:	b570      	push	{r4, r5, r6, lr}
 8003e26:	4614      	mov	r4, r2
 8003e28:	d825      	bhi.n	8003e76 <LCD_DrawImage+0x54>
 8003e2a:	29ef      	cmp	r1, #239	@ 0xef
 8003e2c:	d823      	bhi.n	8003e76 <LCD_DrawImage+0x54>
 8003e2e:	8895      	ldrh	r5, [r2, #4]
 8003e30:	1943      	adds	r3, r0, r5
 8003e32:	2bf0      	cmp	r3, #240	@ 0xf0
 8003e34:	dc1f      	bgt.n	8003e76 <LCD_DrawImage+0x54>
 8003e36:	88d6      	ldrh	r6, [r2, #6]
 8003e38:	198b      	adds	r3, r1, r6
 8003e3a:	2bf0      	cmp	r3, #240	@ 0xf0
 8003e3c:	dc1b      	bgt.n	8003e76 <LCD_DrawImage+0x54>
 8003e3e:	7a13      	ldrb	r3, [r2, #8]
 8003e40:	2b10      	cmp	r3, #16
 8003e42:	d118      	bne.n	8003e76 <LCD_DrawImage+0x54>
 8003e44:	1e4b      	subs	r3, r1, #1
 8003e46:	1e42      	subs	r2, r0, #1
 8003e48:	4433      	add	r3, r6
 8003e4a:	442a      	add	r2, r5
 8003e4c:	b21b      	sxth	r3, r3
 8003e4e:	b212      	sxth	r2, r2
 8003e50:	b209      	sxth	r1, r1
 8003e52:	b200      	sxth	r0, r0
 8003e54:	f7ff ff42 	bl	8003cdc <LCD_SetAddressWindow>
 8003e58:	2101      	movs	r1, #1
 8003e5a:	4608      	mov	r0, r1
 8003e5c:	f7ff fec4 	bl	8003be8 <setDMAMemMode>
 8003e60:	fb06 f105 	mul.w	r1, r6, r5
 8003e64:	6820      	ldr	r0, [r4, #0]
 8003e66:	f7ff fe3d 	bl	8003ae4 <LCD_WriteData>
 8003e6a:	e8bd 4070 	ldmia.w	sp!, {r4, r5, r6, lr}
 8003e6e:	2100      	movs	r1, #0
 8003e70:	2001      	movs	r0, #1
 8003e72:	f7ff beb9 	b.w	8003be8 <setDMAMemMode>
 8003e76:	bd70      	pop	{r4, r5, r6, pc}

08003e78 <LCD_PutStr>:
 8003e78:	e92d 41f0 	stmdb	sp!, {r4, r5, r6, r7, r8, lr}
 8003e7c:	460d      	mov	r5, r1
 8003e7e:	4616      	mov	r6, r2
 8003e80:	4604      	mov	r4, r0
 8003e82:	f8bd 8018 	ldrh.w	r8, [sp, #24]
 8003e86:	4618      	mov	r0, r3
 8003e88:	f8bd 701c 	ldrh.w	r7, [sp, #28]
 8003e8c:	f000 fb5c 	bl	8004548 <UG_FontSelect>
 8003e90:	4640      	mov	r0, r8
 8003e92:	f000 fcc5 	bl	8004820 <UG_SetForecolor>
 8003e96:	4638      	mov	r0, r7
 8003e98:	f000 fcca 	bl	8004830 <UG_SetBackcolor>
 8003e9c:	4632      	mov	r2, r6
 8003e9e:	b229      	sxth	r1, r5
 8003ea0:	b220      	sxth	r0, r4
 8003ea2:	e8bd 41f0 	ldmia.w	sp!, {r4, r5, r6, r7, r8, lr}
 8003ea6:	f000 bc61 	b.w	800476c <UG_PutString>

08003eaa <LCD_setPower>:
 8003eaa:	2800      	cmp	r0, #0
 8003eac:	bf0c      	ite	eq
 8003eae:	2328      	moveq	r3, #40	@ 0x28
 8003eb0:	2329      	movne	r3, #41	@ 0x29
 8003eb2:	b507      	push	{r0, r1, r2, lr}
 8003eb4:	2100      	movs	r1, #0
 8003eb6:	a801      	add	r0, sp, #4
 8003eb8:	f88d 3004 	strb.w	r3, [sp, #4]
 8003ebc:	f7ff fee0 	bl	8003c80 <LCD_WriteCommand>
 8003ec0:	b003      	add	sp, #12
 8003ec2:	f85d fb04 	ldr.w	pc, [sp], #4
	...

08003ec8 <LCD_init>:
 8003ec8:	f44f 7380 	mov.w	r3, #256	@ 0x100
 8003ecc:	b570      	push	{r4, r5, r6, lr}
 8003ece:	4c1f      	ldr	r4, [pc, #124]	@ (8003f4c <LCD_init+0x84>)
 8003ed0:	2001      	movs	r0, #1
 8003ed2:	6123      	str	r3, [r4, #16]
 8003ed4:	f44f 0300 	mov.w	r3, #8388608	@ 0x800000
 8003ed8:	6123      	str	r3, [r4, #16]
 8003eda:	f7fc ff0d 	bl	8000cf8 <HAL_Delay>
 8003ede:	2380      	movs	r3, #128	@ 0x80
 8003ee0:	20c8      	movs	r0, #200	@ 0xc8
 8003ee2:	6123      	str	r3, [r4, #16]
 8003ee4:	f7fc ff08 	bl	8000cf8 <HAL_Delay>
 8003ee8:	4919      	ldr	r1, [pc, #100]	@ (8003f50 <LCD_init+0x88>)
 8003eea:	481a      	ldr	r0, [pc, #104]	@ (8003f54 <LCD_init+0x8c>)
 8003eec:	f000 faf4 	bl	80044d8 <UG_Init>
 8003ef0:	2000      	movs	r0, #0
 8003ef2:	4919      	ldr	r1, [pc, #100]	@ (8003f58 <LCD_init+0x90>)
 8003ef4:	f000 fe64 	bl	8004bc0 <UG_DriverRegister>
 8003ef8:	2001      	movs	r0, #1
 8003efa:	4918      	ldr	r1, [pc, #96]	@ (8003f5c <LCD_init+0x94>)
 8003efc:	f000 fe60 	bl	8004bc0 <UG_DriverRegister>
 8003f00:	2002      	movs	r0, #2
 8003f02:	4917      	ldr	r1, [pc, #92]	@ (8003f60 <LCD_init+0x98>)
 8003f04:	f000 fe5c 	bl	8004bc0 <UG_DriverRegister>
 8003f08:	4916      	ldr	r1, [pc, #88]	@ (8003f64 <LCD_init+0x9c>)
 8003f0a:	2003      	movs	r0, #3
 8003f0c:	f000 fe58 	bl	8004bc0 <UG_DriverRegister>
 8003f10:	2000      	movs	r0, #0
 8003f12:	f000 fc95 	bl	8004840 <UG_FontSetHSpace>
 8003f16:	2000      	movs	r0, #0
 8003f18:	f000 fc9a 	bl	8004850 <UG_FontSetVSpace>
 8003f1c:	2400      	movs	r4, #0
 8003f1e:	4e12      	ldr	r6, [pc, #72]	@ (8003f68 <LCD_init+0xa0>)
 8003f20:	5d35      	ldrb	r5, [r6, r4]
 8003f22:	1c60      	adds	r0, r4, #1
 8003f24:	3402      	adds	r4, #2
 8003f26:	442c      	add	r4, r5
 8003f28:	4629      	mov	r1, r5
 8003f2a:	4430      	add	r0, r6
 8003f2c:	b2a4      	uxth	r4, r4
 8003f2e:	f7ff fea7 	bl	8003c80 <LCD_WriteCommand>
 8003f32:	2c4b      	cmp	r4, #75	@ 0x4b
 8003f34:	d9f4      	bls.n	8003f20 <LCD_init+0x58>
 8003f36:	2000      	movs	r0, #0
 8003f38:	f000 fb4c 	bl	80045d4 <UG_FillScreen>
 8003f3c:	2001      	movs	r0, #1
 8003f3e:	f7ff ffb4 	bl	8003eaa <LCD_setPower>
 8003f42:	e8bd 4070 	ldmia.w	sp!, {r4, r5, r6, lr}
 8003f46:	f000 be49 	b.w	8004bdc <UG_Update>
 8003f4a:	bf00      	nop
 8003f4c:	40010c00 	.word	0x40010c00
 8003f50:	20000014 	.word	0x20000014
 8003f54:	2000069c 	.word	0x2000069c
 8003f58:	08003deb 	.word	0x08003deb
 8003f5c:	08003db5 	.word	0x08003db5
 8003f60:	08003d39 	.word	0x08003d39
 8003f64:	08003e23 	.word	0x08003e23
 8003f68:	080076a9 	.word	0x080076a9

08003f6c <_UG_GetCharData>:
 8003f6c:	4b41      	ldr	r3, [pc, #260]	@ (8004074 <_UG_GetCharData+0x108>)
 8003f6e:	e92d 43f0 	stmdb	sp!, {r4, r5, r6, r7, r8, r9, lr}
 8003f72:	681a      	ldr	r2, [r3, #0]
 8003f74:	4f40      	ldr	r7, [pc, #256]	@ (8004078 <_UG_GetCharData+0x10c>)
 8003f76:	f8d2 c044 	ldr.w	ip, [r2, #68]	@ 0x44
 8003f7a:	683b      	ldr	r3, [r7, #0]
 8003f7c:	459c      	cmp	ip, r3
 8003f7e:	d10c      	bne.n	8003f9a <_UG_GetCharData+0x2e>
 8003f80:	4b3e      	ldr	r3, [pc, #248]	@ (800407c <_UG_GetCharData+0x110>)
 8003f82:	881b      	ldrh	r3, [r3, #0]
 8003f84:	4283      	cmp	r3, r0
 8003f86:	d108      	bne.n	8003f9a <_UG_GetCharData+0x2e>
 8003f88:	b111      	cbz	r1, 8003f90 <_UG_GetCharData+0x24>
 8003f8a:	4b3d      	ldr	r3, [pc, #244]	@ (8004080 <_UG_GetCharData+0x114>)
 8003f8c:	681b      	ldr	r3, [r3, #0]
 8003f8e:	600b      	str	r3, [r1, #0]
 8003f90:	4b3c      	ldr	r3, [pc, #240]	@ (8004084 <_UG_GetCharData+0x118>)
 8003f92:	f9b3 0000 	ldrsh.w	r0, [r3]
 8003f96:	e8bd 83f0 	ldmia.w	sp!, {r4, r5, r6, r7, r8, r9, pc}
 8003f9a:	f892 302d 	ldrb.w	r3, [r2, #45]	@ 0x2d
 8003f9e:	b153      	cbz	r3, 8003fb6 <_UG_GetCharData+0x4a>
 8003fa0:	28dc      	cmp	r0, #220	@ 0xdc
 8003fa2:	d05a      	beq.n	800405a <_UG_GetCharData+0xee>
 8003fa4:	d812      	bhi.n	8003fcc <_UG_GetCharData+0x60>
 8003fa6:	28c4      	cmp	r0, #196	@ 0xc4
 8003fa8:	d059      	beq.n	800405e <_UG_GetCharData+0xf2>
 8003faa:	d80b      	bhi.n	8003fc4 <_UG_GetCharData+0x58>
 8003fac:	28b0      	cmp	r0, #176	@ 0xb0
 8003fae:	d058      	beq.n	8004062 <_UG_GetCharData+0xf6>
 8003fb0:	28b5      	cmp	r0, #181	@ 0xb5
 8003fb2:	bf08      	it	eq
 8003fb4:	20e6      	moveq	r0, #230	@ 0xe6
 8003fb6:	2400      	movs	r4, #0
 8003fb8:	f8b2 e034 	ldrh.w	lr, [r2, #52]	@ 0x34
 8003fbc:	46a1      	mov	r9, r4
 8003fbe:	4623      	mov	r3, r4
 8003fc0:	4625      	mov	r5, r4
 8003fc2:	e01a      	b.n	8003ffa <_UG_GetCharData+0x8e>
 8003fc4:	28d6      	cmp	r0, #214	@ 0xd6
 8003fc6:	bf08      	it	eq
 8003fc8:	2099      	moveq	r0, #153	@ 0x99
 8003fca:	e7f4      	b.n	8003fb6 <_UG_GetCharData+0x4a>
 8003fcc:	28f6      	cmp	r0, #246	@ 0xf6
 8003fce:	d04a      	beq.n	8004066 <_UG_GetCharData+0xfa>
 8003fd0:	28fc      	cmp	r0, #252	@ 0xfc
 8003fd2:	d04a      	beq.n	800406a <_UG_GetCharData+0xfe>
 8003fd4:	28e4      	cmp	r0, #228	@ 0xe4
 8003fd6:	bf08      	it	eq
 8003fd8:	2084      	moveq	r0, #132	@ 0x84
 8003fda:	e7ec      	b.n	8003fb6 <_UG_GetCharData+0x4a>
 8003fdc:	6bd6      	ldr	r6, [r2, #60]	@ 0x3c
 8003fde:	f836 8014 	ldrh.w	r8, [r6, r4, lsl #1]
 8003fe2:	fa98 f898 	rev16.w	r8, r8
 8003fe6:	f418 4f00 	tst.w	r8, #32768	@ 0x8000
 8003fea:	fa1f f688 	uxth.w	r6, r8
 8003fee:	d00a      	beq.n	8004006 <_UG_GetCharData+0x9a>
 8003ff0:	f04f 0901 	mov.w	r9, #1
 8003ff4:	f3c6 050e 	ubfx	r5, r6, #0, #15
 8003ff8:	3401      	adds	r4, #1
 8003ffa:	b2a6      	uxth	r6, r4
 8003ffc:	45b6      	cmp	lr, r6
 8003ffe:	d8ed      	bhi.n	8003fdc <_UG_GetCharData+0x70>
 8004000:	f04f 30ff 	mov.w	r0, #4294967295
 8004004:	e7c7      	b.n	8003f96 <_UG_GetCharData+0x2a>
 8004006:	f1b9 0f00 	cmp.w	r9, #0
 800400a:	d020      	beq.n	800404e <_UG_GetCharData+0xe2>
 800400c:	4285      	cmp	r5, r0
 800400e:	d8f7      	bhi.n	8004000 <_UG_GetCharData+0x94>
 8004010:	4286      	cmp	r6, r0
 8004012:	d315      	bcc.n	8004040 <_UG_GetCharData+0xd4>
 8004014:	4403      	add	r3, r0
 8004016:	1b5b      	subs	r3, r3, r5
 8004018:	b29b      	uxth	r3, r3
 800401a:	4c18      	ldr	r4, [pc, #96]	@ (800407c <_UG_GetCharData+0x110>)
 800401c:	f8c7 c000 	str.w	ip, [r7]
 8004020:	8020      	strh	r0, [r4, #0]
 8004022:	8e10      	ldrh	r0, [r2, #48]	@ 0x30
 8004024:	6c14      	ldr	r4, [r2, #64]	@ 0x40
 8004026:	fb03 4400 	mla	r4, r3, r0, r4
 800402a:	4815      	ldr	r0, [pc, #84]	@ (8004080 <_UG_GetCharData+0x114>)
 800402c:	6004      	str	r4, [r0, #0]
 800402e:	6b90      	ldr	r0, [r2, #56]	@ 0x38
 8004030:	b1e8      	cbz	r0, 800406e <_UG_GetCharData+0x102>
 8004032:	5cc0      	ldrb	r0, [r0, r3]
 8004034:	4b13      	ldr	r3, [pc, #76]	@ (8004084 <_UG_GetCharData+0x118>)
 8004036:	8018      	strh	r0, [r3, #0]
 8004038:	2900      	cmp	r1, #0
 800403a:	d0ac      	beq.n	8003f96 <_UG_GetCharData+0x2a>
 800403c:	600c      	str	r4, [r1, #0]
 800403e:	e7aa      	b.n	8003f96 <_UG_GetCharData+0x2a>
 8004040:	3301      	adds	r3, #1
 8004042:	1b5b      	subs	r3, r3, r5
 8004044:	4433      	add	r3, r6
 8004046:	f04f 0900 	mov.w	r9, #0
 800404a:	b29b      	uxth	r3, r3
 800404c:	e7d4      	b.n	8003ff8 <_UG_GetCharData+0x8c>
 800404e:	4286      	cmp	r6, r0
 8004050:	d0e3      	beq.n	800401a <_UG_GetCharData+0xae>
 8004052:	d8d5      	bhi.n	8004000 <_UG_GetCharData+0x94>
 8004054:	3301      	adds	r3, #1
 8004056:	b29b      	uxth	r3, r3
 8004058:	e7ce      	b.n	8003ff8 <_UG_GetCharData+0x8c>
 800405a:	209a      	movs	r0, #154	@ 0x9a
 800405c:	e7ab      	b.n	8003fb6 <_UG_GetCharData+0x4a>
 800405e:	208e      	movs	r0, #142	@ 0x8e
 8004060:	e7a9      	b.n	8003fb6 <_UG_GetCharData+0x4a>
 8004062:	20f8      	movs	r0, #248	@ 0xf8
 8004064:	e7a7      	b.n	8003fb6 <_UG_GetCharData+0x4a>
 8004066:	2094      	movs	r0, #148	@ 0x94
 8004068:	e7a5      	b.n	8003fb6 <_UG_GetCharData+0x4a>
 800406a:	2081      	movs	r0, #129	@ 0x81
 800406c:	e7a3      	b.n	8003fb6 <_UG_GetCharData+0x4a>
 800406e:	f892 002e 	ldrb.w	r0, [r2, #46]	@ 0x2e
 8004072:	e7df      	b.n	8004034 <_UG_GetCharData+0xc8>
 8004074:	20000728 	.word	0x20000728
 8004078:	20000724 	.word	0x20000724
 800407c:	20000720 	.word	0x20000720
 8004080:	2000071c 	.word	0x2000071c
 8004084:	20000718 	.word	0x20000718

08004088 <_UG_FontSelect>:
 8004088:	4b17      	ldr	r3, [pc, #92]	@ (80040e8 <_UG_FontSelect+0x60>)
 800408a:	b530      	push	{r4, r5, lr}
 800408c:	681b      	ldr	r3, [r3, #0]
 800408e:	6c5a      	ldr	r2, [r3, #68]	@ 0x44
 8004090:	4282      	cmp	r2, r0
 8004092:	d028      	beq.n	80040e6 <_UG_FontSelect+0x5e>
 8004094:	6458      	str	r0, [r3, #68]	@ 0x44
 8004096:	7802      	ldrb	r2, [r0, #0]
 8004098:	f002 027f 	and.w	r2, r2, #127	@ 0x7f
 800409c:	f883 202c 	strb.w	r2, [r3, #44]	@ 0x2c
 80040a0:	7802      	ldrb	r2, [r0, #0]
 80040a2:	09d2      	lsrs	r2, r2, #7
 80040a4:	f883 202d 	strb.w	r2, [r3, #45]	@ 0x2d
 80040a8:	7842      	ldrb	r2, [r0, #1]
 80040aa:	f883 202e 	strb.w	r2, [r3, #46]	@ 0x2e
 80040ae:	7882      	ldrb	r2, [r0, #2]
 80040b0:	f883 202f 	strb.w	r2, [r3, #47]	@ 0x2f
 80040b4:	f8b0 2003 	ldrh.w	r2, [r0, #3]
 80040b8:	ba52      	rev16	r2, r2
 80040ba:	865a      	strh	r2, [r3, #50]	@ 0x32
 80040bc:	b295      	uxth	r5, r2
 80040be:	f8b0 2005 	ldrh.w	r2, [r0, #5]
 80040c2:	ba52      	rev16	r2, r2
 80040c4:	869a      	strh	r2, [r3, #52]	@ 0x34
 80040c6:	b294      	uxth	r4, r2
 80040c8:	f8b0 2007 	ldrh.w	r2, [r0, #7]
 80040cc:	ba52      	rev16	r2, r2
 80040ce:	861a      	strh	r2, [r3, #48]	@ 0x30
 80040d0:	7a41      	ldrb	r1, [r0, #9]
 80040d2:	f100 020a 	add.w	r2, r0, #10
 80040d6:	b109      	cbz	r1, 80040dc <_UG_FontSelect+0x54>
 80040d8:	4611      	mov	r1, r2
 80040da:	442a      	add	r2, r5
 80040dc:	e9c3 120e 	strd	r1, r2, [r3, #56]	@ 0x38
 80040e0:	eb02 0244 	add.w	r2, r2, r4, lsl #1
 80040e4:	641a      	str	r2, [r3, #64]	@ 0x40
 80040e6:	bd30      	pop	{r4, r5, pc}
 80040e8:	20000728 	.word	0x20000728

080040ec <_UG_PutChar>:
 80040ec:	e92d 4ff0 	stmdb	sp!, {r4, r5, r6, r7, r8, r9, sl, fp, lr}
 80040f0:	4d8b      	ldr	r5, [pc, #556]	@ (8004320 <_UG_PutChar+0x234>)
 80040f2:	b095      	sub	sp, #84	@ 0x54
 80040f4:	682e      	ldr	r6, [r5, #0]
 80040f6:	9301      	str	r3, [sp, #4]
 80040f8:	f8bd 3078 	ldrh.w	r3, [sp, #120]	@ 0x78
 80040fc:	4689      	mov	r9, r1
 80040fe:	9305      	str	r3, [sp, #20]
 8004100:	f896 3048 	ldrb.w	r3, [r6, #72]	@ 0x48
 8004104:	a913      	add	r1, sp, #76	@ 0x4c
 8004106:	4614      	mov	r4, r2
 8004108:	f896 7068 	ldrb.w	r7, [r6, #104]	@ 0x68
 800410c:	9303      	str	r3, [sp, #12]
 800410e:	f7ff ff2d 	bl	8003f6c <_UG_GetCharData>
 8004112:	f1b0 3fff 	cmp.w	r0, #4294967295
 8004116:	4682      	mov	sl, r0
 8004118:	d04d      	beq.n	80041b6 <_UG_PutChar+0xca>
 800411a:	f896 302e 	ldrb.w	r3, [r6, #46]	@ 0x2e
 800411e:	2b00      	cmp	r3, #0
 8004120:	f000 8193 	beq.w	800444a <_UG_PutChar+0x35e>
 8004124:	08da      	lsrs	r2, r3, #3
 8004126:	075b      	lsls	r3, r3, #29
 8004128:	bf1c      	itt	ne
 800412a:	4613      	movne	r3, r2
 800412c:	3301      	addne	r3, #1
 800412e:	920a      	str	r2, [sp, #40]	@ 0x28
 8004130:	bf18      	it	ne
 8004132:	930a      	strne	r3, [sp, #40]	@ 0x28
 8004134:	f017 0302 	ands.w	r3, r7, #2
 8004138:	9304      	str	r3, [sp, #16]
 800413a:	d040      	beq.n	80041be <_UG_PutChar+0xd2>
 800413c:	f896 302f 	ldrb.w	r3, [r6, #47]	@ 0x2f
 8004140:	f109 32ff 	add.w	r2, r9, #4294967295
 8004144:	3b01      	subs	r3, #1
 8004146:	4402      	add	r2, r0
 8004148:	4423      	add	r3, r4
 800414a:	4621      	mov	r1, r4
 800414c:	4648      	mov	r0, r9
 800414e:	6e76      	ldr	r6, [r6, #100]	@ 0x64
 8004150:	b21b      	sxth	r3, r3
 8004152:	b212      	sxth	r2, r2
 8004154:	47b0      	blx	r6
 8004156:	4607      	mov	r7, r0
 8004158:	682b      	ldr	r3, [r5, #0]
 800415a:	f893 302c 	ldrb.w	r3, [r3, #44]	@ 0x2c
 800415e:	2b00      	cmp	r3, #0
 8004160:	f040 8124 	bne.w	80043ac <_UG_PutChar+0x2c0>
 8004164:	b2a2      	uxth	r2, r4
 8004166:	469b      	mov	fp, r3
 8004168:	461c      	mov	r4, r3
 800416a:	461e      	mov	r6, r3
 800416c:	461d      	mov	r5, r3
 800416e:	fa1f f389 	uxth.w	r3, r9
 8004172:	920c      	str	r2, [sp, #48]	@ 0x30
 8004174:	9202      	str	r2, [sp, #8]
 8004176:	9306      	str	r3, [sp, #24]
 8004178:	fa1f f289 	uxth.w	r2, r9
 800417c:	fa1f f38a 	uxth.w	r3, sl
 8004180:	930f      	str	r3, [sp, #60]	@ 0x3c
 8004182:	4413      	add	r3, r2
 8004184:	9310      	str	r3, [sp, #64]	@ 0x40
 8004186:	9a0c      	ldr	r2, [sp, #48]	@ 0x30
 8004188:	9b02      	ldr	r3, [sp, #8]
 800418a:	1a9b      	subs	r3, r3, r2
 800418c:	4a64      	ldr	r2, [pc, #400]	@ (8004320 <_UG_PutChar+0x234>)
 800418e:	b29b      	uxth	r3, r3
 8004190:	6812      	ldr	r2, [r2, #0]
 8004192:	f892 202f 	ldrb.w	r2, [r2, #47]	@ 0x2f
 8004196:	429a      	cmp	r2, r3
 8004198:	f200 80be 	bhi.w	8004318 <_UG_PutChar+0x22c>
 800419c:	9b04      	ldr	r3, [sp, #16]
 800419e:	b153      	cbz	r3, 80041b6 <_UG_PutChar+0xca>
 80041a0:	f1bb 0f00 	cmp.w	fp, #0
 80041a4:	f000 80be 	beq.w	8004324 <_UG_PutChar+0x238>
 80041a8:	9b03      	ldr	r3, [sp, #12]
 80041aa:	2b00      	cmp	r3, #0
 80041ac:	f040 8153 	bne.w	8004456 <_UG_PutChar+0x36a>
 80041b0:	4658      	mov	r0, fp
 80041b2:	9905      	ldr	r1, [sp, #20]
 80041b4:	47b8      	blx	r7
 80041b6:	4650      	mov	r0, sl
 80041b8:	b015      	add	sp, #84	@ 0x54
 80041ba:	e8bd 8ff0 	ldmia.w	sp!, {r4, r5, r6, r7, r8, r9, sl, fp, pc}
 80041be:	9f04      	ldr	r7, [sp, #16]
 80041c0:	e7ca      	b.n	8004158 <_UG_PutChar+0x6c>
 80041c2:	9b13      	ldr	r3, [sp, #76]	@ 0x4c
 80041c4:	45d0      	cmp	r8, sl
 80041c6:	f103 0201 	add.w	r2, r3, #1
 80041ca:	781b      	ldrb	r3, [r3, #0]
 80041cc:	9213      	str	r2, [sp, #76]	@ 0x4c
 80041ce:	930b      	str	r3, [sp, #44]	@ 0x2c
 80041d0:	da27      	bge.n	8004222 <_UG_PutChar+0x136>
 80041d2:	f108 0308 	add.w	r3, r8, #8
 80041d6:	b21b      	sxth	r3, r3
 80041d8:	930d      	str	r3, [sp, #52]	@ 0x34
 80041da:	f9bd 3008 	ldrsh.w	r3, [sp, #8]
 80041de:	930e      	str	r3, [sp, #56]	@ 0x38
 80041e0:	9b0b      	ldr	r3, [sp, #44]	@ 0x2c
 80041e2:	f013 0f01 	tst.w	r3, #1
 80041e6:	9b04      	ldr	r3, [sp, #16]
 80041e8:	d03d      	beq.n	8004266 <_UG_PutChar+0x17a>
 80041ea:	2b00      	cmp	r3, #0
 80041ec:	d030      	beq.n	8004250 <_UG_PutChar+0x164>
 80041ee:	f1bb 0f00 	cmp.w	fp, #0
 80041f2:	d023      	beq.n	800423c <_UG_PutChar+0x150>
 80041f4:	9b03      	ldr	r3, [sp, #12]
 80041f6:	2b00      	cmp	r3, #0
 80041f8:	f040 8129 	bne.w	800444e <_UG_PutChar+0x362>
 80041fc:	4658      	mov	r0, fp
 80041fe:	9905      	ldr	r1, [sp, #20]
 8004200:	47b8      	blx	r7
 8004202:	f04f 0b00 	mov.w	fp, #0
 8004206:	3401      	adds	r4, #1
 8004208:	b2a4      	uxth	r4, r4
 800420a:	9b0b      	ldr	r3, [sp, #44]	@ 0x2c
 800420c:	085b      	lsrs	r3, r3, #1
 800420e:	930b      	str	r3, [sp, #44]	@ 0x2c
 8004210:	f108 0301 	add.w	r3, r8, #1
 8004214:	fa0f f883 	sxth.w	r8, r3
 8004218:	9b0d      	ldr	r3, [sp, #52]	@ 0x34
 800421a:	4543      	cmp	r3, r8
 800421c:	d001      	beq.n	8004222 <_UG_PutChar+0x136>
 800421e:	45c2      	cmp	sl, r8
 8004220:	d1de      	bne.n	80041e0 <_UG_PutChar+0xf4>
 8004222:	9b08      	ldr	r3, [sp, #32]
 8004224:	3301      	adds	r3, #1
 8004226:	9308      	str	r3, [sp, #32]
 8004228:	f8bd 3020 	ldrh.w	r3, [sp, #32]
 800422c:	9a0a      	ldr	r2, [sp, #40]	@ 0x28
 800422e:	4293      	cmp	r3, r2
 8004230:	d3c7      	bcc.n	80041c2 <_UG_PutChar+0xd6>
 8004232:	9b02      	ldr	r3, [sp, #8]
 8004234:	3301      	adds	r3, #1
 8004236:	b29b      	uxth	r3, r3
 8004238:	9302      	str	r3, [sp, #8]
 800423a:	e7a4      	b.n	8004186 <_UG_PutChar+0x9a>
 800423c:	2c00      	cmp	r4, #0
 800423e:	d1e0      	bne.n	8004202 <_UG_PutChar+0x116>
 8004240:	9b03      	ldr	r3, [sp, #12]
 8004242:	2b00      	cmp	r3, #0
 8004244:	d0df      	beq.n	8004206 <_UG_PutChar+0x11a>
 8004246:	eb09 0508 	add.w	r5, r9, r8
 800424a:	9e02      	ldr	r6, [sp, #8]
 800424c:	b2ad      	uxth	r5, r5
 800424e:	e7da      	b.n	8004206 <_UG_PutChar+0x11a>
 8004250:	4b33      	ldr	r3, [pc, #204]	@ (8004320 <_UG_PutChar+0x234>)
 8004252:	9a01      	ldr	r2, [sp, #4]
 8004254:	681b      	ldr	r3, [r3, #0]
 8004256:	990e      	ldr	r1, [sp, #56]	@ 0x38
 8004258:	681b      	ldr	r3, [r3, #0]
 800425a:	eb09 0008 	add.w	r0, r9, r8
 800425e:	685b      	ldr	r3, [r3, #4]
 8004260:	b200      	sxth	r0, r0
 8004262:	4798      	blx	r3
 8004264:	e7d1      	b.n	800420a <_UG_PutChar+0x11e>
 8004266:	2b00      	cmp	r3, #0
 8004268:	d049      	beq.n	80042fe <_UG_PutChar+0x212>
 800426a:	2c00      	cmp	r4, #0
 800426c:	d03d      	beq.n	80042ea <_UG_PutChar+0x1fe>
 800426e:	9b03      	ldr	r3, [sp, #12]
 8004270:	2b00      	cmp	r3, #0
 8004272:	d037      	beq.n	80042e4 <_UG_PutChar+0x1f8>
 8004274:	9b06      	ldr	r3, [sp, #24]
 8004276:	45a9      	cmp	r9, r5
 8004278:	9309      	str	r3, [sp, #36]	@ 0x24
 800427a:	f8bd 3040 	ldrh.w	r3, [sp, #64]	@ 0x40
 800427e:	9307      	str	r3, [sp, #28]
 8004280:	eba3 0305 	sub.w	r3, r3, r5
 8004284:	b29b      	uxth	r3, r3
 8004286:	d01f      	beq.n	80042c8 <_UG_PutChar+0x1dc>
 8004288:	42a3      	cmp	r3, r4
 800428a:	d81d      	bhi.n	80042c8 <_UG_PutChar+0x1dc>
 800428c:	9b07      	ldr	r3, [sp, #28]
 800428e:	1e5a      	subs	r2, r3, #1
 8004290:	b212      	sxth	r2, r2
 8004292:	4923      	ldr	r1, [pc, #140]	@ (8004320 <_UG_PutChar+0x234>)
 8004294:	b233      	sxth	r3, r6
 8004296:	6809      	ldr	r1, [r1, #0]
 8004298:	b228      	sxth	r0, r5
 800429a:	6e4f      	ldr	r7, [r1, #100]	@ 0x64
 800429c:	4619      	mov	r1, r3
 800429e:	9211      	str	r2, [sp, #68]	@ 0x44
 80042a0:	47b8      	blx	r7
 80042a2:	9901      	ldr	r1, [sp, #4]
 80042a4:	4607      	mov	r7, r0
 80042a6:	4620      	mov	r0, r4
 80042a8:	47b8      	blx	r7
 80042aa:	9b07      	ldr	r3, [sp, #28]
 80042ac:	442c      	add	r4, r5
 80042ae:	1ae4      	subs	r4, r4, r3
 80042b0:	3601      	adds	r6, #1
 80042b2:	b2a4      	uxth	r4, r4
 80042b4:	9a11      	ldr	r2, [sp, #68]	@ 0x44
 80042b6:	b2b6      	uxth	r6, r6
 80042b8:	b1c4      	cbz	r4, 80042ec <_UG_PutChar+0x200>
 80042ba:	9b06      	ldr	r3, [sp, #24]
 80042bc:	454b      	cmp	r3, r9
 80042be:	d01c      	beq.n	80042fa <_UG_PutChar+0x20e>
 80042c0:	9b0f      	ldr	r3, [sp, #60]	@ 0x3c
 80042c2:	9d06      	ldr	r5, [sp, #24]
 80042c4:	42a3      	cmp	r3, r4
 80042c6:	d9e4      	bls.n	8004292 <_UG_PutChar+0x1a6>
 80042c8:	fb94 f3fa 	sdiv	r3, r4, sl
 80042cc:	4914      	ldr	r1, [pc, #80]	@ (8004320 <_UG_PutChar+0x234>)
 80042ce:	9a07      	ldr	r2, [sp, #28]
 80042d0:	6809      	ldr	r1, [r1, #0]
 80042d2:	4433      	add	r3, r6
 80042d4:	3a01      	subs	r2, #1
 80042d6:	6e4f      	ldr	r7, [r1, #100]	@ 0x64
 80042d8:	b21b      	sxth	r3, r3
 80042da:	b212      	sxth	r2, r2
 80042dc:	b231      	sxth	r1, r6
 80042de:	b228      	sxth	r0, r5
 80042e0:	47b8      	blx	r7
 80042e2:	4607      	mov	r7, r0
 80042e4:	4620      	mov	r0, r4
 80042e6:	9901      	ldr	r1, [sp, #4]
 80042e8:	47b8      	blx	r7
 80042ea:	9509      	str	r5, [sp, #36]	@ 0x24
 80042ec:	f10b 0301 	add.w	r3, fp, #1
 80042f0:	2400      	movs	r4, #0
 80042f2:	9d09      	ldr	r5, [sp, #36]	@ 0x24
 80042f4:	fa1f fb83 	uxth.w	fp, r3
 80042f8:	e787      	b.n	800420a <_UG_PutChar+0x11e>
 80042fa:	9d06      	ldr	r5, [sp, #24]
 80042fc:	e7e4      	b.n	80042c8 <_UG_PutChar+0x1dc>
 80042fe:	9b03      	ldr	r3, [sp, #12]
 8004300:	2b00      	cmp	r3, #0
 8004302:	d182      	bne.n	800420a <_UG_PutChar+0x11e>
 8004304:	4b06      	ldr	r3, [pc, #24]	@ (8004320 <_UG_PutChar+0x234>)
 8004306:	9a05      	ldr	r2, [sp, #20]
 8004308:	681b      	ldr	r3, [r3, #0]
 800430a:	f9bd 1008 	ldrsh.w	r1, [sp, #8]
 800430e:	681b      	ldr	r3, [r3, #0]
 8004310:	eb09 0008 	add.w	r0, r9, r8
 8004314:	685b      	ldr	r3, [r3, #4]
 8004316:	e7a3      	b.n	8004260 <_UG_PutChar+0x174>
 8004318:	2300      	movs	r3, #0
 800431a:	4698      	mov	r8, r3
 800431c:	9308      	str	r3, [sp, #32]
 800431e:	e783      	b.n	8004228 <_UG_PutChar+0x13c>
 8004320:	20000728 	.word	0x20000728
 8004324:	2c00      	cmp	r4, #0
 8004326:	f43f af46 	beq.w	80041b6 <_UG_PutChar+0xca>
 800432a:	9b03      	ldr	r3, [sp, #12]
 800432c:	2b00      	cmp	r3, #0
 800432e:	d03a      	beq.n	80043a6 <_UG_PutChar+0x2ba>
 8004330:	fa1f f889 	uxth.w	r8, r9
 8004334:	fa1f fb8a 	uxth.w	fp, sl
 8004338:	eb0b 0708 	add.w	r7, fp, r8
 800433c:	b2bf      	uxth	r7, r7
 800433e:	1b7b      	subs	r3, r7, r5
 8004340:	45a9      	cmp	r9, r5
 8004342:	b29b      	uxth	r3, r3
 8004344:	d01e      	beq.n	8004384 <_UG_PutChar+0x298>
 8004346:	429c      	cmp	r4, r3
 8004348:	d31c      	bcc.n	8004384 <_UG_PutChar+0x298>
 800434a:	1e7a      	subs	r2, r7, #1
 800434c:	b212      	sxth	r2, r2
 800434e:	4944      	ldr	r1, [pc, #272]	@ (8004460 <_UG_PutChar+0x374>)
 8004350:	b233      	sxth	r3, r6
 8004352:	6809      	ldr	r1, [r1, #0]
 8004354:	b228      	sxth	r0, r5
 8004356:	6e49      	ldr	r1, [r1, #100]	@ 0x64
 8004358:	9202      	str	r2, [sp, #8]
 800435a:	468c      	mov	ip, r1
 800435c:	4619      	mov	r1, r3
 800435e:	47e0      	blx	ip
 8004360:	4603      	mov	r3, r0
 8004362:	4620      	mov	r0, r4
 8004364:	442c      	add	r4, r5
 8004366:	1be4      	subs	r4, r4, r7
 8004368:	9901      	ldr	r1, [sp, #4]
 800436a:	3601      	adds	r6, #1
 800436c:	b2a4      	uxth	r4, r4
 800436e:	4798      	blx	r3
 8004370:	b2b6      	uxth	r6, r6
 8004372:	9a02      	ldr	r2, [sp, #8]
 8004374:	2c00      	cmp	r4, #0
 8004376:	f43f af1e 	beq.w	80041b6 <_UG_PutChar+0xca>
 800437a:	45c8      	cmp	r8, r9
 800437c:	4645      	mov	r5, r8
 800437e:	d001      	beq.n	8004384 <_UG_PutChar+0x298>
 8004380:	45a3      	cmp	fp, r4
 8004382:	d9e4      	bls.n	800434e <_UG_PutChar+0x262>
 8004384:	fb94 f3fa 	sdiv	r3, r4, sl
 8004388:	4935      	ldr	r1, [pc, #212]	@ (8004460 <_UG_PutChar+0x374>)
 800438a:	4433      	add	r3, r6
 800438c:	6809      	ldr	r1, [r1, #0]
 800438e:	1e7a      	subs	r2, r7, #1
 8004390:	b21b      	sxth	r3, r3
 8004392:	6e4f      	ldr	r7, [r1, #100]	@ 0x64
 8004394:	b212      	sxth	r2, r2
 8004396:	b231      	sxth	r1, r6
 8004398:	b228      	sxth	r0, r5
 800439a:	47b8      	blx	r7
 800439c:	9901      	ldr	r1, [sp, #4]
 800439e:	4603      	mov	r3, r0
 80043a0:	4620      	mov	r0, r4
 80043a2:	4798      	blx	r3
 80043a4:	e707      	b.n	80041b6 <_UG_PutChar+0xca>
 80043a6:	4620      	mov	r0, r4
 80043a8:	9901      	ldr	r1, [sp, #4]
 80043aa:	e703      	b.n	80041b4 <_UG_PutChar+0xc8>
 80043ac:	2b01      	cmp	r3, #1
 80043ae:	f47f af02 	bne.w	80041b6 <_UG_PutChar+0xca>
 80043b2:	f89d 3004 	ldrb.w	r3, [sp, #4]
 80043b6:	2600      	movs	r6, #0
 80043b8:	9302      	str	r3, [sp, #8]
 80043ba:	e02d      	b.n	8004418 <_UG_PutChar+0x32c>
 80043bc:	7818      	ldrb	r0, [r3, #0]
 80043be:	1c5a      	adds	r2, r3, #1
 80043c0:	f89d 3014 	ldrb.w	r3, [sp, #20]
 80043c4:	f5c0 7c80 	rsb	ip, r0, #256	@ 0x100
 80043c8:	fb0c f303 	mul.w	r3, ip, r3
 80043cc:	9213      	str	r2, [sp, #76]	@ 0x4c
 80043ce:	9a02      	ldr	r2, [sp, #8]
 80043d0:	fb00 3302 	mla	r3, r0, r2, r3
 80043d4:	9a01      	ldr	r2, [sp, #4]
 80043d6:	f3c3 2307 	ubfx	r3, r3, #8, #8
 80043da:	f402 417f 	and.w	r1, r2, #65280	@ 0xff00
 80043de:	9a05      	ldr	r2, [sp, #20]
 80043e0:	f402 427f 	and.w	r2, r2, #65280	@ 0xff00
 80043e4:	fb0c f202 	mul.w	r2, ip, r2
 80043e8:	fb00 2201 	mla	r2, r0, r1, r2
 80043ec:	1212      	asrs	r2, r2, #8
 80043ee:	f402 427f 	and.w	r2, r2, #65280	@ 0xff00
 80043f2:	431a      	orrs	r2, r3
 80043f4:	9b04      	ldr	r3, [sp, #16]
 80043f6:	b1e3      	cbz	r3, 8004432 <_UG_PutChar+0x346>
 80043f8:	4611      	mov	r1, r2
 80043fa:	2001      	movs	r0, #1
 80043fc:	47b8      	blx	r7
 80043fe:	3501      	adds	r5, #1
 8004400:	4555      	cmp	r5, sl
 8004402:	9b13      	ldr	r3, [sp, #76]	@ 0x4c
 8004404:	dbda      	blt.n	80043bc <_UG_PutChar+0x2d0>
 8004406:	4a16      	ldr	r2, [pc, #88]	@ (8004460 <_UG_PutChar+0x374>)
 8004408:	3601      	adds	r6, #1
 800440a:	6812      	ldr	r2, [r2, #0]
 800440c:	f892 202e 	ldrb.w	r2, [r2, #46]	@ 0x2e
 8004410:	eba2 020a 	sub.w	r2, r2, sl
 8004414:	4413      	add	r3, r2
 8004416:	9313      	str	r3, [sp, #76]	@ 0x4c
 8004418:	f8df b044 	ldr.w	fp, [pc, #68]	@ 8004460 <_UG_PutChar+0x374>
 800441c:	fa1f f886 	uxth.w	r8, r6
 8004420:	f8db 3000 	ldr.w	r3, [fp]
 8004424:	f893 302f 	ldrb.w	r3, [r3, #47]	@ 0x2f
 8004428:	4543      	cmp	r3, r8
 800442a:	f67f aec4 	bls.w	80041b6 <_UG_PutChar+0xca>
 800442e:	2500      	movs	r5, #0
 8004430:	e7e6      	b.n	8004400 <_UG_PutChar+0x314>
 8004432:	f8db 3000 	ldr.w	r3, [fp]
 8004436:	eb08 0104 	add.w	r1, r8, r4
 800443a:	681b      	ldr	r3, [r3, #0]
 800443c:	eb05 0009 	add.w	r0, r5, r9
 8004440:	685b      	ldr	r3, [r3, #4]
 8004442:	b209      	sxth	r1, r1
 8004444:	b200      	sxth	r0, r0
 8004446:	4798      	blx	r3
 8004448:	e7d9      	b.n	80043fe <_UG_PutChar+0x312>
 800444a:	469a      	mov	sl, r3
 800444c:	e6b3      	b.n	80041b6 <_UG_PutChar+0xca>
 800444e:	2c00      	cmp	r4, #0
 8004450:	f43f aef9 	beq.w	8004246 <_UG_PutChar+0x15a>
 8004454:	e6d7      	b.n	8004206 <_UG_PutChar+0x11a>
 8004456:	2c00      	cmp	r4, #0
 8004458:	f43f aead 	beq.w	80041b6 <_UG_PutChar+0xca>
 800445c:	e768      	b.n	8004330 <_UG_PutChar+0x244>
 800445e:	bf00      	nop
 8004460:	20000728 	.word	0x20000728

08004464 <_UG_DecodeUTF8>:
 8004464:	b510      	push	{r4, lr}
 8004466:	6803      	ldr	r3, [r0, #0]
 8004468:	4601      	mov	r1, r0
 800446a:	f993 2000 	ldrsb.w	r2, [r3]
 800446e:	7818      	ldrb	r0, [r3, #0]
 8004470:	2a00      	cmp	r2, #0
 8004472:	db2e      	blt.n	80044d2 <_UG_DecodeUTF8+0x6e>
 8004474:	3301      	adds	r3, #1
 8004476:	600b      	str	r3, [r1, #0]
 8004478:	bd10      	pop	{r4, pc}
 800447a:	3401      	adds	r4, #1
 800447c:	600c      	str	r4, [r1, #0]
 800447e:	b9f2      	cbnz	r2, 80044be <_UG_DecodeUTF8+0x5a>
 8004480:	2bdf      	cmp	r3, #223	@ 0xdf
 8004482:	d807      	bhi.n	8004494 <_UG_DecodeUTF8+0x30>
 8004484:	2201      	movs	r2, #1
 8004486:	f003 001f 	and.w	r0, r3, #31
 800448a:	680c      	ldr	r4, [r1, #0]
 800448c:	7823      	ldrb	r3, [r4, #0]
 800448e:	2b00      	cmp	r3, #0
 8004490:	d1f3      	bne.n	800447a <_UG_DecodeUTF8+0x16>
 8004492:	e7f1      	b.n	8004478 <_UG_DecodeUTF8+0x14>
 8004494:	2bef      	cmp	r3, #239	@ 0xef
 8004496:	d803      	bhi.n	80044a0 <_UG_DecodeUTF8+0x3c>
 8004498:	2202      	movs	r2, #2
 800449a:	f003 000f 	and.w	r0, r3, #15
 800449e:	e7f4      	b.n	800448a <_UG_DecodeUTF8+0x26>
 80044a0:	2bf7      	cmp	r3, #247	@ 0xf7
 80044a2:	d803      	bhi.n	80044ac <_UG_DecodeUTF8+0x48>
 80044a4:	2203      	movs	r2, #3
 80044a6:	f003 0007 	and.w	r0, r3, #7
 80044aa:	e7ee      	b.n	800448a <_UG_DecodeUTF8+0x26>
 80044ac:	2bfb      	cmp	r3, #251	@ 0xfb
 80044ae:	bf95      	itete	ls
 80044b0:	2204      	movls	r2, #4
 80044b2:	2205      	movhi	r2, #5
 80044b4:	f003 0003 	andls.w	r0, r3, #3
 80044b8:	f003 0001 	andhi.w	r0, r3, #1
 80044bc:	e7e5      	b.n	800448a <_UG_DecodeUTF8+0x26>
 80044be:	f003 033f 	and.w	r3, r3, #63	@ 0x3f
 80044c2:	3a01      	subs	r2, #1
 80044c4:	ea43 1380 	orr.w	r3, r3, r0, lsl #6
 80044c8:	f012 02ff 	ands.w	r2, r2, #255	@ 0xff
 80044cc:	b298      	uxth	r0, r3
 80044ce:	d1dc      	bne.n	800448a <_UG_DecodeUTF8+0x26>
 80044d0:	e7d2      	b.n	8004478 <_UG_DecodeUTF8+0x14>
 80044d2:	2000      	movs	r0, #0
 80044d4:	4602      	mov	r2, r0
 80044d6:	e7d8      	b.n	800448a <_UG_DecodeUTF8+0x26>

080044d8 <UG_Init>:
 80044d8:	f04f 1204 	mov.w	r2, #262148	@ 0x40004
 80044dc:	4603      	mov	r3, r0
 80044de:	61c2      	str	r2, [r0, #28]
 80044e0:	6001      	str	r1, [r0, #0]
 80044e2:	884a      	ldrh	r2, [r1, #2]
 80044e4:	8808      	ldrh	r0, [r1, #0]
 80044e6:	f64f 71ff 	movw	r1, #65535	@ 0xffff
 80044ea:	3a05      	subs	r2, #5
 80044ec:	b212      	sxth	r2, r2
 80044ee:	845a      	strh	r2, [r3, #34]	@ 0x22
 80044f0:	835a      	strh	r2, [r3, #26]
 80044f2:	3805      	subs	r0, #5
 80044f4:	2200      	movs	r2, #0
 80044f6:	b200      	sxth	r0, r0
 80044f8:	8418      	strh	r0, [r3, #32]
 80044fa:	8318      	strh	r0, [r3, #24]
 80044fc:	64d9      	str	r1, [r3, #76]	@ 0x4c
 80044fe:	2001      	movs	r0, #1
 8004500:	f645 415d 	movw	r1, #23645	@ 0x5c5d
 8004504:	e9c3 220e 	strd	r2, r2, [r3, #56]	@ 0x38
 8004508:	e9c3 2210 	strd	r2, r2, [r3, #64]	@ 0x40
 800450c:	e9c3 2203 	strd	r2, r2, [r3, #12]
 8004510:	629a      	str	r2, [r3, #40]	@ 0x28
 8004512:	85da      	strh	r2, [r3, #46]	@ 0x2e
 8004514:	631a      	str	r2, [r3, #48]	@ 0x30
 8004516:	869a      	strh	r2, [r3, #52]	@ 0x34
 8004518:	615a      	str	r2, [r3, #20]
 800451a:	655a      	str	r2, [r3, #84]	@ 0x54
 800451c:	f883 2058 	strb.w	r2, [r3, #88]	@ 0x58
 8004520:	65da      	str	r2, [r3, #92]	@ 0x5c
 8004522:	f883 2060 	strb.w	r2, [r3, #96]	@ 0x60
 8004526:	665a      	str	r2, [r3, #100]	@ 0x64
 8004528:	f883 2068 	strb.w	r2, [r3, #104]	@ 0x68
 800452c:	66da      	str	r2, [r3, #108]	@ 0x6c
 800452e:	f883 2070 	strb.w	r2, [r3, #112]	@ 0x70
 8004532:	4a04      	ldr	r2, [pc, #16]	@ (8004544 <UG_Init+0x6c>)
 8004534:	f883 0049 	strb.w	r0, [r3, #73]	@ 0x49
 8004538:	f883 004a 	strb.w	r0, [r3, #74]	@ 0x4a
 800453c:	f8a3 1050 	strh.w	r1, [r3, #80]	@ 0x50
 8004540:	6013      	str	r3, [r2, #0]
 8004542:	4770      	bx	lr
 8004544:	20000728 	.word	0x20000728

08004548 <UG_FontSelect>:
 8004548:	4b01      	ldr	r3, [pc, #4]	@ (8004550 <UG_FontSelect+0x8>)
 800454a:	681b      	ldr	r3, [r3, #0]
 800454c:	6298      	str	r0, [r3, #40]	@ 0x28
 800454e:	4770      	bx	lr
 8004550:	20000728 	.word	0x20000728

08004554 <UG_FillFrame>:
 8004554:	4282      	cmp	r2, r0
 8004556:	e92d 47f3 	stmdb	sp!, {r0, r1, r4, r5, r6, r7, r8, r9, sl, lr}
 800455a:	461c      	mov	r4, r3
 800455c:	bfa8      	it	ge
 800455e:	4613      	movge	r3, r2
 8004560:	4617      	mov	r7, r2
 8004562:	4606      	mov	r6, r0
 8004564:	bfa4      	itt	ge
 8004566:	4607      	movge	r7, r0
 8004568:	461e      	movge	r6, r3
 800456a:	428c      	cmp	r4, r1
 800456c:	bfa8      	it	ge
 800456e:	4623      	movge	r3, r4
 8004570:	f8df a05c 	ldr.w	sl, [pc, #92]	@ 80045d0 <UG_FillFrame+0x7c>
 8004574:	460d      	mov	r5, r1
 8004576:	bfa8      	it	ge
 8004578:	461d      	movge	r5, r3
 800457a:	f8da 3000 	ldr.w	r3, [sl]
 800457e:	bfa8      	it	ge
 8004580:	460c      	movge	r4, r1
 8004582:	f893 2060 	ldrb.w	r2, [r3, #96]	@ 0x60
 8004586:	f8bd 9028 	ldrh.w	r9, [sp, #40]	@ 0x28
 800458a:	0792      	lsls	r2, r2, #30
 800458c:	d51c      	bpl.n	80045c8 <UG_FillFrame+0x74>
 800458e:	f8cd 9000 	str.w	r9, [sp]
 8004592:	f8d3 805c 	ldr.w	r8, [r3, #92]	@ 0x5c
 8004596:	4632      	mov	r2, r6
 8004598:	462b      	mov	r3, r5
 800459a:	4621      	mov	r1, r4
 800459c:	4638      	mov	r0, r7
 800459e:	47c0      	blx	r8
 80045a0:	b990      	cbnz	r0, 80045c8 <UG_FillFrame+0x74>
 80045a2:	b002      	add	sp, #8
 80045a4:	e8bd 87f0 	ldmia.w	sp!, {r4, r5, r6, r7, r8, r9, sl, pc}
 80045a8:	f8da 3000 	ldr.w	r3, [sl]
 80045ac:	4640      	mov	r0, r8
 80045ae:	681b      	ldr	r3, [r3, #0]
 80045b0:	464a      	mov	r2, r9
 80045b2:	4621      	mov	r1, r4
 80045b4:	685b      	ldr	r3, [r3, #4]
 80045b6:	4798      	blx	r3
 80045b8:	f108 0801 	add.w	r8, r8, #1
 80045bc:	fa0f f888 	sxth.w	r8, r8
 80045c0:	4546      	cmp	r6, r8
 80045c2:	daf1      	bge.n	80045a8 <UG_FillFrame+0x54>
 80045c4:	3401      	adds	r4, #1
 80045c6:	b224      	sxth	r4, r4
 80045c8:	42a5      	cmp	r5, r4
 80045ca:	dbea      	blt.n	80045a2 <UG_FillFrame+0x4e>
 80045cc:	46b8      	mov	r8, r7
 80045ce:	e7f7      	b.n	80045c0 <UG_FillFrame+0x6c>
 80045d0:	20000728 	.word	0x20000728

080045d4 <UG_FillScreen>:
 80045d4:	b507      	push	{r0, r1, r2, lr}
 80045d6:	2100      	movs	r1, #0
 80045d8:	4b07      	ldr	r3, [pc, #28]	@ (80045f8 <UG_FillScreen+0x24>)
 80045da:	681b      	ldr	r3, [r3, #0]
 80045dc:	681a      	ldr	r2, [r3, #0]
 80045de:	8853      	ldrh	r3, [r2, #2]
 80045e0:	8812      	ldrh	r2, [r2, #0]
 80045e2:	3b01      	subs	r3, #1
 80045e4:	3a01      	subs	r2, #1
 80045e6:	9000      	str	r0, [sp, #0]
 80045e8:	b21b      	sxth	r3, r3
 80045ea:	4608      	mov	r0, r1
 80045ec:	b212      	sxth	r2, r2
 80045ee:	f7ff ffb1 	bl	8004554 <UG_FillFrame>
 80045f2:	b003      	add	sp, #12
 80045f4:	f85d fb04 	ldr.w	pc, [sp], #4
 80045f8:	20000728 	.word	0x20000728

080045fc <UG_DrawPixel>:
 80045fc:	4b02      	ldr	r3, [pc, #8]	@ (8004608 <UG_DrawPixel+0xc>)
 80045fe:	681b      	ldr	r3, [r3, #0]
 8004600:	681b      	ldr	r3, [r3, #0]
 8004602:	685b      	ldr	r3, [r3, #4]
 8004604:	4718      	bx	r3
 8004606:	bf00      	nop
 8004608:	20000728 	.word	0x20000728

0800460c <UG_DrawLine>:
 800460c:	e92d 4ff0 	stmdb	sp!, {r4, r5, r6, r7, r8, r9, sl, fp, lr}
 8004610:	f8df a10c 	ldr.w	sl, [pc, #268]	@ 8004720 <UG_DrawLine+0x114>
 8004614:	b087      	sub	sp, #28
 8004616:	f8da c000 	ldr.w	ip, [sl]
 800461a:	4604      	mov	r4, r0
 800461c:	f89c e058 	ldrb.w	lr, [ip, #88]	@ 0x58
 8004620:	460d      	mov	r5, r1
 8004622:	f01e 0f02 	tst.w	lr, #2
 8004626:	4616      	mov	r6, r2
 8004628:	461f      	mov	r7, r3
 800462a:	f8bd 8040 	ldrh.w	r8, [sp, #64]	@ 0x40
 800462e:	d14a      	bne.n	80046c6 <UG_DrawLine+0xba>
 8004630:	1b32      	subs	r2, r6, r4
 8004632:	b212      	sxth	r2, r2
 8004634:	2a00      	cmp	r2, #0
 8004636:	eba7 0305 	sub.w	r3, r7, r5
 800463a:	ea82 77e2 	eor.w	r7, r2, r2, asr #31
 800463e:	eba7 77e2 	sub.w	r7, r7, r2, asr #31
 8004642:	bfcc      	ite	gt
 8004644:	2201      	movgt	r2, #1
 8004646:	f04f 32ff 	movle.w	r2, #4294967295
 800464a:	b21b      	sxth	r3, r3
 800464c:	ea83 76e3 	eor.w	r6, r3, r3, asr #31
 8004650:	2b00      	cmp	r3, #0
 8004652:	eba6 76e3 	sub.w	r6, r6, r3, asr #31
 8004656:	f8da 3000 	ldr.w	r3, [sl]
 800465a:	b2b9      	uxth	r1, r7
 800465c:	681b      	ldr	r3, [r3, #0]
 800465e:	9103      	str	r1, [sp, #12]
 8004660:	b2b1      	uxth	r1, r6
 8004662:	9104      	str	r1, [sp, #16]
 8004664:	9205      	str	r2, [sp, #20]
 8004666:	4629      	mov	r1, r5
 8004668:	4642      	mov	r2, r8
 800466a:	4620      	mov	r0, r4
 800466c:	685b      	ldr	r3, [r3, #4]
 800466e:	b23f      	sxth	r7, r7
 8004670:	b236      	sxth	r6, r6
 8004672:	bfd4      	ite	le
 8004674:	f04f 39ff 	movle.w	r9, #4294967295
 8004678:	f04f 0901 	movgt.w	r9, #1
 800467c:	4798      	blx	r3
 800467e:	42b7      	cmp	r7, r6
 8004680:	da2b      	bge.n	80046da <UG_DrawLine+0xce>
 8004682:	f04f 0a00 	mov.w	sl, #0
 8004686:	f8df b098 	ldr.w	fp, [pc, #152]	@ 8004720 <UG_DrawLine+0x114>
 800468a:	1077      	asrs	r7, r6, #1
 800468c:	fa0f f38a 	sxth.w	r3, sl
 8004690:	429e      	cmp	r6, r3
 8004692:	dd1f      	ble.n	80046d4 <UG_DrawLine+0xc8>
 8004694:	9b03      	ldr	r3, [sp, #12]
 8004696:	441f      	add	r7, r3
 8004698:	b2bb      	uxth	r3, r7
 800469a:	b23f      	sxth	r7, r7
 800469c:	42be      	cmp	r6, r7
 800469e:	dc05      	bgt.n	80046ac <UG_DrawLine+0xa0>
 80046a0:	9a04      	ldr	r2, [sp, #16]
 80046a2:	1a9b      	subs	r3, r3, r2
 80046a4:	b21f      	sxth	r7, r3
 80046a6:	9b05      	ldr	r3, [sp, #20]
 80046a8:	441c      	add	r4, r3
 80046aa:	b224      	sxth	r4, r4
 80046ac:	f8db 3000 	ldr.w	r3, [fp]
 80046b0:	444d      	add	r5, r9
 80046b2:	681b      	ldr	r3, [r3, #0]
 80046b4:	b22d      	sxth	r5, r5
 80046b6:	4642      	mov	r2, r8
 80046b8:	4629      	mov	r1, r5
 80046ba:	4620      	mov	r0, r4
 80046bc:	685b      	ldr	r3, [r3, #4]
 80046be:	4798      	blx	r3
 80046c0:	f10a 0a01 	add.w	sl, sl, #1
 80046c4:	e7e2      	b.n	800468c <UG_DrawLine+0x80>
 80046c6:	f8cd 8000 	str.w	r8, [sp]
 80046ca:	f8dc 9054 	ldr.w	r9, [ip, #84]	@ 0x54
 80046ce:	47c8      	blx	r9
 80046d0:	2800      	cmp	r0, #0
 80046d2:	d1ad      	bne.n	8004630 <UG_DrawLine+0x24>
 80046d4:	b007      	add	sp, #28
 80046d6:	e8bd 8ff0 	ldmia.w	sp!, {r4, r5, r6, r7, r8, r9, sl, fp, pc}
 80046da:	f04f 0a00 	mov.w	sl, #0
 80046de:	f8df b040 	ldr.w	fp, [pc, #64]	@ 8004720 <UG_DrawLine+0x114>
 80046e2:	107e      	asrs	r6, r7, #1
 80046e4:	fa0f f38a 	sxth.w	r3, sl
 80046e8:	429f      	cmp	r7, r3
 80046ea:	ddf3      	ble.n	80046d4 <UG_DrawLine+0xc8>
 80046ec:	9b04      	ldr	r3, [sp, #16]
 80046ee:	441e      	add	r6, r3
 80046f0:	b2b3      	uxth	r3, r6
 80046f2:	b236      	sxth	r6, r6
 80046f4:	42b7      	cmp	r7, r6
 80046f6:	dc04      	bgt.n	8004702 <UG_DrawLine+0xf6>
 80046f8:	9a03      	ldr	r2, [sp, #12]
 80046fa:	444d      	add	r5, r9
 80046fc:	1a9b      	subs	r3, r3, r2
 80046fe:	b21e      	sxth	r6, r3
 8004700:	b22d      	sxth	r5, r5
 8004702:	9b05      	ldr	r3, [sp, #20]
 8004704:	4642      	mov	r2, r8
 8004706:	441c      	add	r4, r3
 8004708:	f8db 3000 	ldr.w	r3, [fp]
 800470c:	b224      	sxth	r4, r4
 800470e:	681b      	ldr	r3, [r3, #0]
 8004710:	4629      	mov	r1, r5
 8004712:	4620      	mov	r0, r4
 8004714:	685b      	ldr	r3, [r3, #4]
 8004716:	4798      	blx	r3
 8004718:	f10a 0a01 	add.w	sl, sl, #1
 800471c:	e7e2      	b.n	80046e4 <UG_DrawLine+0xd8>
 800471e:	bf00      	nop
 8004720:	20000728 	.word	0x20000728

08004724 <UG_DrawFrame>:
 8004724:	e92d 41f3 	stmdb	sp!, {r0, r1, r4, r5, r6, r7, r8, lr}
 8004728:	461c      	mov	r4, r3
 800472a:	4680      	mov	r8, r0
 800472c:	4616      	mov	r6, r2
 800472e:	460d      	mov	r5, r1
 8004730:	f8bd 7020 	ldrh.w	r7, [sp, #32]
 8004734:	460b      	mov	r3, r1
 8004736:	9700      	str	r7, [sp, #0]
 8004738:	f7ff ff68 	bl	800460c <UG_DrawLine>
 800473c:	4623      	mov	r3, r4
 800473e:	4632      	mov	r2, r6
 8004740:	4621      	mov	r1, r4
 8004742:	4640      	mov	r0, r8
 8004744:	9700      	str	r7, [sp, #0]
 8004746:	f7ff ff61 	bl	800460c <UG_DrawLine>
 800474a:	4623      	mov	r3, r4
 800474c:	4642      	mov	r2, r8
 800474e:	4629      	mov	r1, r5
 8004750:	4640      	mov	r0, r8
 8004752:	9700      	str	r7, [sp, #0]
 8004754:	f7ff ff5a 	bl	800460c <UG_DrawLine>
 8004758:	4623      	mov	r3, r4
 800475a:	4632      	mov	r2, r6
 800475c:	4629      	mov	r1, r5
 800475e:	4630      	mov	r0, r6
 8004760:	9708      	str	r7, [sp, #32]
 8004762:	b002      	add	sp, #8
 8004764:	e8bd 41f0 	ldmia.w	sp!, {r4, r5, r6, r7, r8, lr}
 8004768:	f7ff bf50 	b.w	800460c <UG_DrawLine>

0800476c <UG_PutString>:
 800476c:	e92d 47ff 	stmdb	sp!, {r0, r1, r2, r3, r4, r5, r6, r7, r8, r9, sl, lr}
 8004770:	4680      	mov	r8, r0
 8004772:	f8df 90a8 	ldr.w	r9, [pc, #168]	@ 800481c <UG_PutString+0xb0>
 8004776:	460f      	mov	r7, r1
 8004778:	f8d9 3000 	ldr.w	r3, [r9]
 800477c:	9203      	str	r2, [sp, #12]
 800477e:	6a98      	ldr	r0, [r3, #40]	@ 0x28
 8004780:	f7ff fc82 	bl	8004088 <_UG_FontSelect>
 8004784:	4646      	mov	r6, r8
 8004786:	9b03      	ldr	r3, [sp, #12]
 8004788:	f8d9 4000 	ldr.w	r4, [r9]
 800478c:	781d      	ldrb	r5, [r3, #0]
 800478e:	b96d      	cbnz	r5, 80047ac <UG_PutString+0x40>
 8004790:	f894 3068 	ldrb.w	r3, [r4, #104]	@ 0x68
 8004794:	079b      	lsls	r3, r3, #30
 8004796:	d506      	bpl.n	80047a6 <UG_PutString+0x3a>
 8004798:	f04f 33ff 	mov.w	r3, #4294967295
 800479c:	6e64      	ldr	r4, [r4, #100]	@ 0x64
 800479e:	461a      	mov	r2, r3
 80047a0:	4619      	mov	r1, r3
 80047a2:	4618      	mov	r0, r3
 80047a4:	47a0      	blx	r4
 80047a6:	b004      	add	sp, #16
 80047a8:	e8bd 87f0 	ldmia.w	sp!, {r4, r5, r6, r7, r8, r9, sl, pc}
 80047ac:	f894 202d 	ldrb.w	r2, [r4, #45]	@ 0x2d
 80047b0:	b94a      	cbnz	r2, 80047c6 <UG_PutString+0x5a>
 80047b2:	a803      	add	r0, sp, #12
 80047b4:	f7ff fe56 	bl	8004464 <_UG_DecodeUTF8>
 80047b8:	4605      	mov	r5, r0
 80047ba:	2d0a      	cmp	r5, #10
 80047bc:	d106      	bne.n	80047cc <UG_PutString+0x60>
 80047be:	6823      	ldr	r3, [r4, #0]
 80047c0:	f9b3 6000 	ldrsh.w	r6, [r3]
 80047c4:	e7df      	b.n	8004786 <UG_PutString+0x1a>
 80047c6:	3301      	adds	r3, #1
 80047c8:	9303      	str	r3, [sp, #12]
 80047ca:	e7f6      	b.n	80047ba <UG_PutString+0x4e>
 80047cc:	2100      	movs	r1, #0
 80047ce:	4628      	mov	r0, r5
 80047d0:	f7ff fbcc 	bl	8003f6c <_UG_GetCharData>
 80047d4:	f1b0 3fff 	cmp.w	r0, #4294967295
 80047d8:	4682      	mov	sl, r0
 80047da:	d0d4      	beq.n	8004786 <UG_PutString+0x1a>
 80047dc:	6823      	ldr	r3, [r4, #0]
 80047de:	f9b3 2000 	ldrsh.w	r2, [r3]
 80047e2:	1833      	adds	r3, r6, r0
 80047e4:	429a      	cmp	r2, r3
 80047e6:	dc07      	bgt.n	80047f8 <UG_PutString+0x8c>
 80047e8:	4646      	mov	r6, r8
 80047ea:	f894 302f 	ldrb.w	r3, [r4, #47]	@ 0x2f
 80047ee:	f994 204a 	ldrsb.w	r2, [r4, #74]	@ 0x4a
 80047f2:	4413      	add	r3, r2
 80047f4:	443b      	add	r3, r7
 80047f6:	b21f      	sxth	r7, r3
 80047f8:	f8b4 204e 	ldrh.w	r2, [r4, #78]	@ 0x4e
 80047fc:	f8b4 304c 	ldrh.w	r3, [r4, #76]	@ 0x4c
 8004800:	4631      	mov	r1, r6
 8004802:	9200      	str	r2, [sp, #0]
 8004804:	4628      	mov	r0, r5
 8004806:	463a      	mov	r2, r7
 8004808:	f7ff fc70 	bl	80040ec <_UG_PutChar>
 800480c:	f8d9 3000 	ldr.w	r3, [r9]
 8004810:	f993 3049 	ldrsb.w	r3, [r3, #73]	@ 0x49
 8004814:	4453      	add	r3, sl
 8004816:	4433      	add	r3, r6
 8004818:	b21e      	sxth	r6, r3
 800481a:	e7b4      	b.n	8004786 <UG_PutString+0x1a>
 800481c:	20000728 	.word	0x20000728

08004820 <UG_SetForecolor>:
 8004820:	4b02      	ldr	r3, [pc, #8]	@ (800482c <UG_SetForecolor+0xc>)
 8004822:	681b      	ldr	r3, [r3, #0]
 8004824:	f8a3 004c 	strh.w	r0, [r3, #76]	@ 0x4c
 8004828:	4770      	bx	lr
 800482a:	bf00      	nop
 800482c:	20000728 	.word	0x20000728

08004830 <UG_SetBackcolor>:
 8004830:	4b02      	ldr	r3, [pc, #8]	@ (800483c <UG_SetBackcolor+0xc>)
 8004832:	681b      	ldr	r3, [r3, #0]
 8004834:	f8a3 004e 	strh.w	r0, [r3, #78]	@ 0x4e
 8004838:	4770      	bx	lr
 800483a:	bf00      	nop
 800483c:	20000728 	.word	0x20000728

08004840 <UG_FontSetHSpace>:
 8004840:	4b02      	ldr	r3, [pc, #8]	@ (800484c <UG_FontSetHSpace+0xc>)
 8004842:	681b      	ldr	r3, [r3, #0]
 8004844:	f883 0049 	strb.w	r0, [r3, #73]	@ 0x49
 8004848:	4770      	bx	lr
 800484a:	bf00      	nop
 800484c:	20000728 	.word	0x20000728

08004850 <UG_FontSetVSpace>:
 8004850:	4b02      	ldr	r3, [pc, #8]	@ (800485c <UG_FontSetVSpace+0xc>)
 8004852:	681b      	ldr	r3, [r3, #0]
 8004854:	f883 004a 	strb.w	r0, [r3, #74]	@ 0x4a
 8004858:	4770      	bx	lr
 800485a:	bf00      	nop
 800485c:	20000728 	.word	0x20000728

08004860 <_UG_PutText>:
 8004860:	e92d 4ff0 	stmdb	sp!, {r4, r5, r6, r7, r8, r9, sl, fp, lr}
 8004864:	4604      	mov	r4, r0
 8004866:	6840      	ldr	r0, [r0, #4]
 8004868:	b089      	sub	sp, #36	@ 0x24
 800486a:	2800      	cmp	r0, #0
 800486c:	f000 80a1 	beq.w	80049b2 <_UG_PutText+0x152>
 8004870:	6823      	ldr	r3, [r4, #0]
 8004872:	2b00      	cmp	r3, #0
 8004874:	f000 809d 	beq.w	80049b2 <_UG_PutText+0x152>
 8004878:	f9b4 600e 	ldrsh.w	r6, [r4, #14]
 800487c:	f9b4 500a 	ldrsh.w	r5, [r4, #10]
 8004880:	f890 a002 	ldrb.w	sl, [r0, #2]
 8004884:	1b72      	subs	r2, r6, r5
 8004886:	4552      	cmp	r2, sl
 8004888:	f2c0 8093 	blt.w	80049b2 <_UG_PutText+0x152>
 800488c:	f9b4 200c 	ldrsh.w	r2, [r4, #12]
 8004890:	e9cd 3306 	strd	r3, r3, [sp, #24]
 8004894:	9204      	str	r2, [sp, #16]
 8004896:	f9b4 2018 	ldrsh.w	r2, [r4, #24]
 800489a:	f9b4 8008 	ldrsh.w	r8, [r4, #8]
 800489e:	f894 9014 	ldrb.w	r9, [r4, #20]
 80048a2:	f9b4 7016 	ldrsh.w	r7, [r4, #22]
 80048a6:	9203      	str	r2, [sp, #12]
 80048a8:	f7ff fbee 	bl	8004088 <_UG_FontSelect>
 80048ac:	2301      	movs	r3, #1
 80048ae:	f8df b108 	ldr.w	fp, [pc, #264]	@ 80049b8 <_UG_PutText+0x158>
 80048b2:	f8db 2000 	ldr.w	r2, [fp]
 80048b6:	f892 202d 	ldrb.w	r2, [r2, #45]	@ 0x2d
 80048ba:	b952      	cbnz	r2, 80048d2 <_UG_PutText+0x72>
 80048bc:	a807      	add	r0, sp, #28
 80048be:	9305      	str	r3, [sp, #20]
 80048c0:	f7ff fdd0 	bl	8004464 <_UG_DecodeUTF8>
 80048c4:	9b05      	ldr	r3, [sp, #20]
 80048c6:	b148      	cbz	r0, 80048dc <_UG_PutText+0x7c>
 80048c8:	280a      	cmp	r0, #10
 80048ca:	d1f2      	bne.n	80048b2 <_UG_PutText+0x52>
 80048cc:	3301      	adds	r3, #1
 80048ce:	b29b      	uxth	r3, r3
 80048d0:	e7ef      	b.n	80048b2 <_UG_PutText+0x52>
 80048d2:	9a07      	ldr	r2, [sp, #28]
 80048d4:	1c51      	adds	r1, r2, #1
 80048d6:	7810      	ldrb	r0, [r2, #0]
 80048d8:	9107      	str	r1, [sp, #28]
 80048da:	e7f4      	b.n	80048c6 <_UG_PutText+0x66>
 80048dc:	f019 0f30 	tst.w	r9, #48	@ 0x30
 80048e0:	b2ad      	uxth	r5, r5
 80048e2:	d00e      	beq.n	8004902 <_UG_PutText+0xa2>
 80048e4:	3601      	adds	r6, #1
 80048e6:	1b76      	subs	r6, r6, r5
 80048e8:	fb03 661a 	mls	r6, r3, sl, r6
 80048ec:	9a03      	ldr	r2, [sp, #12]
 80048ee:	3b01      	subs	r3, #1
 80048f0:	fb03 6612 	mls	r6, r3, r2, r6
 80048f4:	b230      	sxth	r0, r6
 80048f6:	2800      	cmp	r0, #0
 80048f8:	db5b      	blt.n	80049b2 <_UG_PutText+0x152>
 80048fa:	f019 0f10 	tst.w	r9, #16
 80048fe:	bf18      	it	ne
 8004900:	1040      	asrne	r0, r0, #1
 8004902:	9b04      	ldr	r3, [sp, #16]
 8004904:	fa1f f888 	uxth.w	r8, r8
 8004908:	3301      	adds	r3, #1
 800490a:	b2bf      	uxth	r7, r7
 800490c:	eba3 0308 	sub.w	r3, r3, r8
 8004910:	4405      	add	r5, r0
 8004912:	18fb      	adds	r3, r7, r3
 8004914:	b22d      	sxth	r5, r5
 8004916:	9304      	str	r3, [sp, #16]
 8004918:	2600      	movs	r6, #0
 800491a:	9b06      	ldr	r3, [sp, #24]
 800491c:	9307      	str	r3, [sp, #28]
 800491e:	f8db 2000 	ldr.w	r2, [fp]
 8004922:	f892 202d 	ldrb.w	r2, [r2, #45]	@ 0x2d
 8004926:	b972      	cbnz	r2, 8004946 <_UG_PutText+0xe6>
 8004928:	a807      	add	r0, sp, #28
 800492a:	f7ff fd9b 	bl	8004464 <_UG_DecodeUTF8>
 800492e:	b178      	cbz	r0, 8004950 <_UG_PutText+0xf0>
 8004930:	280a      	cmp	r0, #10
 8004932:	d00d      	beq.n	8004950 <_UG_PutText+0xf0>
 8004934:	2100      	movs	r1, #0
 8004936:	f7ff fb19 	bl	8003f6c <_UG_GetCharData>
 800493a:	1c42      	adds	r2, r0, #1
 800493c:	d0ef      	beq.n	800491e <_UG_PutText+0xbe>
 800493e:	19f3      	adds	r3, r6, r7
 8004940:	4403      	add	r3, r0
 8004942:	b29e      	uxth	r6, r3
 8004944:	e7eb      	b.n	800491e <_UG_PutText+0xbe>
 8004946:	9a07      	ldr	r2, [sp, #28]
 8004948:	1c51      	adds	r1, r2, #1
 800494a:	7810      	ldrb	r0, [r2, #0]
 800494c:	9107      	str	r1, [sp, #28]
 800494e:	e7ee      	b.n	800492e <_UG_PutText+0xce>
 8004950:	9b04      	ldr	r3, [sp, #16]
 8004952:	1b99      	subs	r1, r3, r6
 8004954:	b209      	sxth	r1, r1
 8004956:	2900      	cmp	r1, #0
 8004958:	db2b      	blt.n	80049b2 <_UG_PutText+0x152>
 800495a:	f019 0f01 	tst.w	r9, #1
 800495e:	d11c      	bne.n	800499a <_UG_PutText+0x13a>
 8004960:	f019 0f02 	tst.w	r9, #2
 8004964:	d000      	beq.n	8004968 <_UG_PutText+0x108>
 8004966:	1049      	asrs	r1, r1, #1
 8004968:	4441      	add	r1, r8
 800496a:	b20e      	sxth	r6, r1
 800496c:	f8db 3000 	ldr.w	r3, [fp]
 8004970:	f893 302d 	ldrb.w	r3, [r3, #45]	@ 0x2d
 8004974:	b99b      	cbnz	r3, 800499e <_UG_PutText+0x13e>
 8004976:	a806      	add	r0, sp, #24
 8004978:	f7ff fd74 	bl	8004464 <_UG_DecodeUTF8>
 800497c:	b1c8      	cbz	r0, 80049b2 <_UG_PutText+0x152>
 800497e:	280a      	cmp	r0, #10
 8004980:	d012      	beq.n	80049a8 <_UG_PutText+0x148>
 8004982:	8a63      	ldrh	r3, [r4, #18]
 8004984:	462a      	mov	r2, r5
 8004986:	9300      	str	r3, [sp, #0]
 8004988:	8a23      	ldrh	r3, [r4, #16]
 800498a:	4631      	mov	r1, r6
 800498c:	f7ff fbae 	bl	80040ec <_UG_PutChar>
 8004990:	1c43      	adds	r3, r0, #1
 8004992:	d0eb      	beq.n	800496c <_UG_PutText+0x10c>
 8004994:	19b9      	adds	r1, r7, r6
 8004996:	4401      	add	r1, r0
 8004998:	e7e7      	b.n	800496a <_UG_PutText+0x10a>
 800499a:	2100      	movs	r1, #0
 800499c:	e7e4      	b.n	8004968 <_UG_PutText+0x108>
 800499e:	9b06      	ldr	r3, [sp, #24]
 80049a0:	1c5a      	adds	r2, r3, #1
 80049a2:	7818      	ldrb	r0, [r3, #0]
 80049a4:	9206      	str	r2, [sp, #24]
 80049a6:	e7e9      	b.n	800497c <_UG_PutText+0x11c>
 80049a8:	9b03      	ldr	r3, [sp, #12]
 80049aa:	4453      	add	r3, sl
 80049ac:	442b      	add	r3, r5
 80049ae:	b21d      	sxth	r5, r3
 80049b0:	e7b2      	b.n	8004918 <_UG_PutText+0xb8>
 80049b2:	b009      	add	sp, #36	@ 0x24
 80049b4:	e8bd 8ff0 	ldmia.w	sp!, {r4, r5, r6, r7, r8, r9, sl, fp, pc}
 80049b8:	20000728 	.word	0x20000728

080049bc <_UG_WindowDrawTitle.isra.0>:
 80049bc:	e92d 41f0 	stmdb	sp!, {r4, r5, r6, r7, r8, lr}
 80049c0:	4604      	mov	r4, r0
 80049c2:	b08a      	sub	sp, #40	@ 0x28
 80049c4:	2800      	cmp	r0, #0
 80049c6:	d05e      	beq.n	8004a86 <_UG_WindowDrawTitle.isra.0+0xca>
 80049c8:	7a03      	ldrb	r3, [r0, #8]
 80049ca:	079a      	lsls	r2, r3, #30
 80049cc:	d55b      	bpl.n	8004a86 <_UG_WindowDrawTitle.isra.0+0xca>
 80049ce:	7d83      	ldrb	r3, [r0, #22]
 80049d0:	f9b0 500e 	ldrsh.w	r5, [r0, #14]
 80049d4:	07db      	lsls	r3, r3, #31
 80049d6:	f9b0 8010 	ldrsh.w	r8, [r0, #16]
 80049da:	f9b0 6012 	ldrsh.w	r6, [r0, #18]
 80049de:	d507      	bpl.n	80049f0 <_UG_WindowDrawTitle.isra.0+0x34>
 80049e0:	3503      	adds	r5, #3
 80049e2:	f108 0803 	add.w	r8, r8, #3
 80049e6:	3e03      	subs	r6, #3
 80049e8:	b22d      	sxth	r5, r5
 80049ea:	fa0f f888 	sxth.w	r8, r8
 80049ee:	b236      	sxth	r6, r6
 80049f0:	4b26      	ldr	r3, [pc, #152]	@ (8004a8c <_UG_WindowDrawTitle.isra.0+0xd0>)
 80049f2:	fa1f f788 	uxth.w	r7, r8
 80049f6:	681b      	ldr	r3, [r3, #0]
 80049f8:	4641      	mov	r1, r8
 80049fa:	691b      	ldr	r3, [r3, #16]
 80049fc:	4628      	mov	r0, r5
 80049fe:	429c      	cmp	r4, r3
 8004a00:	bf0b      	itete	eq
 8004a02:	8ce3      	ldrheq	r3, [r4, #38]	@ 0x26
 8004a04:	8d63      	ldrhne	r3, [r4, #42]	@ 0x2a
 8004a06:	f8ad 301e 	strheq.w	r3, [sp, #30]
 8004a0a:	f8ad 301e 	strhne.w	r3, [sp, #30]
 8004a0e:	bf0c      	ite	eq
 8004a10:	8ca3      	ldrheq	r3, [r4, #36]	@ 0x24
 8004a12:	8d23      	ldrhne	r3, [r4, #40]	@ 0x28
 8004a14:	f8bd 201e 	ldrh.w	r2, [sp, #30]
 8004a18:	f8ad 301c 	strh.w	r3, [sp, #28]
 8004a1c:	f894 302c 	ldrb.w	r3, [r4, #44]	@ 0x2c
 8004a20:	9200      	str	r2, [sp, #0]
 8004a22:	3b01      	subs	r3, #1
 8004a24:	443b      	add	r3, r7
 8004a26:	4632      	mov	r2, r6
 8004a28:	b21b      	sxth	r3, r3
 8004a2a:	f7ff fd93 	bl	8004554 <UG_FillFrame>
 8004a2e:	69a3      	ldr	r3, [r4, #24]
 8004a30:	a803      	add	r0, sp, #12
 8004a32:	9303      	str	r3, [sp, #12]
 8004a34:	69e3      	ldr	r3, [r4, #28]
 8004a36:	f8ad 8016 	strh.w	r8, [sp, #22]
 8004a3a:	9304      	str	r3, [sp, #16]
 8004a3c:	1ceb      	adds	r3, r5, #3
 8004a3e:	f8ad 3014 	strh.w	r3, [sp, #20]
 8004a42:	f894 302c 	ldrb.w	r3, [r4, #44]	@ 0x2c
 8004a46:	f8ad 6018 	strh.w	r6, [sp, #24]
 8004a4a:	3b01      	subs	r3, #1
 8004a4c:	443b      	add	r3, r7
 8004a4e:	f8ad 301a 	strh.w	r3, [sp, #26]
 8004a52:	f894 3022 	ldrb.w	r3, [r4, #34]	@ 0x22
 8004a56:	f88d 3020 	strb.w	r3, [sp, #32]
 8004a5a:	f994 3020 	ldrsb.w	r3, [r4, #32]
 8004a5e:	f8ad 3022 	strh.w	r3, [sp, #34]	@ 0x22
 8004a62:	f994 3021 	ldrsb.w	r3, [r4, #33]	@ 0x21
 8004a66:	f8ad 3024 	strh.w	r3, [sp, #36]	@ 0x24
 8004a6a:	f7ff fef9 	bl	8004860 <_UG_PutText>
 8004a6e:	f649 5213 	movw	r2, #40211	@ 0x9d13
 8004a72:	f894 302c 	ldrb.w	r3, [r4, #44]	@ 0x2c
 8004a76:	4628      	mov	r0, r5
 8004a78:	443b      	add	r3, r7
 8004a7a:	b21b      	sxth	r3, r3
 8004a7c:	9200      	str	r2, [sp, #0]
 8004a7e:	4619      	mov	r1, r3
 8004a80:	4632      	mov	r2, r6
 8004a82:	f7ff fdc3 	bl	800460c <UG_DrawLine>
 8004a86:	b00a      	add	sp, #40	@ 0x28
 8004a88:	e8bd 81f0 	ldmia.w	sp!, {r4, r5, r6, r7, r8, pc}
 8004a8c:	20000728 	.word	0x20000728

08004a90 <_UG_DrawObjectFrame>:
 8004a90:	e92d 4ff0 	stmdb	sp!, {r4, r5, r6, r7, r8, r9, sl, fp, lr}
 8004a94:	460e      	mov	r6, r1
 8004a96:	469b      	mov	fp, r3
 8004a98:	4604      	mov	r4, r0
 8004a9a:	4690      	mov	r8, r2
 8004a9c:	b087      	sub	sp, #28
 8004a9e:	b293      	uxth	r3, r2
 8004aa0:	9d10      	ldr	r5, [sp, #64]	@ 0x40
 8004aa2:	f103 39ff 	add.w	r9, r3, #4294967295
 8004aa6:	9303      	str	r3, [sp, #12]
 8004aa8:	fa0f f389 	sxth.w	r3, r9
 8004aac:	9302      	str	r3, [sp, #8]
 8004aae:	882b      	ldrh	r3, [r5, #0]
 8004ab0:	9a02      	ldr	r2, [sp, #8]
 8004ab2:	9300      	str	r3, [sp, #0]
 8004ab4:	460b      	mov	r3, r1
 8004ab6:	f7ff fda9 	bl	800460c <UG_DrawLine>
 8004aba:	fa1f f986 	uxth.w	r9, r6
 8004abe:	fa1f f38b 	uxth.w	r3, fp
 8004ac2:	9304      	str	r3, [sp, #16]
 8004ac4:	f109 0701 	add.w	r7, r9, #1
 8004ac8:	f103 3aff 	add.w	sl, r3, #4294967295
 8004acc:	886b      	ldrh	r3, [r5, #2]
 8004ace:	b23f      	sxth	r7, r7
 8004ad0:	fa0f fa8a 	sxth.w	sl, sl
 8004ad4:	4622      	mov	r2, r4
 8004ad6:	4639      	mov	r1, r7
 8004ad8:	4620      	mov	r0, r4
 8004ada:	9300      	str	r3, [sp, #0]
 8004adc:	4653      	mov	r3, sl
 8004ade:	f7ff fd95 	bl	800460c <UG_DrawLine>
 8004ae2:	88ab      	ldrh	r3, [r5, #4]
 8004ae4:	4642      	mov	r2, r8
 8004ae6:	4659      	mov	r1, fp
 8004ae8:	4620      	mov	r0, r4
 8004aea:	9300      	str	r3, [sp, #0]
 8004aec:	465b      	mov	r3, fp
 8004aee:	f7ff fd8d 	bl	800460c <UG_DrawLine>
 8004af2:	88eb      	ldrh	r3, [r5, #6]
 8004af4:	4642      	mov	r2, r8
 8004af6:	4631      	mov	r1, r6
 8004af8:	4640      	mov	r0, r8
 8004afa:	9300      	str	r3, [sp, #0]
 8004afc:	4653      	mov	r3, sl
 8004afe:	f7ff fd85 	bl	800460c <UG_DrawLine>
 8004b02:	b2a3      	uxth	r3, r4
 8004b04:	9305      	str	r3, [sp, #20]
 8004b06:	1c58      	adds	r0, r3, #1
 8004b08:	9b03      	ldr	r3, [sp, #12]
 8004b0a:	b204      	sxth	r4, r0
 8004b0c:	f1a3 0802 	sub.w	r8, r3, #2
 8004b10:	892b      	ldrh	r3, [r5, #8]
 8004b12:	fa0f f888 	sxth.w	r8, r8
 8004b16:	4642      	mov	r2, r8
 8004b18:	4639      	mov	r1, r7
 8004b1a:	4620      	mov	r0, r4
 8004b1c:	9300      	str	r3, [sp, #0]
 8004b1e:	463b      	mov	r3, r7
 8004b20:	f7ff fd74 	bl	800460c <UG_DrawLine>
 8004b24:	9b04      	ldr	r3, [sp, #16]
 8004b26:	f109 0602 	add.w	r6, r9, #2
 8004b2a:	f1a3 0b02 	sub.w	fp, r3, #2
 8004b2e:	896b      	ldrh	r3, [r5, #10]
 8004b30:	b236      	sxth	r6, r6
 8004b32:	fa0f fb8b 	sxth.w	fp, fp
 8004b36:	4622      	mov	r2, r4
 8004b38:	4631      	mov	r1, r6
 8004b3a:	4620      	mov	r0, r4
 8004b3c:	9300      	str	r3, [sp, #0]
 8004b3e:	465b      	mov	r3, fp
 8004b40:	f7ff fd64 	bl	800460c <UG_DrawLine>
 8004b44:	89ab      	ldrh	r3, [r5, #12]
 8004b46:	4651      	mov	r1, sl
 8004b48:	4620      	mov	r0, r4
 8004b4a:	9a02      	ldr	r2, [sp, #8]
 8004b4c:	9300      	str	r3, [sp, #0]
 8004b4e:	4653      	mov	r3, sl
 8004b50:	f7ff fd5c 	bl	800460c <UG_DrawLine>
 8004b54:	89eb      	ldrh	r3, [r5, #14]
 8004b56:	9a02      	ldr	r2, [sp, #8]
 8004b58:	4639      	mov	r1, r7
 8004b5a:	4610      	mov	r0, r2
 8004b5c:	9300      	str	r3, [sp, #0]
 8004b5e:	465b      	mov	r3, fp
 8004b60:	f7ff fd54 	bl	800460c <UG_DrawLine>
 8004b64:	9b05      	ldr	r3, [sp, #20]
 8004b66:	4631      	mov	r1, r6
 8004b68:	1c9c      	adds	r4, r3, #2
 8004b6a:	9b03      	ldr	r3, [sp, #12]
 8004b6c:	b224      	sxth	r4, r4
 8004b6e:	1eda      	subs	r2, r3, #3
 8004b70:	8a2b      	ldrh	r3, [r5, #16]
 8004b72:	4620      	mov	r0, r4
 8004b74:	9300      	str	r3, [sp, #0]
 8004b76:	b212      	sxth	r2, r2
 8004b78:	4633      	mov	r3, r6
 8004b7a:	f7ff fd47 	bl	800460c <UG_DrawLine>
 8004b7e:	9b04      	ldr	r3, [sp, #16]
 8004b80:	f109 0103 	add.w	r1, r9, #3
 8004b84:	1edf      	subs	r7, r3, #3
 8004b86:	8a6b      	ldrh	r3, [r5, #18]
 8004b88:	b23f      	sxth	r7, r7
 8004b8a:	4622      	mov	r2, r4
 8004b8c:	4620      	mov	r0, r4
 8004b8e:	9300      	str	r3, [sp, #0]
 8004b90:	b209      	sxth	r1, r1
 8004b92:	463b      	mov	r3, r7
 8004b94:	f7ff fd3a 	bl	800460c <UG_DrawLine>
 8004b98:	8aab      	ldrh	r3, [r5, #20]
 8004b9a:	4642      	mov	r2, r8
 8004b9c:	4659      	mov	r1, fp
 8004b9e:	4620      	mov	r0, r4
 8004ba0:	9300      	str	r3, [sp, #0]
 8004ba2:	465b      	mov	r3, fp
 8004ba4:	f7ff fd32 	bl	800460c <UG_DrawLine>
 8004ba8:	8aeb      	ldrh	r3, [r5, #22]
 8004baa:	4642      	mov	r2, r8
 8004bac:	9310      	str	r3, [sp, #64]	@ 0x40
 8004bae:	4631      	mov	r1, r6
 8004bb0:	463b      	mov	r3, r7
 8004bb2:	4640      	mov	r0, r8
 8004bb4:	b007      	add	sp, #28
 8004bb6:	e8bd 4ff0 	ldmia.w	sp!, {r4, r5, r6, r7, r8, r9, sl, fp, lr}
 8004bba:	f7ff bd27 	b.w	800460c <UG_DrawLine>
	...

08004bc0 <UG_DriverRegister>:
 8004bc0:	2803      	cmp	r0, #3
 8004bc2:	d807      	bhi.n	8004bd4 <UG_DriverRegister+0x14>
 8004bc4:	4b04      	ldr	r3, [pc, #16]	@ (8004bd8 <UG_DriverRegister+0x18>)
 8004bc6:	681b      	ldr	r3, [r3, #0]
 8004bc8:	eb03 00c0 	add.w	r0, r3, r0, lsl #3
 8004bcc:	2303      	movs	r3, #3
 8004bce:	6541      	str	r1, [r0, #84]	@ 0x54
 8004bd0:	f880 3058 	strb.w	r3, [r0, #88]	@ 0x58
 8004bd4:	4770      	bx	lr
 8004bd6:	bf00      	nop
 8004bd8:	20000728 	.word	0x20000728

08004bdc <UG_Update>:
 8004bdc:	e92d 47f3 	stmdb	sp!, {r0, r1, r4, r5, r6, r7, r8, r9, sl, lr}
 8004be0:	4da3      	ldr	r5, [pc, #652]	@ (8004e70 <UG_Update+0x294>)
 8004be2:	682a      	ldr	r2, [r5, #0]
 8004be4:	f892 3052 	ldrb.w	r3, [r2, #82]	@ 0x52
 8004be8:	07df      	lsls	r7, r3, #31
 8004bea:	bf44      	itt	mi
 8004bec:	f023 0301 	bicmi.w	r3, r3, #1
 8004bf0:	f882 3052 	strbmi.w	r3, [r2, #82]	@ 0x52
 8004bf4:	e9d2 3003 	ldrd	r3, r0, [r2, #12]
 8004bf8:	4283      	cmp	r3, r0
 8004bfa:	d023      	beq.n	8004c44 <UG_Update+0x68>
 8004bfc:	b313      	cbz	r3, 8004c44 <UG_Update+0x68>
 8004bfe:	e9c2 3004 	strd	r3, r0, [r2, #16]
 8004c02:	b1b8      	cbz	r0, 8004c34 <UG_Update+0x58>
 8004c04:	7d82      	ldrb	r2, [r0, #22]
 8004c06:	0796      	lsls	r6, r2, #30
 8004c08:	d514      	bpl.n	8004c34 <UG_Update+0x58>
 8004c0a:	7a02      	ldrb	r2, [r0, #8]
 8004c0c:	0714      	lsls	r4, r2, #28
 8004c0e:	d511      	bpl.n	8004c34 <UG_Update+0x58>
 8004c10:	f9b0 100e 	ldrsh.w	r1, [r0, #14]
 8004c14:	f9b3 200e 	ldrsh.w	r2, [r3, #14]
 8004c18:	4291      	cmp	r1, r2
 8004c1a:	d109      	bne.n	8004c30 <UG_Update+0x54>
 8004c1c:	6901      	ldr	r1, [r0, #16]
 8004c1e:	691a      	ldr	r2, [r3, #16]
 8004c20:	4291      	cmp	r1, r2
 8004c22:	d105      	bne.n	8004c30 <UG_Update+0x54>
 8004c24:	f9b0 2014 	ldrsh.w	r2, [r0, #20]
 8004c28:	f9b3 3014 	ldrsh.w	r3, [r3, #20]
 8004c2c:	429a      	cmp	r2, r3
 8004c2e:	d001      	beq.n	8004c34 <UG_Update+0x58>
 8004c30:	f7ff fec4 	bl	80049bc <_UG_WindowDrawTitle.isra.0>
 8004c34:	682b      	ldr	r3, [r5, #0]
 8004c36:	691a      	ldr	r2, [r3, #16]
 8004c38:	7a13      	ldrb	r3, [r2, #8]
 8004c3a:	f023 0340 	bic.w	r3, r3, #64	@ 0x40
 8004c3e:	f043 0328 	orr.w	r3, r3, #40	@ 0x28
 8004c42:	7213      	strb	r3, [r2, #8]
 8004c44:	682a      	ldr	r2, [r5, #0]
 8004c46:	6914      	ldr	r4, [r2, #16]
 8004c48:	b944      	cbnz	r4, 8004c5c <UG_Update+0x80>
 8004c4a:	682b      	ldr	r3, [r5, #0]
 8004c4c:	681b      	ldr	r3, [r3, #0]
 8004c4e:	689b      	ldr	r3, [r3, #8]
 8004c50:	2b00      	cmp	r3, #0
 8004c52:	f040 8109 	bne.w	8004e68 <UG_Update+0x28c>
 8004c56:	b002      	add	sp, #8
 8004c58:	e8bd 87f0 	ldmia.w	sp!, {r4, r5, r6, r7, r8, r9, sl, pc}
 8004c5c:	7a23      	ldrb	r3, [r4, #8]
 8004c5e:	0698      	lsls	r0, r3, #26
 8004c60:	d554      	bpl.n	8004d0c <UG_Update+0x130>
 8004c62:	f023 0120 	bic.w	r1, r3, #32
 8004c66:	7221      	strb	r1, [r4, #8]
 8004c68:	0719      	lsls	r1, r3, #28
 8004c6a:	f9b4 800e 	ldrsh.w	r8, [r4, #14]
 8004c6e:	f9b4 7010 	ldrsh.w	r7, [r4, #16]
 8004c72:	f9b4 9012 	ldrsh.w	r9, [r4, #18]
 8004c76:	f9b4 a014 	ldrsh.w	sl, [r4, #20]
 8004c7a:	f140 8083 	bpl.w	8004d84 <UG_Update+0x1a8>
 8004c7e:	7da2      	ldrb	r2, [r4, #22]
 8004c80:	07d6      	lsls	r6, r2, #31
 8004c82:	d517      	bpl.n	8004cb4 <UG_Update+0xd8>
 8004c84:	0658      	lsls	r0, r3, #25
 8004c86:	d415      	bmi.n	8004cb4 <UG_Update+0xd8>
 8004c88:	4b7a      	ldr	r3, [pc, #488]	@ (8004e74 <UG_Update+0x298>)
 8004c8a:	464a      	mov	r2, r9
 8004c8c:	4639      	mov	r1, r7
 8004c8e:	4640      	mov	r0, r8
 8004c90:	9300      	str	r3, [sp, #0]
 8004c92:	4653      	mov	r3, sl
 8004c94:	f7ff fefc 	bl	8004a90 <_UG_DrawObjectFrame>
 8004c98:	f108 0803 	add.w	r8, r8, #3
 8004c9c:	3703      	adds	r7, #3
 8004c9e:	f1a9 0903 	sub.w	r9, r9, #3
 8004ca2:	f1aa 0a03 	sub.w	sl, sl, #3
 8004ca6:	fa0f f888 	sxth.w	r8, r8
 8004caa:	b23f      	sxth	r7, r7
 8004cac:	fa0f f989 	sxth.w	r9, r9
 8004cb0:	fa0f fa8a 	sxth.w	sl, sl
 8004cb4:	7da3      	ldrb	r3, [r4, #22]
 8004cb6:	0799      	lsls	r1, r3, #30
 8004cb8:	d50a      	bpl.n	8004cd0 <UG_Update+0xf4>
 8004cba:	4620      	mov	r0, r4
 8004cbc:	f7ff fe7e 	bl	80049bc <_UG_WindowDrawTitle.isra.0>
 8004cc0:	7a23      	ldrb	r3, [r4, #8]
 8004cc2:	f894 602c 	ldrb.w	r6, [r4, #44]	@ 0x2c
 8004cc6:	065a      	lsls	r2, r3, #25
 8004cc8:	d41d      	bmi.n	8004d06 <UG_Update+0x12a>
 8004cca:	3601      	adds	r6, #1
 8004ccc:	443e      	add	r6, r7
 8004cce:	b237      	sxth	r7, r6
 8004cd0:	89a3      	ldrh	r3, [r4, #12]
 8004cd2:	464a      	mov	r2, r9
 8004cd4:	9300      	str	r3, [sp, #0]
 8004cd6:	4639      	mov	r1, r7
 8004cd8:	4653      	mov	r3, sl
 8004cda:	4640      	mov	r0, r8
 8004cdc:	f7ff fc3a 	bl	8004554 <UG_FillFrame>
 8004ce0:	2200      	movs	r2, #0
 8004ce2:	7826      	ldrb	r6, [r4, #0]
 8004ce4:	b293      	uxth	r3, r2
 8004ce6:	429e      	cmp	r6, r3
 8004ce8:	d910      	bls.n	8004d0c <UG_Update+0x130>
 8004cea:	6860      	ldr	r0, [r4, #4]
 8004cec:	0151      	lsls	r1, r2, #5
 8004cee:	5c43      	ldrb	r3, [r0, r1]
 8004cf0:	f003 0703 	and.w	r7, r3, #3
 8004cf4:	2f02      	cmp	r7, #2
 8004cf6:	d104      	bne.n	8004d02 <UG_Update+0x126>
 8004cf8:	071f      	lsls	r7, r3, #28
 8004cfa:	bf44      	itt	mi
 8004cfc:	f043 0360 	orrmi.w	r3, r3, #96	@ 0x60
 8004d00:	5443      	strbmi	r3, [r0, r1]
 8004d02:	3201      	adds	r2, #1
 8004d04:	e7ee      	b.n	8004ce4 <UG_Update+0x108>
 8004d06:	f023 0340 	bic.w	r3, r3, #64	@ 0x40
 8004d0a:	7223      	strb	r3, [r4, #8]
 8004d0c:	7a23      	ldrb	r3, [r4, #8]
 8004d0e:	071b      	lsls	r3, r3, #28
 8004d10:	d59b      	bpl.n	8004c4a <UG_Update+0x6e>
 8004d12:	2000      	movs	r0, #0
 8004d14:	682b      	ldr	r3, [r5, #0]
 8004d16:	f894 8000 	ldrb.w	r8, [r4]
 8004d1a:	f9b3 6006 	ldrsh.w	r6, [r3, #6]
 8004d1e:	f9b3 7008 	ldrsh.w	r7, [r3, #8]
 8004d22:	f893 c004 	ldrb.w	ip, [r3, #4]
 8004d26:	b283      	uxth	r3, r0
 8004d28:	4598      	cmp	r8, r3
 8004d2a:	d835      	bhi.n	8004d98 <UG_Update+0x1bc>
 8004d2c:	2600      	movs	r6, #0
 8004d2e:	b2b3      	uxth	r3, r6
 8004d30:	4598      	cmp	r8, r3
 8004d32:	d877      	bhi.n	8004e24 <UG_Update+0x248>
 8004d34:	2600      	movs	r6, #0
 8004d36:	2302      	movs	r3, #2
 8004d38:	46b2      	mov	sl, r6
 8004d3a:	4f4f      	ldr	r7, [pc, #316]	@ (8004e78 <UG_Update+0x29c>)
 8004d3c:	607e      	str	r6, [r7, #4]
 8004d3e:	703b      	strb	r3, [r7, #0]
 8004d40:	f894 9000 	ldrb.w	r9, [r4]
 8004d44:	b2b3      	uxth	r3, r6
 8004d46:	4599      	cmp	r9, r3
 8004d48:	f67f af7f 	bls.w	8004c4a <UG_Update+0x6e>
 8004d4c:	6862      	ldr	r2, [r4, #4]
 8004d4e:	0173      	lsls	r3, r6, #5
 8004d50:	5cd3      	ldrb	r3, [r2, r3]
 8004d52:	eb02 1846 	add.w	r8, r2, r6, lsl #5
 8004d56:	f003 0303 	and.w	r3, r3, #3
 8004d5a:	2b02      	cmp	r3, #2
 8004d5c:	d110      	bne.n	8004d80 <UG_Update+0x1a4>
 8004d5e:	f898 301a 	ldrb.w	r3, [r8, #26]
 8004d62:	b16b      	cbz	r3, 8004d80 <UG_Update+0x1a4>
 8004d64:	f898 2018 	ldrb.w	r2, [r8, #24]
 8004d68:	70fb      	strb	r3, [r7, #3]
 8004d6a:	707a      	strb	r2, [r7, #1]
 8004d6c:	f898 2019 	ldrb.w	r2, [r8, #25]
 8004d70:	4638      	mov	r0, r7
 8004d72:	6b23      	ldr	r3, [r4, #48]	@ 0x30
 8004d74:	f8c7 8004 	str.w	r8, [r7, #4]
 8004d78:	70ba      	strb	r2, [r7, #2]
 8004d7a:	4798      	blx	r3
 8004d7c:	f888 a01a 	strb.w	sl, [r8, #26]
 8004d80:	3601      	adds	r6, #1
 8004d82:	e7df      	b.n	8004d44 <UG_Update+0x168>
 8004d84:	f8b2 3050 	ldrh.w	r3, [r2, #80]	@ 0x50
 8004d88:	4641      	mov	r1, r8
 8004d8a:	9300      	str	r3, [sp, #0]
 8004d8c:	464a      	mov	r2, r9
 8004d8e:	4653      	mov	r3, sl
 8004d90:	4640      	mov	r0, r8
 8004d92:	f7ff fbdf 	bl	8004554 <UG_FillFrame>
 8004d96:	e7b9      	b.n	8004d0c <UG_Update+0x130>
 8004d98:	f8d4 e004 	ldr.w	lr, [r4, #4]
 8004d9c:	0142      	lsls	r2, r0, #5
 8004d9e:	f81e 2002 	ldrb.w	r2, [lr, r2]
 8004da2:	eb0e 1140 	add.w	r1, lr, r0, lsl #5
 8004da6:	f002 024b 	and.w	r2, r2, #75	@ 0x4b
 8004daa:	2a0a      	cmp	r2, #10
 8004dac:	784b      	ldrb	r3, [r1, #1]
 8004dae:	d129      	bne.n	8004e04 <UG_Update+0x228>
 8004db0:	f003 0240 	and.w	r2, r3, #64	@ 0x40
 8004db4:	f1bc 0f00 	cmp.w	ip, #0
 8004db8:	d027      	beq.n	8004e0a <UG_Update+0x22e>
 8004dba:	f1b6 3fff 	cmp.w	r6, #4294967295
 8004dbe:	d024      	beq.n	8004e0a <UG_Update+0x22e>
 8004dc0:	b91a      	cbnz	r2, 8004dca <UG_Update+0x1ee>
 8004dc2:	f003 03e7 	and.w	r3, r3, #231	@ 0xe7
 8004dc6:	f043 0305 	orr.w	r3, r3, #5
 8004dca:	f9b1 e008 	ldrsh.w	lr, [r1, #8]
 8004dce:	f003 02df 	and.w	r2, r3, #223	@ 0xdf
 8004dd2:	45b6      	cmp	lr, r6
 8004dd4:	dc14      	bgt.n	8004e00 <UG_Update+0x224>
 8004dd6:	f9b1 e00c 	ldrsh.w	lr, [r1, #12]
 8004dda:	45b6      	cmp	lr, r6
 8004ddc:	db10      	blt.n	8004e00 <UG_Update+0x224>
 8004dde:	f9b1 e00a 	ldrsh.w	lr, [r1, #10]
 8004de2:	45be      	cmp	lr, r7
 8004de4:	dc0c      	bgt.n	8004e00 <UG_Update+0x224>
 8004de6:	f9b1 e00e 	ldrsh.w	lr, [r1, #14]
 8004dea:	45be      	cmp	lr, r7
 8004dec:	db08      	blt.n	8004e00 <UG_Update+0x224>
 8004dee:	f013 0f40 	tst.w	r3, #64	@ 0x40
 8004df2:	bf0a      	itet	eq
 8004df4:	f003 02db 	andeq.w	r2, r3, #219	@ 0xdb
 8004df8:	f042 0220 	orrne.w	r2, r2, #32
 8004dfc:	f042 0222 	orreq.w	r2, r2, #34	@ 0x22
 8004e00:	f042 0340 	orr.w	r3, r2, #64	@ 0x40
 8004e04:	704b      	strb	r3, [r1, #1]
 8004e06:	3001      	adds	r0, #1
 8004e08:	e78d      	b.n	8004d26 <UG_Update+0x14a>
 8004e0a:	2a00      	cmp	r2, #0
 8004e0c:	d0fa      	beq.n	8004e04 <UG_Update+0x228>
 8004e0e:	069a      	lsls	r2, r3, #26
 8004e10:	bf4c      	ite	mi
 8004e12:	f043 0308 	orrmi.w	r3, r3, #8
 8004e16:	f043 0310 	orrpl.w	r3, r3, #16
 8004e1a:	f003 03b9 	and.w	r3, r3, #185	@ 0xb9
 8004e1e:	f043 0301 	orr.w	r3, r3, #1
 8004e22:	e7ef      	b.n	8004e04 <UG_Update+0x228>
 8004e24:	6862      	ldr	r2, [r4, #4]
 8004e26:	0173      	lsls	r3, r6, #5
 8004e28:	f812 9003 	ldrb.w	r9, [r2, r3]
 8004e2c:	eb02 1746 	add.w	r7, r2, r6, lsl #5
 8004e30:	f009 0303 	and.w	r3, r9, #3
 8004e34:	2b02      	cmp	r3, #2
 8004e36:	f897 a001 	ldrb.w	sl, [r7, #1]
 8004e3a:	d113      	bne.n	8004e64 <UG_Update+0x288>
 8004e3c:	f019 0f20 	tst.w	r9, #32
 8004e40:	d003      	beq.n	8004e4a <UG_Update+0x26e>
 8004e42:	4639      	mov	r1, r7
 8004e44:	4620      	mov	r0, r4
 8004e46:	687b      	ldr	r3, [r7, #4]
 8004e48:	4798      	blx	r3
 8004e4a:	f019 0f08 	tst.w	r9, #8
 8004e4e:	d009      	beq.n	8004e64 <UG_Update+0x288>
 8004e50:	f019 0f80 	tst.w	r9, #128	@ 0x80
 8004e54:	d006      	beq.n	8004e64 <UG_Update+0x288>
 8004e56:	f01a 0f41 	tst.w	sl, #65	@ 0x41
 8004e5a:	d003      	beq.n	8004e64 <UG_Update+0x288>
 8004e5c:	4639      	mov	r1, r7
 8004e5e:	4620      	mov	r0, r4
 8004e60:	687b      	ldr	r3, [r7, #4]
 8004e62:	4798      	blx	r3
 8004e64:	3601      	adds	r6, #1
 8004e66:	e762      	b.n	8004d2e <UG_Update+0x152>
 8004e68:	b002      	add	sp, #8
 8004e6a:	e8bd 47f0 	ldmia.w	sp!, {r4, r5, r6, r7, r8, r9, sl, lr}
 8004e6e:	4718      	bx	r3
 8004e70:	20000728 	.word	0x20000728
 8004e74:	0800f9b2 	.word	0x0800f9b2
 8004e78:	20000710 	.word	0x20000710

08004e7c <vListInitialise>:
 8004e7c:	f04f 32ff 	mov.w	r2, #4294967295
 8004e80:	f100 0308 	add.w	r3, r0, #8
 8004e84:	e9c0 2302 	strd	r2, r3, [r0, #8]
 8004e88:	6043      	str	r3, [r0, #4]
 8004e8a:	6103      	str	r3, [r0, #16]
 8004e8c:	2300      	movs	r3, #0
 8004e8e:	6003      	str	r3, [r0, #0]
 8004e90:	4770      	bx	lr

08004e92 <vListInitialiseItem>:
 8004e92:	2300      	movs	r3, #0
 8004e94:	6103      	str	r3, [r0, #16]
 8004e96:	4770      	bx	lr

08004e98 <vListInsert>:
 8004e98:	b530      	push	{r4, r5, lr}
 8004e9a:	680c      	ldr	r4, [r1, #0]
 8004e9c:	1c63      	adds	r3, r4, #1
 8004e9e:	d10a      	bne.n	8004eb6 <vListInsert+0x1e>
 8004ea0:	6903      	ldr	r3, [r0, #16]
 8004ea2:	685a      	ldr	r2, [r3, #4]
 8004ea4:	604a      	str	r2, [r1, #4]
 8004ea6:	6091      	str	r1, [r2, #8]
 8004ea8:	608b      	str	r3, [r1, #8]
 8004eaa:	6059      	str	r1, [r3, #4]
 8004eac:	6803      	ldr	r3, [r0, #0]
 8004eae:	6108      	str	r0, [r1, #16]
 8004eb0:	3301      	adds	r3, #1
 8004eb2:	6003      	str	r3, [r0, #0]
 8004eb4:	bd30      	pop	{r4, r5, pc}
 8004eb6:	f100 0208 	add.w	r2, r0, #8
 8004eba:	4613      	mov	r3, r2
 8004ebc:	6852      	ldr	r2, [r2, #4]
 8004ebe:	6815      	ldr	r5, [r2, #0]
 8004ec0:	42a5      	cmp	r5, r4
 8004ec2:	d9fa      	bls.n	8004eba <vListInsert+0x22>
 8004ec4:	e7ed      	b.n	8004ea2 <vListInsert+0xa>

08004ec6 <uxListRemove>:
 8004ec6:	6903      	ldr	r3, [r0, #16]
 8004ec8:	e9d0 1201 	ldrd	r1, r2, [r0, #4]
 8004ecc:	608a      	str	r2, [r1, #8]
 8004ece:	6051      	str	r1, [r2, #4]
 8004ed0:	6859      	ldr	r1, [r3, #4]
 8004ed2:	4281      	cmp	r1, r0
 8004ed4:	bf08      	it	eq
 8004ed6:	605a      	streq	r2, [r3, #4]
 8004ed8:	2200      	movs	r2, #0
 8004eda:	6102      	str	r2, [r0, #16]
 8004edc:	681a      	ldr	r2, [r3, #0]
 8004ede:	3a01      	subs	r2, #1
 8004ee0:	601a      	str	r2, [r3, #0]
 8004ee2:	6818      	ldr	r0, [r3, #0]
 8004ee4:	4770      	bx	lr
	...

08004ee8 <prvPortStartFirstTask>:
 8004ee8:	4806      	ldr	r0, [pc, #24]	@ (8004f04 <prvPortStartFirstTask+0x1c>)
 8004eea:	6800      	ldr	r0, [r0, #0]
 8004eec:	6800      	ldr	r0, [r0, #0]
 8004eee:	f380 8808 	msr	MSP, r0
 8004ef2:	b662      	cpsie	i
 8004ef4:	b661      	cpsie	f
 8004ef6:	f3bf 8f4f 	dsb	sy
 8004efa:	f3bf 8f6f 	isb	sy
 8004efe:	df00      	svc	0
 8004f00:	bf00      	nop
 8004f02:	0000      	.short	0x0000
 8004f04:	e000ed08 	.word	0xe000ed08

08004f08 <prvTaskExitError>:
 8004f08:	2300      	movs	r3, #0
 8004f0a:	b082      	sub	sp, #8
 8004f0c:	9301      	str	r3, [sp, #4]
 8004f0e:	4b0d      	ldr	r3, [pc, #52]	@ (8004f44 <prvTaskExitError+0x3c>)
 8004f10:	681b      	ldr	r3, [r3, #0]
 8004f12:	3301      	adds	r3, #1
 8004f14:	d008      	beq.n	8004f28 <prvTaskExitError+0x20>
 8004f16:	f04f 0350 	mov.w	r3, #80	@ 0x50
 8004f1a:	f383 8811 	msr	BASEPRI, r3
 8004f1e:	f3bf 8f6f 	isb	sy
 8004f22:	f3bf 8f4f 	dsb	sy
 8004f26:	e7fe      	b.n	8004f26 <prvTaskExitError+0x1e>
 8004f28:	f04f 0350 	mov.w	r3, #80	@ 0x50
 8004f2c:	f383 8811 	msr	BASEPRI, r3
 8004f30:	f3bf 8f6f 	isb	sy
 8004f34:	f3bf 8f4f 	dsb	sy
 8004f38:	9b01      	ldr	r3, [sp, #4]
 8004f3a:	2b00      	cmp	r3, #0
 8004f3c:	d0fc      	beq.n	8004f38 <prvTaskExitError+0x30>
 8004f3e:	b002      	add	sp, #8
 8004f40:	4770      	bx	lr
 8004f42:	bf00      	nop
 8004f44:	2000003c 	.word	0x2000003c

08004f48 <pxPortInitialiseStack>:
 8004f48:	f04f 7380 	mov.w	r3, #16777216	@ 0x1000000
 8004f4c:	f840 3c04 	str.w	r3, [r0, #-4]
 8004f50:	4b05      	ldr	r3, [pc, #20]	@ (8004f68 <pxPortInitialiseStack+0x20>)
 8004f52:	f021 0101 	bic.w	r1, r1, #1
 8004f56:	f840 1c08 	str.w	r1, [r0, #-8]
 8004f5a:	f840 3c0c 	str.w	r3, [r0, #-12]
 8004f5e:	f840 2c20 	str.w	r2, [r0, #-32]
 8004f62:	3840      	subs	r0, #64	@ 0x40
 8004f64:	4770      	bx	lr
 8004f66:	bf00      	nop
 8004f68:	08004f09 	.word	0x08004f09
 8004f6c:	00000000 	.word	0x00000000

08004f70 <SVC_Handler>:
 8004f70:	4b07      	ldr	r3, [pc, #28]	@ (8004f90 <pxCurrentTCBConst2>)
 8004f72:	6819      	ldr	r1, [r3, #0]
 8004f74:	6808      	ldr	r0, [r1, #0]
 8004f76:	e8b0 0ff0 	ldmia.w	r0!, {r4, r5, r6, r7, r8, r9, sl, fp}
 8004f7a:	f380 8809 	msr	PSP, r0
 8004f7e:	f3bf 8f6f 	isb	sy
 8004f82:	f04f 0000 	mov.w	r0, #0
 8004f86:	f380 8811 	msr	BASEPRI, r0
 8004f8a:	f04e 0e0d 	orr.w	lr, lr, #13
 8004f8e:	4770      	bx	lr

08004f90 <pxCurrentTCBConst2>:
 8004f90:	20002074 	.word	0x20002074

08004f94 <vPortEnterCritical>:
 8004f94:	f04f 0350 	mov.w	r3, #80	@ 0x50
 8004f98:	f383 8811 	msr	BASEPRI, r3
 8004f9c:	f3bf 8f6f 	isb	sy
 8004fa0:	f3bf 8f4f 	dsb	sy
 8004fa4:	4a0a      	ldr	r2, [pc, #40]	@ (8004fd0 <vPortEnterCritical+0x3c>)
 8004fa6:	6813      	ldr	r3, [r2, #0]
 8004fa8:	3301      	adds	r3, #1
 8004faa:	2b01      	cmp	r3, #1
 8004fac:	6013      	str	r3, [r2, #0]
 8004fae:	d10e      	bne.n	8004fce <vPortEnterCritical+0x3a>
 8004fb0:	f04f 23e0 	mov.w	r3, #3758153728	@ 0xe000e000
 8004fb4:	f8d3 3d04 	ldr.w	r3, [r3, #3332]	@ 0xd04
 8004fb8:	b2db      	uxtb	r3, r3
 8004fba:	b143      	cbz	r3, 8004fce <vPortEnterCritical+0x3a>
 8004fbc:	f04f 0350 	mov.w	r3, #80	@ 0x50
 8004fc0:	f383 8811 	msr	BASEPRI, r3
 8004fc4:	f3bf 8f6f 	isb	sy
 8004fc8:	f3bf 8f4f 	dsb	sy
 8004fcc:	e7fe      	b.n	8004fcc <vPortEnterCritical+0x38>
 8004fce:	4770      	bx	lr
 8004fd0:	2000003c 	.word	0x2000003c

08004fd4 <vPortExitCritical>:
 8004fd4:	4a08      	ldr	r2, [pc, #32]	@ (8004ff8 <vPortExitCritical+0x24>)
 8004fd6:	6813      	ldr	r3, [r2, #0]
 8004fd8:	b943      	cbnz	r3, 8004fec <vPortExitCritical+0x18>
 8004fda:	f04f 0350 	mov.w	r3, #80	@ 0x50
 8004fde:	f383 8811 	msr	BASEPRI, r3
 8004fe2:	f3bf 8f6f 	isb	sy
 8004fe6:	f3bf 8f4f 	dsb	sy
 8004fea:	e7fe      	b.n	8004fea <vPortExitCritical+0x16>
 8004fec:	3b01      	subs	r3, #1
 8004fee:	6013      	str	r3, [r2, #0]
 8004ff0:	b90b      	cbnz	r3, 8004ff6 <vPortExitCritical+0x22>
 8004ff2:	f383 8811 	msr	BASEPRI, r3
 8004ff6:	4770      	bx	lr
 8004ff8:	2000003c 	.word	0x2000003c
 8004ffc:	00000000 	.word	0x00000000

08005000 <PendSV_Handler>:
 8005000:	f3ef 8009 	mrs	r0, PSP
 8005004:	f3bf 8f6f 	isb	sy
 8005008:	4b0d      	ldr	r3, [pc, #52]	@ (8005040 <pxCurrentTCBConst>)
 800500a:	681a      	ldr	r2, [r3, #0]
 800500c:	e920 0ff0 	stmdb	r0!, {r4, r5, r6, r7, r8, r9, sl, fp}
 8005010:	6010      	str	r0, [r2, #0]
 8005012:	e92d 4008 	stmdb	sp!, {r3, lr}
 8005016:	f04f 0050 	mov.w	r0, #80	@ 0x50
 800501a:	f380 8811 	msr	BASEPRI, r0
 800501e:	f000 fd65 	bl	8005aec <vTaskSwitchContext>
 8005022:	f04f 0000 	mov.w	r0, #0
 8005026:	f380 8811 	msr	BASEPRI, r0
 800502a:	e8bd 4008 	ldmia.w	sp!, {r3, lr}
 800502e:	6819      	ldr	r1, [r3, #0]
 8005030:	6808      	ldr	r0, [r1, #0]
 8005032:	e8b0 0ff0 	ldmia.w	r0!, {r4, r5, r6, r7, r8, r9, sl, fp}
 8005036:	f380 8809 	msr	PSP, r0
 800503a:	f3bf 8f6f 	isb	sy
 800503e:	4770      	bx	lr

08005040 <pxCurrentTCBConst>:
 8005040:	20002074 	.word	0x20002074

08005044 <SysTick_Handler>:
 8005044:	b508      	push	{r3, lr}
 8005046:	f04f 0350 	mov.w	r3, #80	@ 0x50
 800504a:	f383 8811 	msr	BASEPRI, r3
 800504e:	f3bf 8f6f 	isb	sy
 8005052:	f3bf 8f4f 	dsb	sy
 8005056:	f000 fbd1 	bl	80057fc <xTaskIncrementTick>
 800505a:	b128      	cbz	r0, 8005068 <SysTick_Handler+0x24>
 800505c:	f04f 23e0 	mov.w	r3, #3758153728	@ 0xe000e000
 8005060:	f04f 5280 	mov.w	r2, #268435456	@ 0x10000000
 8005064:	f8c3 2d04 	str.w	r2, [r3, #3332]	@ 0xd04
 8005068:	2300      	movs	r3, #0
 800506a:	f383 8811 	msr	BASEPRI, r3
 800506e:	bd08      	pop	{r3, pc}

08005070 <vPortSetupTimerInterrupt>:
 8005070:	f04f 22e0 	mov.w	r2, #3758153728	@ 0xe000e000
 8005074:	2300      	movs	r3, #0
 8005076:	f44f 717a 	mov.w	r1, #1000	@ 0x3e8
 800507a:	6113      	str	r3, [r2, #16]
 800507c:	6193      	str	r3, [r2, #24]
 800507e:	4b04      	ldr	r3, [pc, #16]	@ (8005090 <vPortSetupTimerInterrupt+0x20>)
 8005080:	681b      	ldr	r3, [r3, #0]
 8005082:	fbb3 f3f1 	udiv	r3, r3, r1
 8005086:	3b01      	subs	r3, #1
 8005088:	6153      	str	r3, [r2, #20]
 800508a:	2307      	movs	r3, #7
 800508c:	6113      	str	r3, [r2, #16]
 800508e:	4770      	bx	lr
 8005090:	20000000 	.word	0x20000000

08005094 <xPortStartScheduler>:
 8005094:	b513      	push	{r0, r1, r4, lr}
 8005096:	4b27      	ldr	r3, [pc, #156]	@ (8005134 <xPortStartScheduler+0xa0>)
 8005098:	781a      	ldrb	r2, [r3, #0]
 800509a:	b2d2      	uxtb	r2, r2
 800509c:	9201      	str	r2, [sp, #4]
 800509e:	22ff      	movs	r2, #255	@ 0xff
 80050a0:	701a      	strb	r2, [r3, #0]
 80050a2:	781b      	ldrb	r3, [r3, #0]
 80050a4:	4a24      	ldr	r2, [pc, #144]	@ (8005138 <xPortStartScheduler+0xa4>)
 80050a6:	b2db      	uxtb	r3, r3
 80050a8:	f88d 3003 	strb.w	r3, [sp, #3]
 80050ac:	f89d 3003 	ldrb.w	r3, [sp, #3]
 80050b0:	f003 0350 	and.w	r3, r3, #80	@ 0x50
 80050b4:	7013      	strb	r3, [r2, #0]
 80050b6:	2307      	movs	r3, #7
 80050b8:	4a20      	ldr	r2, [pc, #128]	@ (800513c <xPortStartScheduler+0xa8>)
 80050ba:	6013      	str	r3, [r2, #0]
 80050bc:	f89d 1003 	ldrb.w	r1, [sp, #3]
 80050c0:	6813      	ldr	r3, [r2, #0]
 80050c2:	0609      	lsls	r1, r1, #24
 80050c4:	d40a      	bmi.n	80050dc <xPortStartScheduler+0x48>
 80050c6:	2b03      	cmp	r3, #3
 80050c8:	d011      	beq.n	80050ee <xPortStartScheduler+0x5a>
 80050ca:	f04f 0350 	mov.w	r3, #80	@ 0x50
 80050ce:	f383 8811 	msr	BASEPRI, r3
 80050d2:	f3bf 8f6f 	isb	sy
 80050d6:	f3bf 8f4f 	dsb	sy
 80050da:	e7fe      	b.n	80050da <xPortStartScheduler+0x46>
 80050dc:	3b01      	subs	r3, #1
 80050de:	6013      	str	r3, [r2, #0]
 80050e0:	f89d 3003 	ldrb.w	r3, [sp, #3]
 80050e4:	005b      	lsls	r3, r3, #1
 80050e6:	b2db      	uxtb	r3, r3
 80050e8:	f88d 3003 	strb.w	r3, [sp, #3]
 80050ec:	e7e6      	b.n	80050bc <xPortStartScheduler+0x28>
 80050ee:	f44f 7340 	mov.w	r3, #768	@ 0x300
 80050f2:	6013      	str	r3, [r2, #0]
 80050f4:	9b01      	ldr	r3, [sp, #4]
 80050f6:	4a0f      	ldr	r2, [pc, #60]	@ (8005134 <xPortStartScheduler+0xa0>)
 80050f8:	b2db      	uxtb	r3, r3
 80050fa:	7013      	strb	r3, [r2, #0]
 80050fc:	f04f 23e0 	mov.w	r3, #3758153728	@ 0xe000e000
 8005100:	2400      	movs	r4, #0
 8005102:	f8d3 2d20 	ldr.w	r2, [r3, #3360]	@ 0xd20
 8005106:	f442 0270 	orr.w	r2, r2, #15728640	@ 0xf00000
 800510a:	f8c3 2d20 	str.w	r2, [r3, #3360]	@ 0xd20
 800510e:	f8d3 2d20 	ldr.w	r2, [r3, #3360]	@ 0xd20
 8005112:	f042 4270 	orr.w	r2, r2, #4026531840	@ 0xf0000000
 8005116:	f8c3 2d20 	str.w	r2, [r3, #3360]	@ 0xd20
 800511a:	f7ff ffa9 	bl	8005070 <vPortSetupTimerInterrupt>
 800511e:	4b08      	ldr	r3, [pc, #32]	@ (8005140 <xPortStartScheduler+0xac>)
 8005120:	601c      	str	r4, [r3, #0]
 8005122:	f7ff fee1 	bl	8004ee8 <prvPortStartFirstTask>
 8005126:	f000 fce1 	bl	8005aec <vTaskSwitchContext>
 800512a:	4620      	mov	r0, r4
 800512c:	f7ff feec 	bl	8004f08 <prvTaskExitError>
 8005130:	b002      	add	sp, #8
 8005132:	bd10      	pop	{r4, pc}
 8005134:	e000e400 	.word	0xe000e400
 8005138:	20000730 	.word	0x20000730
 800513c:	2000072c 	.word	0x2000072c
 8005140:	2000003c 	.word	0x2000003c

08005144 <prvInsertBlockIntoFreeList>:
 8005144:	b510      	push	{r4, lr}
 8005146:	4b10      	ldr	r3, [pc, #64]	@ (8005188 <prvInsertBlockIntoFreeList+0x44>)
 8005148:	461a      	mov	r2, r3
 800514a:	681b      	ldr	r3, [r3, #0]
 800514c:	4283      	cmp	r3, r0
 800514e:	d3fb      	bcc.n	8005148 <prvInsertBlockIntoFreeList+0x4>
 8005150:	6854      	ldr	r4, [r2, #4]
 8005152:	1911      	adds	r1, r2, r4
 8005154:	4288      	cmp	r0, r1
 8005156:	bf01      	itttt	eq
 8005158:	6841      	ldreq	r1, [r0, #4]
 800515a:	4610      	moveq	r0, r2
 800515c:	1909      	addeq	r1, r1, r4
 800515e:	6051      	streq	r1, [r2, #4]
 8005160:	6844      	ldr	r4, [r0, #4]
 8005162:	1901      	adds	r1, r0, r4
 8005164:	428b      	cmp	r3, r1
 8005166:	d10c      	bne.n	8005182 <prvInsertBlockIntoFreeList+0x3e>
 8005168:	4908      	ldr	r1, [pc, #32]	@ (800518c <prvInsertBlockIntoFreeList+0x48>)
 800516a:	6809      	ldr	r1, [r1, #0]
 800516c:	428b      	cmp	r3, r1
 800516e:	d003      	beq.n	8005178 <prvInsertBlockIntoFreeList+0x34>
 8005170:	6859      	ldr	r1, [r3, #4]
 8005172:	4421      	add	r1, r4
 8005174:	6041      	str	r1, [r0, #4]
 8005176:	6819      	ldr	r1, [r3, #0]
 8005178:	4290      	cmp	r0, r2
 800517a:	6001      	str	r1, [r0, #0]
 800517c:	bf18      	it	ne
 800517e:	6010      	strne	r0, [r2, #0]
 8005180:	bd10      	pop	{r4, pc}
 8005182:	4619      	mov	r1, r3
 8005184:	e7f8      	b.n	8005178 <prvInsertBlockIntoFreeList+0x34>
 8005186:	bf00      	nop
 8005188:	20000748 	.word	0x20000748
 800518c:	20000744 	.word	0x20000744

08005190 <pvPortMalloc>:
 8005190:	b5f8      	push	{r3, r4, r5, r6, r7, lr}
 8005192:	4604      	mov	r4, r0
 8005194:	f000 fb2a 	bl	80057ec <vTaskSuspendAll>
 8005198:	493f      	ldr	r1, [pc, #252]	@ (8005298 <pvPortMalloc+0x108>)
 800519a:	680b      	ldr	r3, [r1, #0]
 800519c:	b9f3      	cbnz	r3, 80051dc <pvPortMalloc+0x4c>
 800519e:	4a3f      	ldr	r2, [pc, #252]	@ (800529c <pvPortMalloc+0x10c>)
 80051a0:	4d3f      	ldr	r5, [pc, #252]	@ (80052a0 <pvPortMalloc+0x110>)
 80051a2:	0750      	lsls	r0, r2, #29
 80051a4:	bf1f      	itttt	ne
 80051a6:	1dd0      	addne	r0, r2, #7
 80051a8:	f020 0007 	bicne.w	r0, r0, #7
 80051ac:	f502 52c0 	addne.w	r2, r2, #6144	@ 0x1800
 80051b0:	1a13      	subne	r3, r2, r0
 80051b2:	bf0c      	ite	eq
 80051b4:	f44f 53c0 	moveq.w	r3, #6144	@ 0x1800
 80051b8:	4602      	movne	r2, r0
 80051ba:	2000      	movs	r0, #0
 80051bc:	4413      	add	r3, r2
 80051be:	3b08      	subs	r3, #8
 80051c0:	f023 0307 	bic.w	r3, r3, #7
 80051c4:	6068      	str	r0, [r5, #4]
 80051c6:	602a      	str	r2, [r5, #0]
 80051c8:	e9c3 0000 	strd	r0, r0, [r3]
 80051cc:	1a98      	subs	r0, r3, r2
 80051ce:	e9c2 3000 	strd	r3, r0, [r2]
 80051d2:	600b      	str	r3, [r1, #0]
 80051d4:	4b33      	ldr	r3, [pc, #204]	@ (80052a4 <pvPortMalloc+0x114>)
 80051d6:	6018      	str	r0, [r3, #0]
 80051d8:	4b33      	ldr	r3, [pc, #204]	@ (80052a8 <pvPortMalloc+0x118>)
 80051da:	6018      	str	r0, [r3, #0]
 80051dc:	2c00      	cmp	r4, #0
 80051de:	d04a      	beq.n	8005276 <pvPortMalloc+0xe6>
 80051e0:	f004 0307 	and.w	r3, r4, #7
 80051e4:	f1a3 0211 	sub.w	r2, r3, #17
 80051e8:	42a2      	cmp	r2, r4
 80051ea:	d351      	bcc.n	8005290 <pvPortMalloc+0x100>
 80051ec:	f104 0e10 	add.w	lr, r4, #16
 80051f0:	ebae 0c03 	sub.w	ip, lr, r3
 80051f4:	f1bc 0f00 	cmp.w	ip, #0
 80051f8:	dd4a      	ble.n	8005290 <pvPortMalloc+0x100>
 80051fa:	4f2b      	ldr	r7, [pc, #172]	@ (80052a8 <pvPortMalloc+0x118>)
 80051fc:	683e      	ldr	r6, [r7, #0]
 80051fe:	4566      	cmp	r6, ip
 8005200:	d346      	bcc.n	8005290 <pvPortMalloc+0x100>
 8005202:	4a27      	ldr	r2, [pc, #156]	@ (80052a0 <pvPortMalloc+0x110>)
 8005204:	6815      	ldr	r5, [r2, #0]
 8005206:	6868      	ldr	r0, [r5, #4]
 8005208:	4560      	cmp	r0, ip
 800520a:	d201      	bcs.n	8005210 <pvPortMalloc+0x80>
 800520c:	682c      	ldr	r4, [r5, #0]
 800520e:	b9bc      	cbnz	r4, 8005240 <pvPortMalloc+0xb0>
 8005210:	6809      	ldr	r1, [r1, #0]
 8005212:	42a9      	cmp	r1, r5
 8005214:	d03c      	beq.n	8005290 <pvPortMalloc+0x100>
 8005216:	eba3 030e 	sub.w	r3, r3, lr
 800521a:	6829      	ldr	r1, [r5, #0]
 800521c:	4403      	add	r3, r0
 800521e:	2b10      	cmp	r3, #16
 8005220:	6814      	ldr	r4, [r2, #0]
 8005222:	6011      	str	r1, [r2, #0]
 8005224:	d914      	bls.n	8005250 <pvPortMalloc+0xc0>
 8005226:	eb05 000c 	add.w	r0, r5, ip
 800522a:	0742      	lsls	r2, r0, #29
 800522c:	d00b      	beq.n	8005246 <pvPortMalloc+0xb6>
 800522e:	f04f 0350 	mov.w	r3, #80	@ 0x50
 8005232:	f383 8811 	msr	BASEPRI, r3
 8005236:	f3bf 8f6f 	isb	sy
 800523a:	f3bf 8f4f 	dsb	sy
 800523e:	e7fe      	b.n	800523e <pvPortMalloc+0xae>
 8005240:	462a      	mov	r2, r5
 8005242:	4625      	mov	r5, r4
 8005244:	e7df      	b.n	8005206 <pvPortMalloc+0x76>
 8005246:	6043      	str	r3, [r0, #4]
 8005248:	f8c5 c004 	str.w	ip, [r5, #4]
 800524c:	f7ff ff7a 	bl	8005144 <prvInsertBlockIntoFreeList>
 8005250:	2300      	movs	r3, #0
 8005252:	686a      	ldr	r2, [r5, #4]
 8005254:	4913      	ldr	r1, [pc, #76]	@ (80052a4 <pvPortMalloc+0x114>)
 8005256:	1ab6      	subs	r6, r6, r2
 8005258:	f042 4200 	orr.w	r2, r2, #2147483648	@ 0x80000000
 800525c:	606a      	str	r2, [r5, #4]
 800525e:	4a13      	ldr	r2, [pc, #76]	@ (80052ac <pvPortMalloc+0x11c>)
 8005260:	6808      	ldr	r0, [r1, #0]
 8005262:	602b      	str	r3, [r5, #0]
 8005264:	6813      	ldr	r3, [r2, #0]
 8005266:	4286      	cmp	r6, r0
 8005268:	f103 0301 	add.w	r3, r3, #1
 800526c:	603e      	str	r6, [r7, #0]
 800526e:	bf38      	it	cc
 8005270:	600e      	strcc	r6, [r1, #0]
 8005272:	3408      	adds	r4, #8
 8005274:	6013      	str	r3, [r2, #0]
 8005276:	f000 fb77 	bl	8005968 <xTaskResumeAll>
 800527a:	0763      	lsls	r3, r4, #29
 800527c:	d00a      	beq.n	8005294 <pvPortMalloc+0x104>
 800527e:	f04f 0350 	mov.w	r3, #80	@ 0x50
 8005282:	f383 8811 	msr	BASEPRI, r3
 8005286:	f3bf 8f6f 	isb	sy
 800528a:	f3bf 8f4f 	dsb	sy
 800528e:	e7fe      	b.n	800528e <pvPortMalloc+0xfe>
 8005290:	2400      	movs	r4, #0
 8005292:	e7f0      	b.n	8005276 <pvPortMalloc+0xe6>
 8005294:	4620      	mov	r0, r4
 8005296:	bdf8      	pop	{r3, r4, r5, r6, r7, pc}
 8005298:	20000744 	.word	0x20000744
 800529c:	20000750 	.word	0x20000750
 80052a0:	20000748 	.word	0x20000748
 80052a4:	2000073c 	.word	0x2000073c
 80052a8:	20000740 	.word	0x20000740
 80052ac:	20000738 	.word	0x20000738

080052b0 <vPortFree>:
 80052b0:	b510      	push	{r4, lr}
 80052b2:	4604      	mov	r4, r0
 80052b4:	b380      	cbz	r0, 8005318 <vPortFree+0x68>
 80052b6:	f850 3c04 	ldr.w	r3, [r0, #-4]
 80052ba:	2b00      	cmp	r3, #0
 80052bc:	db08      	blt.n	80052d0 <vPortFree+0x20>
 80052be:	f04f 0350 	mov.w	r3, #80	@ 0x50
 80052c2:	f383 8811 	msr	BASEPRI, r3
 80052c6:	f3bf 8f6f 	isb	sy
 80052ca:	f3bf 8f4f 	dsb	sy
 80052ce:	e7fe      	b.n	80052ce <vPortFree+0x1e>
 80052d0:	f850 2c08 	ldr.w	r2, [r0, #-8]
 80052d4:	b142      	cbz	r2, 80052e8 <vPortFree+0x38>
 80052d6:	f04f 0350 	mov.w	r3, #80	@ 0x50
 80052da:	f383 8811 	msr	BASEPRI, r3
 80052de:	f3bf 8f6f 	isb	sy
 80052e2:	f3bf 8f4f 	dsb	sy
 80052e6:	e7fe      	b.n	80052e6 <vPortFree+0x36>
 80052e8:	f023 4300 	bic.w	r3, r3, #2147483648	@ 0x80000000
 80052ec:	f840 3c04 	str.w	r3, [r0, #-4]
 80052f0:	f000 fa7c 	bl	80057ec <vTaskSuspendAll>
 80052f4:	4a09      	ldr	r2, [pc, #36]	@ (800531c <vPortFree+0x6c>)
 80052f6:	f854 3c04 	ldr.w	r3, [r4, #-4]
 80052fa:	6811      	ldr	r1, [r2, #0]
 80052fc:	f1a4 0008 	sub.w	r0, r4, #8
 8005300:	440b      	add	r3, r1
 8005302:	6013      	str	r3, [r2, #0]
 8005304:	f7ff ff1e 	bl	8005144 <prvInsertBlockIntoFreeList>
 8005308:	e8bd 4010 	ldmia.w	sp!, {r4, lr}
 800530c:	4a04      	ldr	r2, [pc, #16]	@ (8005320 <vPortFree+0x70>)
 800530e:	6813      	ldr	r3, [r2, #0]
 8005310:	3301      	adds	r3, #1
 8005312:	6013      	str	r3, [r2, #0]
 8005314:	f000 bb28 	b.w	8005968 <xTaskResumeAll>
 8005318:	bd10      	pop	{r4, pc}
 800531a:	bf00      	nop
 800531c:	20000740 	.word	0x20000740
 8005320:	20000734 	.word	0x20000734

08005324 <prvAddNewTaskToReadyList>:
 8005324:	e92d 41f0 	stmdb	sp!, {r4, r5, r6, r7, r8, lr}
 8005328:	4604      	mov	r4, r0
 800532a:	f7ff fe33 	bl	8004f94 <vPortEnterCritical>
 800532e:	4b33      	ldr	r3, [pc, #204]	@ (80053fc <prvAddNewTaskToReadyList+0xd8>)
 8005330:	4e33      	ldr	r6, [pc, #204]	@ (8005400 <prvAddNewTaskToReadyList+0xdc>)
 8005332:	681a      	ldr	r2, [r3, #0]
 8005334:	4f33      	ldr	r7, [pc, #204]	@ (8005404 <prvAddNewTaskToReadyList+0xe0>)
 8005336:	3201      	adds	r2, #1
 8005338:	601a      	str	r2, [r3, #0]
 800533a:	6835      	ldr	r5, [r6, #0]
 800533c:	2d00      	cmp	r5, #0
 800533e:	d152      	bne.n	80053e6 <prvAddNewTaskToReadyList+0xc2>
 8005340:	6034      	str	r4, [r6, #0]
 8005342:	681b      	ldr	r3, [r3, #0]
 8005344:	2b01      	cmp	r3, #1
 8005346:	d11f      	bne.n	8005388 <prvAddNewTaskToReadyList+0x64>
 8005348:	46b8      	mov	r8, r7
 800534a:	4640      	mov	r0, r8
 800534c:	3501      	adds	r5, #1
 800534e:	f7ff fd95 	bl	8004e7c <vListInitialise>
 8005352:	2d07      	cmp	r5, #7
 8005354:	f108 0814 	add.w	r8, r8, #20
 8005358:	d1f7      	bne.n	800534a <prvAddNewTaskToReadyList+0x26>
 800535a:	f8df 80ac 	ldr.w	r8, [pc, #172]	@ 8005408 <prvAddNewTaskToReadyList+0xe4>
 800535e:	4d2b      	ldr	r5, [pc, #172]	@ (800540c <prvAddNewTaskToReadyList+0xe8>)
 8005360:	4640      	mov	r0, r8
 8005362:	f7ff fd8b 	bl	8004e7c <vListInitialise>
 8005366:	4628      	mov	r0, r5
 8005368:	f7ff fd88 	bl	8004e7c <vListInitialise>
 800536c:	4828      	ldr	r0, [pc, #160]	@ (8005410 <prvAddNewTaskToReadyList+0xec>)
 800536e:	f7ff fd85 	bl	8004e7c <vListInitialise>
 8005372:	4828      	ldr	r0, [pc, #160]	@ (8005414 <prvAddNewTaskToReadyList+0xf0>)
 8005374:	f7ff fd82 	bl	8004e7c <vListInitialise>
 8005378:	4827      	ldr	r0, [pc, #156]	@ (8005418 <prvAddNewTaskToReadyList+0xf4>)
 800537a:	f7ff fd7f 	bl	8004e7c <vListInitialise>
 800537e:	4b27      	ldr	r3, [pc, #156]	@ (800541c <prvAddNewTaskToReadyList+0xf8>)
 8005380:	f8c3 8000 	str.w	r8, [r3]
 8005384:	4b26      	ldr	r3, [pc, #152]	@ (8005420 <prvAddNewTaskToReadyList+0xfc>)
 8005386:	601d      	str	r5, [r3, #0]
 8005388:	4a26      	ldr	r2, [pc, #152]	@ (8005424 <prvAddNewTaskToReadyList+0x100>)
 800538a:	4927      	ldr	r1, [pc, #156]	@ (8005428 <prvAddNewTaskToReadyList+0x104>)
 800538c:	6813      	ldr	r3, [r2, #0]
 800538e:	6808      	ldr	r0, [r1, #0]
 8005390:	3301      	adds	r3, #1
 8005392:	6013      	str	r3, [r2, #0]
 8005394:	2201      	movs	r2, #1
 8005396:	6ae3      	ldr	r3, [r4, #44]	@ 0x2c
 8005398:	409a      	lsls	r2, r3
 800539a:	4302      	orrs	r2, r0
 800539c:	600a      	str	r2, [r1, #0]
 800539e:	2214      	movs	r2, #20
 80053a0:	4353      	muls	r3, r2
 80053a2:	18f9      	adds	r1, r7, r3
 80053a4:	684a      	ldr	r2, [r1, #4]
 80053a6:	1d20      	adds	r0, r4, #4
 80053a8:	6895      	ldr	r5, [r2, #8]
 80053aa:	60a2      	str	r2, [r4, #8]
 80053ac:	60e5      	str	r5, [r4, #12]
 80053ae:	6068      	str	r0, [r5, #4]
 80053b0:	6090      	str	r0, [r2, #8]
 80053b2:	58fa      	ldr	r2, [r7, r3]
 80053b4:	6161      	str	r1, [r4, #20]
 80053b6:	3201      	adds	r2, #1
 80053b8:	50fa      	str	r2, [r7, r3]
 80053ba:	f7ff fe0b 	bl	8004fd4 <vPortExitCritical>
 80053be:	4b1b      	ldr	r3, [pc, #108]	@ (800542c <prvAddNewTaskToReadyList+0x108>)
 80053c0:	681b      	ldr	r3, [r3, #0]
 80053c2:	b173      	cbz	r3, 80053e2 <prvAddNewTaskToReadyList+0xbe>
 80053c4:	6833      	ldr	r3, [r6, #0]
 80053c6:	6ada      	ldr	r2, [r3, #44]	@ 0x2c
 80053c8:	6ae3      	ldr	r3, [r4, #44]	@ 0x2c
 80053ca:	429a      	cmp	r2, r3
 80053cc:	d209      	bcs.n	80053e2 <prvAddNewTaskToReadyList+0xbe>
 80053ce:	f04f 23e0 	mov.w	r3, #3758153728	@ 0xe000e000
 80053d2:	f04f 5280 	mov.w	r2, #268435456	@ 0x10000000
 80053d6:	f8c3 2d04 	str.w	r2, [r3, #3332]	@ 0xd04
 80053da:	f3bf 8f4f 	dsb	sy
 80053de:	f3bf 8f6f 	isb	sy
 80053e2:	e8bd 81f0 	ldmia.w	sp!, {r4, r5, r6, r7, r8, pc}
 80053e6:	4b11      	ldr	r3, [pc, #68]	@ (800542c <prvAddNewTaskToReadyList+0x108>)
 80053e8:	681a      	ldr	r2, [r3, #0]
 80053ea:	6ae3      	ldr	r3, [r4, #44]	@ 0x2c
 80053ec:	2a00      	cmp	r2, #0
 80053ee:	d1cb      	bne.n	8005388 <prvAddNewTaskToReadyList+0x64>
 80053f0:	6832      	ldr	r2, [r6, #0]
 80053f2:	6ad2      	ldr	r2, [r2, #44]	@ 0x2c
 80053f4:	429a      	cmp	r2, r3
 80053f6:	bf98      	it	ls
 80053f8:	6034      	strls	r4, [r6, #0]
 80053fa:	e7c5      	b.n	8005388 <prvAddNewTaskToReadyList+0x64>
 80053fc:	20001f74 	.word	0x20001f74
 8005400:	20002074 	.word	0x20002074
 8005404:	20001fe8 	.word	0x20001fe8
 8005408:	20001fd4 	.word	0x20001fd4
 800540c:	20001fc0 	.word	0x20001fc0
 8005410:	20001fa4 	.word	0x20001fa4
 8005414:	20001f90 	.word	0x20001f90
 8005418:	20001f78 	.word	0x20001f78
 800541c:	20001fbc 	.word	0x20001fbc
 8005420:	20001fb8 	.word	0x20001fb8
 8005424:	20001f58 	.word	0x20001f58
 8005428:	20001f6c 	.word	0x20001f6c
 800542c:	20001f68 	.word	0x20001f68

08005430 <prvAddCurrentTaskToDelayedList>:
 8005430:	b5f8      	push	{r3, r4, r5, r6, r7, lr}
 8005432:	4b20      	ldr	r3, [pc, #128]	@ (80054b4 <prvAddCurrentTaskToDelayedList+0x84>)
 8005434:	4c20      	ldr	r4, [pc, #128]	@ (80054b8 <prvAddCurrentTaskToDelayedList+0x88>)
 8005436:	4606      	mov	r6, r0
 8005438:	681d      	ldr	r5, [r3, #0]
 800543a:	6820      	ldr	r0, [r4, #0]
 800543c:	460f      	mov	r7, r1
 800543e:	3004      	adds	r0, #4
 8005440:	f7ff fd41 	bl	8004ec6 <uxListRemove>
 8005444:	b940      	cbnz	r0, 8005458 <prvAddCurrentTaskToDelayedList+0x28>
 8005446:	6822      	ldr	r2, [r4, #0]
 8005448:	491c      	ldr	r1, [pc, #112]	@ (80054bc <prvAddCurrentTaskToDelayedList+0x8c>)
 800544a:	6ad0      	ldr	r0, [r2, #44]	@ 0x2c
 800544c:	2201      	movs	r2, #1
 800544e:	680b      	ldr	r3, [r1, #0]
 8005450:	4082      	lsls	r2, r0
 8005452:	ea23 0302 	bic.w	r3, r3, r2
 8005456:	600b      	str	r3, [r1, #0]
 8005458:	1c73      	adds	r3, r6, #1
 800545a:	d113      	bne.n	8005484 <prvAddCurrentTaskToDelayedList+0x54>
 800545c:	b197      	cbz	r7, 8005484 <prvAddCurrentTaskToDelayedList+0x54>
 800545e:	4b18      	ldr	r3, [pc, #96]	@ (80054c0 <prvAddCurrentTaskToDelayedList+0x90>)
 8005460:	6821      	ldr	r1, [r4, #0]
 8005462:	685a      	ldr	r2, [r3, #4]
 8005464:	608a      	str	r2, [r1, #8]
 8005466:	6890      	ldr	r0, [r2, #8]
 8005468:	6821      	ldr	r1, [r4, #0]
 800546a:	60c8      	str	r0, [r1, #12]
 800546c:	6821      	ldr	r1, [r4, #0]
 800546e:	3104      	adds	r1, #4
 8005470:	6041      	str	r1, [r0, #4]
 8005472:	6821      	ldr	r1, [r4, #0]
 8005474:	3104      	adds	r1, #4
 8005476:	6091      	str	r1, [r2, #8]
 8005478:	6822      	ldr	r2, [r4, #0]
 800547a:	6153      	str	r3, [r2, #20]
 800547c:	681a      	ldr	r2, [r3, #0]
 800547e:	3201      	adds	r2, #1
 8005480:	601a      	str	r2, [r3, #0]
 8005482:	bdf8      	pop	{r3, r4, r5, r6, r7, pc}
 8005484:	6823      	ldr	r3, [r4, #0]
 8005486:	19ad      	adds	r5, r5, r6
 8005488:	605d      	str	r5, [r3, #4]
 800548a:	d307      	bcc.n	800549c <prvAddCurrentTaskToDelayedList+0x6c>
 800548c:	4b0d      	ldr	r3, [pc, #52]	@ (80054c4 <prvAddCurrentTaskToDelayedList+0x94>)
 800548e:	6818      	ldr	r0, [r3, #0]
 8005490:	6821      	ldr	r1, [r4, #0]
 8005492:	e8bd 40f8 	ldmia.w	sp!, {r3, r4, r5, r6, r7, lr}
 8005496:	3104      	adds	r1, #4
 8005498:	f7ff bcfe 	b.w	8004e98 <vListInsert>
 800549c:	4b0a      	ldr	r3, [pc, #40]	@ (80054c8 <prvAddCurrentTaskToDelayedList+0x98>)
 800549e:	6818      	ldr	r0, [r3, #0]
 80054a0:	6821      	ldr	r1, [r4, #0]
 80054a2:	3104      	adds	r1, #4
 80054a4:	f7ff fcf8 	bl	8004e98 <vListInsert>
 80054a8:	4b08      	ldr	r3, [pc, #32]	@ (80054cc <prvAddCurrentTaskToDelayedList+0x9c>)
 80054aa:	681a      	ldr	r2, [r3, #0]
 80054ac:	42aa      	cmp	r2, r5
 80054ae:	bf88      	it	hi
 80054b0:	601d      	strhi	r5, [r3, #0]
 80054b2:	e7e6      	b.n	8005482 <prvAddCurrentTaskToDelayedList+0x52>
 80054b4:	20001f70 	.word	0x20001f70
 80054b8:	20002074 	.word	0x20002074
 80054bc:	20001f6c 	.word	0x20001f6c
 80054c0:	20001f78 	.word	0x20001f78
 80054c4:	20001fb8 	.word	0x20001fb8
 80054c8:	20001fbc 	.word	0x20001fbc
 80054cc:	20001f54 	.word	0x20001f54

080054d0 <prvResetNextTaskUnblockTime>:
 80054d0:	4a06      	ldr	r2, [pc, #24]	@ (80054ec <prvResetNextTaskUnblockTime+0x1c>)
 80054d2:	6813      	ldr	r3, [r2, #0]
 80054d4:	6819      	ldr	r1, [r3, #0]
 80054d6:	4b06      	ldr	r3, [pc, #24]	@ (80054f0 <prvResetNextTaskUnblockTime+0x20>)
 80054d8:	b919      	cbnz	r1, 80054e2 <prvResetNextTaskUnblockTime+0x12>
 80054da:	f04f 32ff 	mov.w	r2, #4294967295
 80054de:	601a      	str	r2, [r3, #0]
 80054e0:	4770      	bx	lr
 80054e2:	6812      	ldr	r2, [r2, #0]
 80054e4:	68d2      	ldr	r2, [r2, #12]
 80054e6:	6812      	ldr	r2, [r2, #0]
 80054e8:	e7f9      	b.n	80054de <prvResetNextTaskUnblockTime+0xe>
 80054ea:	bf00      	nop
 80054ec:	20001fbc 	.word	0x20001fbc
 80054f0:	20001f54 	.word	0x20001f54

080054f4 <prvDeleteTCB>:
 80054f4:	b510      	push	{r4, lr}
 80054f6:	4604      	mov	r4, r0
 80054f8:	4b0e      	ldr	r3, [pc, #56]	@ (8005534 <prvDeleteTCB+0x40>)
 80054fa:	6818      	ldr	r0, [r3, #0]
 80054fc:	3050      	adds	r0, #80	@ 0x50
 80054fe:	f000 ff5d 	bl	80063bc <_reclaim_reent>
 8005502:	f894 3195 	ldrb.w	r3, [r4, #405]	@ 0x195
 8005506:	b93b      	cbnz	r3, 8005518 <prvDeleteTCB+0x24>
 8005508:	6b20      	ldr	r0, [r4, #48]	@ 0x30
 800550a:	f7ff fed1 	bl	80052b0 <vPortFree>
 800550e:	4620      	mov	r0, r4
 8005510:	e8bd 4010 	ldmia.w	sp!, {r4, lr}
 8005514:	f7ff becc 	b.w	80052b0 <vPortFree>
 8005518:	2b01      	cmp	r3, #1
 800551a:	d0f8      	beq.n	800550e <prvDeleteTCB+0x1a>
 800551c:	2b02      	cmp	r3, #2
 800551e:	d008      	beq.n	8005532 <prvDeleteTCB+0x3e>
 8005520:	f04f 0350 	mov.w	r3, #80	@ 0x50
 8005524:	f383 8811 	msr	BASEPRI, r3
 8005528:	f3bf 8f6f 	isb	sy
 800552c:	f3bf 8f4f 	dsb	sy
 8005530:	e7fe      	b.n	8005530 <prvDeleteTCB+0x3c>
 8005532:	bd10      	pop	{r4, pc}
 8005534:	20002074 	.word	0x20002074

08005538 <prvIdleTask>:
 8005538:	b580      	push	{r7, lr}
 800553a:	4c13      	ldr	r4, [pc, #76]	@ (8005588 <prvIdleTask+0x50>)
 800553c:	4f13      	ldr	r7, [pc, #76]	@ (800558c <prvIdleTask+0x54>)
 800553e:	4d14      	ldr	r5, [pc, #80]	@ (8005590 <prvIdleTask+0x58>)
 8005540:	6823      	ldr	r3, [r4, #0]
 8005542:	b973      	cbnz	r3, 8005562 <prvIdleTask+0x2a>
 8005544:	4b13      	ldr	r3, [pc, #76]	@ (8005594 <prvIdleTask+0x5c>)
 8005546:	681b      	ldr	r3, [r3, #0]
 8005548:	2b01      	cmp	r3, #1
 800554a:	d9f8      	bls.n	800553e <prvIdleTask+0x6>
 800554c:	f04f 23e0 	mov.w	r3, #3758153728	@ 0xe000e000
 8005550:	f04f 5280 	mov.w	r2, #268435456	@ 0x10000000
 8005554:	f8c3 2d04 	str.w	r2, [r3, #3332]	@ 0xd04
 8005558:	f3bf 8f4f 	dsb	sy
 800555c:	f3bf 8f6f 	isb	sy
 8005560:	e7ed      	b.n	800553e <prvIdleTask+0x6>
 8005562:	f7ff fd17 	bl	8004f94 <vPortEnterCritical>
 8005566:	68fb      	ldr	r3, [r7, #12]
 8005568:	68de      	ldr	r6, [r3, #12]
 800556a:	1d30      	adds	r0, r6, #4
 800556c:	f7ff fcab 	bl	8004ec6 <uxListRemove>
 8005570:	682b      	ldr	r3, [r5, #0]
 8005572:	3b01      	subs	r3, #1
 8005574:	602b      	str	r3, [r5, #0]
 8005576:	6823      	ldr	r3, [r4, #0]
 8005578:	3b01      	subs	r3, #1
 800557a:	6023      	str	r3, [r4, #0]
 800557c:	f7ff fd2a 	bl	8004fd4 <vPortExitCritical>
 8005580:	4630      	mov	r0, r6
 8005582:	f7ff ffb7 	bl	80054f4 <prvDeleteTCB>
 8005586:	e7db      	b.n	8005540 <prvIdleTask+0x8>
 8005588:	20001f8c 	.word	0x20001f8c
 800558c:	20001f90 	.word	0x20001f90
 8005590:	20001f74 	.word	0x20001f74
 8005594:	20001fe8 	.word	0x20001fe8

08005598 <prvInitialiseNewTask.constprop.0>:
 8005598:	e92d 47f0 	stmdb	sp!, {r4, r5, r6, r7, r8, r9, sl, lr}
 800559c:	9c0a      	ldr	r4, [sp, #40]	@ 0x28
 800559e:	4606      	mov	r6, r0
 80055a0:	e9dd a808 	ldrd	sl, r8, [sp, #32]
 80055a4:	4615      	mov	r5, r2
 80055a6:	461f      	mov	r7, r3
 80055a8:	f8d4 9030 	ldr.w	r9, [r4, #48]	@ 0x30
 80055ac:	b169      	cbz	r1, 80055ca <prvInitialiseNewTask.constprop.0+0x32>
 80055ae:	1e4b      	subs	r3, r1, #1
 80055b0:	f104 0233 	add.w	r2, r4, #51	@ 0x33
 80055b4:	310f      	adds	r1, #15
 80055b6:	f813 0f01 	ldrb.w	r0, [r3, #1]!
 80055ba:	f802 0f01 	strb.w	r0, [r2, #1]!
 80055be:	b108      	cbz	r0, 80055c4 <prvInitialiseNewTask.constprop.0+0x2c>
 80055c0:	428b      	cmp	r3, r1
 80055c2:	d1f8      	bne.n	80055b6 <prvInitialiseNewTask.constprop.0+0x1e>
 80055c4:	2300      	movs	r3, #0
 80055c6:	f884 3043 	strb.w	r3, [r4, #67]	@ 0x43
 80055ca:	f1ba 0f06 	cmp.w	sl, #6
 80055ce:	d908      	bls.n	80055e2 <prvInitialiseNewTask.constprop.0+0x4a>
 80055d0:	f04f 0350 	mov.w	r3, #80	@ 0x50
 80055d4:	f383 8811 	msr	BASEPRI, r3
 80055d8:	f3bf 8f6f 	isb	sy
 80055dc:	f3bf 8f4f 	dsb	sy
 80055e0:	e7fe      	b.n	80055e0 <prvInitialiseNewTask.constprop.0+0x48>
 80055e2:	1d20      	adds	r0, r4, #4
 80055e4:	f8c4 a02c 	str.w	sl, [r4, #44]	@ 0x2c
 80055e8:	f8c4 a044 	str.w	sl, [r4, #68]	@ 0x44
 80055ec:	f7ff fc51 	bl	8004e92 <vListInitialiseItem>
 80055f0:	f104 0018 	add.w	r0, r4, #24
 80055f4:	f7ff fc4d 	bl	8004e92 <vListInitialiseItem>
 80055f8:	f1ca 0307 	rsb	r3, sl, #7
 80055fc:	f44f 72a0 	mov.w	r2, #320	@ 0x140
 8005600:	2100      	movs	r1, #0
 8005602:	61a3      	str	r3, [r4, #24]
 8005604:	6124      	str	r4, [r4, #16]
 8005606:	6264      	str	r4, [r4, #36]	@ 0x24
 8005608:	f104 0050 	add.w	r0, r4, #80	@ 0x50
 800560c:	f000 fe3d 	bl	800628a <memset>
 8005610:	4b13      	ldr	r3, [pc, #76]	@ (8005660 <prvInitialiseNewTask.constprop.0+0xc8>)
 8005612:	f105 4580 	add.w	r5, r5, #1073741824	@ 0x40000000
 8005616:	f103 0268 	add.w	r2, r3, #104	@ 0x68
 800561a:	6563      	str	r3, [r4, #84]	@ 0x54
 800561c:	33d0      	adds	r3, #208	@ 0xd0
 800561e:	65a2      	str	r2, [r4, #88]	@ 0x58
 8005620:	65e3      	str	r3, [r4, #92]	@ 0x5c
 8005622:	2201      	movs	r2, #1
 8005624:	2300      	movs	r3, #0
 8005626:	e9c4 233a 	strd	r2, r3, [r4, #232]	@ 0xe8
 800562a:	4a0e      	ldr	r2, [pc, #56]	@ (8005664 <prvInitialiseNewTask.constprop.0+0xcc>)
 800562c:	4b0e      	ldr	r3, [pc, #56]	@ (8005668 <prvInitialiseNewTask.constprop.0+0xd0>)
 800562e:	3d01      	subs	r5, #1
 8005630:	e9c4 233c 	strd	r2, r3, [r4, #240]	@ 0xf0
 8005634:	4b0d      	ldr	r3, [pc, #52]	@ (800566c <prvInitialiseNewTask.constprop.0+0xd4>)
 8005636:	eb09 0085 	add.w	r0, r9, r5, lsl #2
 800563a:	f8c4 30f8 	str.w	r3, [r4, #248]	@ 0xf8
 800563e:	230b      	movs	r3, #11
 8005640:	463a      	mov	r2, r7
 8005642:	4631      	mov	r1, r6
 8005644:	f8a4 30fc 	strh.w	r3, [r4, #252]	@ 0xfc
 8005648:	f020 0007 	bic.w	r0, r0, #7
 800564c:	f7ff fc7c 	bl	8004f48 <pxPortInitialiseStack>
 8005650:	6020      	str	r0, [r4, #0]
 8005652:	f1b8 0f00 	cmp.w	r8, #0
 8005656:	d001      	beq.n	800565c <prvInitialiseNewTask.constprop.0+0xc4>
 8005658:	f8c8 4000 	str.w	r4, [r8]
 800565c:	e8bd 87f0 	ldmia.w	sp!, {r4, r5, r6, r7, r8, r9, sl, pc}
 8005660:	20003fcc 	.word	0x20003fcc
 8005664:	abcd330e 	.word	0xabcd330e
 8005668:	e66d1234 	.word	0xe66d1234
 800566c:	0005deec 	.word	0x0005deec

08005670 <xTaskCreateStatic>:
 8005670:	e92d 43f0 	stmdb	sp!, {r4, r5, r6, r7, r8, r9, lr}
 8005674:	b087      	sub	sp, #28
 8005676:	4605      	mov	r5, r0
 8005678:	e9dd 940f 	ldrd	r9, r4, [sp, #60]	@ 0x3c
 800567c:	460e      	mov	r6, r1
 800567e:	4617      	mov	r7, r2
 8005680:	4698      	mov	r8, r3
 8005682:	f1b9 0f00 	cmp.w	r9, #0
 8005686:	d108      	bne.n	800569a <xTaskCreateStatic+0x2a>
 8005688:	f04f 0350 	mov.w	r3, #80	@ 0x50
 800568c:	f383 8811 	msr	BASEPRI, r3
 8005690:	f3bf 8f6f 	isb	sy
 8005694:	f3bf 8f4f 	dsb	sy
 8005698:	e7fe      	b.n	8005698 <xTaskCreateStatic+0x28>
 800569a:	b944      	cbnz	r4, 80056ae <xTaskCreateStatic+0x3e>
 800569c:	f04f 0350 	mov.w	r3, #80	@ 0x50
 80056a0:	f383 8811 	msr	BASEPRI, r3
 80056a4:	f3bf 8f6f 	isb	sy
 80056a8:	f3bf 8f4f 	dsb	sy
 80056ac:	e7fe      	b.n	80056ac <xTaskCreateStatic+0x3c>
 80056ae:	f44f 73cc 	mov.w	r3, #408	@ 0x198
 80056b2:	9305      	str	r3, [sp, #20]
 80056b4:	9a05      	ldr	r2, [sp, #20]
 80056b6:	429a      	cmp	r2, r3
 80056b8:	d008      	beq.n	80056cc <xTaskCreateStatic+0x5c>
 80056ba:	f04f 0350 	mov.w	r3, #80	@ 0x50
 80056be:	f383 8811 	msr	BASEPRI, r3
 80056c2:	f3bf 8f6f 	isb	sy
 80056c6:	f3bf 8f4f 	dsb	sy
 80056ca:	e7fe      	b.n	80056ca <xTaskCreateStatic+0x5a>
 80056cc:	2100      	movs	r1, #0
 80056ce:	4620      	mov	r0, r4
 80056d0:	9b05      	ldr	r3, [sp, #20]
 80056d2:	f000 fdda 	bl	800628a <memset>
 80056d6:	2302      	movs	r3, #2
 80056d8:	f884 3195 	strb.w	r3, [r4, #405]	@ 0x195
 80056dc:	ab04      	add	r3, sp, #16
 80056de:	f8c4 9030 	str.w	r9, [r4, #48]	@ 0x30
 80056e2:	9301      	str	r3, [sp, #4]
 80056e4:	9b0e      	ldr	r3, [sp, #56]	@ 0x38
 80056e6:	463a      	mov	r2, r7
 80056e8:	4631      	mov	r1, r6
 80056ea:	4628      	mov	r0, r5
 80056ec:	9300      	str	r3, [sp, #0]
 80056ee:	9402      	str	r4, [sp, #8]
 80056f0:	4643      	mov	r3, r8
 80056f2:	f7ff ff51 	bl	8005598 <prvInitialiseNewTask.constprop.0>
 80056f6:	4620      	mov	r0, r4
 80056f8:	f7ff fe14 	bl	8005324 <prvAddNewTaskToReadyList>
 80056fc:	9804      	ldr	r0, [sp, #16]
 80056fe:	b007      	add	sp, #28
 8005700:	e8bd 83f0 	ldmia.w	sp!, {r4, r5, r6, r7, r8, r9, pc}

08005704 <xTaskCreate>:
 8005704:	e92d 43f0 	stmdb	sp!, {r4, r5, r6, r7, r8, r9, lr}
 8005708:	4607      	mov	r7, r0
 800570a:	b085      	sub	sp, #20
 800570c:	0090      	lsls	r0, r2, #2
 800570e:	4688      	mov	r8, r1
 8005710:	4616      	mov	r6, r2
 8005712:	4699      	mov	r9, r3
 8005714:	f7ff fd3c 	bl	8005190 <pvPortMalloc>
 8005718:	4605      	mov	r5, r0
 800571a:	b920      	cbnz	r0, 8005726 <xTaskCreate+0x22>
 800571c:	f04f 30ff 	mov.w	r0, #4294967295
 8005720:	b005      	add	sp, #20
 8005722:	e8bd 83f0 	ldmia.w	sp!, {r4, r5, r6, r7, r8, r9, pc}
 8005726:	f44f 70cc 	mov.w	r0, #408	@ 0x198
 800572a:	f7ff fd31 	bl	8005190 <pvPortMalloc>
 800572e:	4604      	mov	r4, r0
 8005730:	b1a8      	cbz	r0, 800575e <xTaskCreate+0x5a>
 8005732:	f44f 72cc 	mov.w	r2, #408	@ 0x198
 8005736:	2100      	movs	r1, #0
 8005738:	f000 fda7 	bl	800628a <memset>
 800573c:	9b0d      	ldr	r3, [sp, #52]	@ 0x34
 800573e:	6325      	str	r5, [r4, #48]	@ 0x30
 8005740:	9301      	str	r3, [sp, #4]
 8005742:	9b0c      	ldr	r3, [sp, #48]	@ 0x30
 8005744:	4632      	mov	r2, r6
 8005746:	4641      	mov	r1, r8
 8005748:	4638      	mov	r0, r7
 800574a:	9300      	str	r3, [sp, #0]
 800574c:	9402      	str	r4, [sp, #8]
 800574e:	464b      	mov	r3, r9
 8005750:	f7ff ff22 	bl	8005598 <prvInitialiseNewTask.constprop.0>
 8005754:	4620      	mov	r0, r4
 8005756:	f7ff fde5 	bl	8005324 <prvAddNewTaskToReadyList>
 800575a:	2001      	movs	r0, #1
 800575c:	e7e0      	b.n	8005720 <xTaskCreate+0x1c>
 800575e:	4628      	mov	r0, r5
 8005760:	f7ff fda6 	bl	80052b0 <vPortFree>
 8005764:	e7da      	b.n	800571c <xTaskCreate+0x18>
	...

08005768 <vTaskStartScheduler>:
 8005768:	b510      	push	{r4, lr}
 800576a:	2400      	movs	r4, #0
 800576c:	b088      	sub	sp, #32
 800576e:	aa07      	add	r2, sp, #28
 8005770:	a906      	add	r1, sp, #24
 8005772:	a805      	add	r0, sp, #20
 8005774:	e9cd 4405 	strd	r4, r4, [sp, #20]
 8005778:	f7fd fec6 	bl	8003508 <vApplicationGetIdleTaskMemory>
 800577c:	9b05      	ldr	r3, [sp, #20]
 800577e:	9a07      	ldr	r2, [sp, #28]
 8005780:	9302      	str	r3, [sp, #8]
 8005782:	9b06      	ldr	r3, [sp, #24]
 8005784:	4911      	ldr	r1, [pc, #68]	@ (80057cc <vTaskStartScheduler+0x64>)
 8005786:	e9cd 4300 	strd	r4, r3, [sp]
 800578a:	4811      	ldr	r0, [pc, #68]	@ (80057d0 <vTaskStartScheduler+0x68>)
 800578c:	4623      	mov	r3, r4
 800578e:	f7ff ff6f 	bl	8005670 <xTaskCreateStatic>
 8005792:	b1b8      	cbz	r0, 80057c4 <vTaskStartScheduler+0x5c>
 8005794:	f04f 0350 	mov.w	r3, #80	@ 0x50
 8005798:	f383 8811 	msr	BASEPRI, r3
 800579c:	f3bf 8f6f 	isb	sy
 80057a0:	f3bf 8f4f 	dsb	sy
 80057a4:	4b0b      	ldr	r3, [pc, #44]	@ (80057d4 <vTaskStartScheduler+0x6c>)
 80057a6:	4a0c      	ldr	r2, [pc, #48]	@ (80057d8 <vTaskStartScheduler+0x70>)
 80057a8:	681b      	ldr	r3, [r3, #0]
 80057aa:	3350      	adds	r3, #80	@ 0x50
 80057ac:	6013      	str	r3, [r2, #0]
 80057ae:	f04f 32ff 	mov.w	r2, #4294967295
 80057b2:	4b0a      	ldr	r3, [pc, #40]	@ (80057dc <vTaskStartScheduler+0x74>)
 80057b4:	601a      	str	r2, [r3, #0]
 80057b6:	2201      	movs	r2, #1
 80057b8:	4b09      	ldr	r3, [pc, #36]	@ (80057e0 <vTaskStartScheduler+0x78>)
 80057ba:	601a      	str	r2, [r3, #0]
 80057bc:	4b09      	ldr	r3, [pc, #36]	@ (80057e4 <vTaskStartScheduler+0x7c>)
 80057be:	601c      	str	r4, [r3, #0]
 80057c0:	f7ff fc68 	bl	8005094 <xPortStartScheduler>
 80057c4:	4b08      	ldr	r3, [pc, #32]	@ (80057e8 <vTaskStartScheduler+0x80>)
 80057c6:	681b      	ldr	r3, [r3, #0]
 80057c8:	b008      	add	sp, #32
 80057ca:	bd10      	pop	{r4, pc}
 80057cc:	08007539 	.word	0x08007539
 80057d0:	08005539 	.word	0x08005539
 80057d4:	20002074 	.word	0x20002074
 80057d8:	2000004c 	.word	0x2000004c
 80057dc:	20001f54 	.word	0x20001f54
 80057e0:	20001f68 	.word	0x20001f68
 80057e4:	20001f70 	.word	0x20001f70
 80057e8:	0800f9cc 	.word	0x0800f9cc

080057ec <vTaskSuspendAll>:
 80057ec:	4a02      	ldr	r2, [pc, #8]	@ (80057f8 <vTaskSuspendAll+0xc>)
 80057ee:	6813      	ldr	r3, [r2, #0]
 80057f0:	3301      	adds	r3, #1
 80057f2:	6013      	str	r3, [r2, #0]
 80057f4:	4770      	bx	lr
 80057f6:	bf00      	nop
 80057f8:	20001f50 	.word	0x20001f50

080057fc <xTaskIncrementTick>:
 80057fc:	e92d 4ff8 	stmdb	sp!, {r3, r4, r5, r6, r7, r8, r9, sl, fp, lr}
 8005800:	4b4e      	ldr	r3, [pc, #312]	@ (800593c <xTaskIncrementTick+0x140>)
 8005802:	681b      	ldr	r3, [r3, #0]
 8005804:	2b00      	cmp	r3, #0
 8005806:	f040 8092 	bne.w	800592e <xTaskIncrementTick+0x132>
 800580a:	4b4d      	ldr	r3, [pc, #308]	@ (8005940 <xTaskIncrementTick+0x144>)
 800580c:	681c      	ldr	r4, [r3, #0]
 800580e:	3401      	adds	r4, #1
 8005810:	601c      	str	r4, [r3, #0]
 8005812:	b9bc      	cbnz	r4, 8005844 <xTaskIncrementTick+0x48>
 8005814:	4b4b      	ldr	r3, [pc, #300]	@ (8005944 <xTaskIncrementTick+0x148>)
 8005816:	681a      	ldr	r2, [r3, #0]
 8005818:	6812      	ldr	r2, [r2, #0]
 800581a:	b142      	cbz	r2, 800582e <xTaskIncrementTick+0x32>
 800581c:	f04f 0350 	mov.w	r3, #80	@ 0x50
 8005820:	f383 8811 	msr	BASEPRI, r3
 8005824:	f3bf 8f6f 	isb	sy
 8005828:	f3bf 8f4f 	dsb	sy
 800582c:	e7fe      	b.n	800582c <xTaskIncrementTick+0x30>
 800582e:	4a46      	ldr	r2, [pc, #280]	@ (8005948 <xTaskIncrementTick+0x14c>)
 8005830:	6819      	ldr	r1, [r3, #0]
 8005832:	6810      	ldr	r0, [r2, #0]
 8005834:	6018      	str	r0, [r3, #0]
 8005836:	6011      	str	r1, [r2, #0]
 8005838:	4a44      	ldr	r2, [pc, #272]	@ (800594c <xTaskIncrementTick+0x150>)
 800583a:	6813      	ldr	r3, [r2, #0]
 800583c:	3301      	adds	r3, #1
 800583e:	6013      	str	r3, [r2, #0]
 8005840:	f7ff fe46 	bl	80054d0 <prvResetNextTaskUnblockTime>
 8005844:	f8df c108 	ldr.w	ip, [pc, #264]	@ 8005950 <xTaskIncrementTick+0x154>
 8005848:	2000      	movs	r0, #0
 800584a:	f8dc 3000 	ldr.w	r3, [ip]
 800584e:	4a41      	ldr	r2, [pc, #260]	@ (8005954 <xTaskIncrementTick+0x158>)
 8005850:	429c      	cmp	r4, r3
 8005852:	f8df 9104 	ldr.w	r9, [pc, #260]	@ 8005958 <xTaskIncrementTick+0x15c>
 8005856:	d20f      	bcs.n	8005878 <xTaskIncrementTick+0x7c>
 8005858:	2114      	movs	r1, #20
 800585a:	f8d9 3000 	ldr.w	r3, [r9]
 800585e:	6adb      	ldr	r3, [r3, #44]	@ 0x2c
 8005860:	434b      	muls	r3, r1
 8005862:	58d3      	ldr	r3, [r2, r3]
 8005864:	2b02      	cmp	r3, #2
 8005866:	4b3d      	ldr	r3, [pc, #244]	@ (800595c <xTaskIncrementTick+0x160>)
 8005868:	bf28      	it	cs
 800586a:	2001      	movcs	r0, #1
 800586c:	681b      	ldr	r3, [r3, #0]
 800586e:	2b00      	cmp	r3, #0
 8005870:	bf18      	it	ne
 8005872:	2001      	movne	r0, #1
 8005874:	e8bd 8ff8 	ldmia.w	sp!, {r3, r4, r5, r6, r7, r8, r9, sl, fp, pc}
 8005878:	f8df 80c8 	ldr.w	r8, [pc, #200]	@ 8005944 <xTaskIncrementTick+0x148>
 800587c:	f8df e0e0 	ldr.w	lr, [pc, #224]	@ 8005960 <xTaskIncrementTick+0x164>
 8005880:	f8d8 3000 	ldr.w	r3, [r8]
 8005884:	681b      	ldr	r3, [r3, #0]
 8005886:	b923      	cbnz	r3, 8005892 <xTaskIncrementTick+0x96>
 8005888:	f04f 33ff 	mov.w	r3, #4294967295
 800588c:	f8cc 3000 	str.w	r3, [ip]
 8005890:	e7e2      	b.n	8005858 <xTaskIncrementTick+0x5c>
 8005892:	f8d8 3000 	ldr.w	r3, [r8]
 8005896:	68db      	ldr	r3, [r3, #12]
 8005898:	68db      	ldr	r3, [r3, #12]
 800589a:	6859      	ldr	r1, [r3, #4]
 800589c:	428c      	cmp	r4, r1
 800589e:	d202      	bcs.n	80058a6 <xTaskIncrementTick+0xaa>
 80058a0:	f8cc 1000 	str.w	r1, [ip]
 80058a4:	e7d8      	b.n	8005858 <xTaskIncrementTick+0x5c>
 80058a6:	695d      	ldr	r5, [r3, #20]
 80058a8:	e9d3 1602 	ldrd	r1, r6, [r3, #8]
 80058ac:	608e      	str	r6, [r1, #8]
 80058ae:	6071      	str	r1, [r6, #4]
 80058b0:	6869      	ldr	r1, [r5, #4]
 80058b2:	1d1f      	adds	r7, r3, #4
 80058b4:	42b9      	cmp	r1, r7
 80058b6:	f04f 0100 	mov.w	r1, #0
 80058ba:	bf08      	it	eq
 80058bc:	606e      	streq	r6, [r5, #4]
 80058be:	6159      	str	r1, [r3, #20]
 80058c0:	6829      	ldr	r1, [r5, #0]
 80058c2:	3901      	subs	r1, #1
 80058c4:	6029      	str	r1, [r5, #0]
 80058c6:	6a9d      	ldr	r5, [r3, #40]	@ 0x28
 80058c8:	b17d      	cbz	r5, 80058ea <xTaskIncrementTick+0xee>
 80058ca:	e9d3 1607 	ldrd	r1, r6, [r3, #28]
 80058ce:	608e      	str	r6, [r1, #8]
 80058d0:	6071      	str	r1, [r6, #4]
 80058d2:	6869      	ldr	r1, [r5, #4]
 80058d4:	f103 0a18 	add.w	sl, r3, #24
 80058d8:	4551      	cmp	r1, sl
 80058da:	f04f 0100 	mov.w	r1, #0
 80058de:	bf08      	it	eq
 80058e0:	606e      	streq	r6, [r5, #4]
 80058e2:	6299      	str	r1, [r3, #40]	@ 0x28
 80058e4:	6829      	ldr	r1, [r5, #0]
 80058e6:	3901      	subs	r1, #1
 80058e8:	6029      	str	r1, [r5, #0]
 80058ea:	2501      	movs	r5, #1
 80058ec:	6ad9      	ldr	r1, [r3, #44]	@ 0x2c
 80058ee:	f8de 6000 	ldr.w	r6, [lr]
 80058f2:	408d      	lsls	r5, r1
 80058f4:	4335      	orrs	r5, r6
 80058f6:	f8ce 5000 	str.w	r5, [lr]
 80058fa:	2514      	movs	r5, #20
 80058fc:	434d      	muls	r5, r1
 80058fe:	eb02 0a05 	add.w	sl, r2, r5
 8005902:	f8da 6004 	ldr.w	r6, [sl, #4]
 8005906:	f8d6 b008 	ldr.w	fp, [r6, #8]
 800590a:	609e      	str	r6, [r3, #8]
 800590c:	f8c3 b00c 	str.w	fp, [r3, #12]
 8005910:	f8cb 7004 	str.w	r7, [fp, #4]
 8005914:	60b7      	str	r7, [r6, #8]
 8005916:	f8c3 a014 	str.w	sl, [r3, #20]
 800591a:	5953      	ldr	r3, [r2, r5]
 800591c:	3301      	adds	r3, #1
 800591e:	5153      	str	r3, [r2, r5]
 8005920:	f8d9 3000 	ldr.w	r3, [r9]
 8005924:	6adb      	ldr	r3, [r3, #44]	@ 0x2c
 8005926:	4299      	cmp	r1, r3
 8005928:	bf88      	it	hi
 800592a:	2001      	movhi	r0, #1
 800592c:	e7a8      	b.n	8005880 <xTaskIncrementTick+0x84>
 800592e:	4a0d      	ldr	r2, [pc, #52]	@ (8005964 <xTaskIncrementTick+0x168>)
 8005930:	2000      	movs	r0, #0
 8005932:	6813      	ldr	r3, [r2, #0]
 8005934:	3301      	adds	r3, #1
 8005936:	6013      	str	r3, [r2, #0]
 8005938:	e79c      	b.n	8005874 <xTaskIncrementTick+0x78>
 800593a:	bf00      	nop
 800593c:	20001f50 	.word	0x20001f50
 8005940:	20001f70 	.word	0x20001f70
 8005944:	20001fbc 	.word	0x20001fbc
 8005948:	20001fb8 	.word	0x20001fb8
 800594c:	20001f5c 	.word	0x20001f5c
 8005950:	20001f54 	.word	0x20001f54
 8005954:	20001fe8 	.word	0x20001fe8
 8005958:	20002074 	.word	0x20002074
 800595c:	20001f60 	.word	0x20001f60
 8005960:	20001f6c 	.word	0x20001f6c
 8005964:	20001f64 	.word	0x20001f64

08005968 <xTaskResumeAll>:
 8005968:	e92d 4ff8 	stmdb	sp!, {r3, r4, r5, r6, r7, r8, r9, sl, fp, lr}
 800596c:	4c45      	ldr	r4, [pc, #276]	@ (8005a84 <xTaskResumeAll+0x11c>)
 800596e:	6823      	ldr	r3, [r4, #0]
 8005970:	b943      	cbnz	r3, 8005984 <xTaskResumeAll+0x1c>
 8005972:	f04f 0350 	mov.w	r3, #80	@ 0x50
 8005976:	f383 8811 	msr	BASEPRI, r3
 800597a:	f3bf 8f6f 	isb	sy
 800597e:	f3bf 8f4f 	dsb	sy
 8005982:	e7fe      	b.n	8005982 <xTaskResumeAll+0x1a>
 8005984:	f7ff fb06 	bl	8004f94 <vPortEnterCritical>
 8005988:	6823      	ldr	r3, [r4, #0]
 800598a:	3b01      	subs	r3, #1
 800598c:	6023      	str	r3, [r4, #0]
 800598e:	6823      	ldr	r3, [r4, #0]
 8005990:	b12b      	cbz	r3, 800599e <xTaskResumeAll+0x36>
 8005992:	2400      	movs	r4, #0
 8005994:	f7ff fb1e 	bl	8004fd4 <vPortExitCritical>
 8005998:	4620      	mov	r0, r4
 800599a:	e8bd 8ff8 	ldmia.w	sp!, {r3, r4, r5, r6, r7, r8, r9, sl, fp, pc}
 800599e:	4a3a      	ldr	r2, [pc, #232]	@ (8005a88 <xTaskResumeAll+0x120>)
 80059a0:	6812      	ldr	r2, [r2, #0]
 80059a2:	2a00      	cmp	r2, #0
 80059a4:	d0f5      	beq.n	8005992 <xTaskResumeAll+0x2a>
 80059a6:	f04f 0c01 	mov.w	ip, #1
 80059aa:	f04f 0e14 	mov.w	lr, #20
 80059ae:	4e37      	ldr	r6, [pc, #220]	@ (8005a8c <xTaskResumeAll+0x124>)
 80059b0:	4f37      	ldr	r7, [pc, #220]	@ (8005a90 <xTaskResumeAll+0x128>)
 80059b2:	4a38      	ldr	r2, [pc, #224]	@ (8005a94 <xTaskResumeAll+0x12c>)
 80059b4:	f8df 80e0 	ldr.w	r8, [pc, #224]	@ 8005a98 <xTaskResumeAll+0x130>
 80059b8:	f8df 90e0 	ldr.w	r9, [pc, #224]	@ 8005a9c <xTaskResumeAll+0x134>
 80059bc:	e03f      	b.n	8005a3e <xTaskResumeAll+0xd6>
 80059be:	68f3      	ldr	r3, [r6, #12]
 80059c0:	68db      	ldr	r3, [r3, #12]
 80059c2:	6a98      	ldr	r0, [r3, #40]	@ 0x28
 80059c4:	e9d3 1407 	ldrd	r1, r4, [r3, #28]
 80059c8:	608c      	str	r4, [r1, #8]
 80059ca:	6061      	str	r1, [r4, #4]
 80059cc:	6841      	ldr	r1, [r0, #4]
 80059ce:	f103 0518 	add.w	r5, r3, #24
 80059d2:	42a9      	cmp	r1, r5
 80059d4:	f04f 0100 	mov.w	r1, #0
 80059d8:	bf08      	it	eq
 80059da:	6044      	streq	r4, [r0, #4]
 80059dc:	6299      	str	r1, [r3, #40]	@ 0x28
 80059de:	6801      	ldr	r1, [r0, #0]
 80059e0:	3901      	subs	r1, #1
 80059e2:	6001      	str	r1, [r0, #0]
 80059e4:	6958      	ldr	r0, [r3, #20]
 80059e6:	e9d3 1402 	ldrd	r1, r4, [r3, #8]
 80059ea:	608c      	str	r4, [r1, #8]
 80059ec:	6061      	str	r1, [r4, #4]
 80059ee:	6841      	ldr	r1, [r0, #4]
 80059f0:	1d1d      	adds	r5, r3, #4
 80059f2:	42a9      	cmp	r1, r5
 80059f4:	6801      	ldr	r1, [r0, #0]
 80059f6:	bf08      	it	eq
 80059f8:	6044      	streq	r4, [r0, #4]
 80059fa:	3901      	subs	r1, #1
 80059fc:	6001      	str	r1, [r0, #0]
 80059fe:	6ad9      	ldr	r1, [r3, #44]	@ 0x2c
 8005a00:	683c      	ldr	r4, [r7, #0]
 8005a02:	fa0c f001 	lsl.w	r0, ip, r1
 8005a06:	4320      	orrs	r0, r4
 8005a08:	6038      	str	r0, [r7, #0]
 8005a0a:	fb0e f001 	mul.w	r0, lr, r1
 8005a0e:	eb02 0a00 	add.w	sl, r2, r0
 8005a12:	f8da 4004 	ldr.w	r4, [sl, #4]
 8005a16:	f8d4 b008 	ldr.w	fp, [r4, #8]
 8005a1a:	609c      	str	r4, [r3, #8]
 8005a1c:	f8c3 b00c 	str.w	fp, [r3, #12]
 8005a20:	f8cb 5004 	str.w	r5, [fp, #4]
 8005a24:	60a5      	str	r5, [r4, #8]
 8005a26:	5814      	ldr	r4, [r2, r0]
 8005a28:	f8c3 a014 	str.w	sl, [r3, #20]
 8005a2c:	3401      	adds	r4, #1
 8005a2e:	5014      	str	r4, [r2, r0]
 8005a30:	f8d8 0000 	ldr.w	r0, [r8]
 8005a34:	6ac0      	ldr	r0, [r0, #44]	@ 0x2c
 8005a36:	4281      	cmp	r1, r0
 8005a38:	d301      	bcc.n	8005a3e <xTaskResumeAll+0xd6>
 8005a3a:	f8c9 c000 	str.w	ip, [r9]
 8005a3e:	6831      	ldr	r1, [r6, #0]
 8005a40:	2900      	cmp	r1, #0
 8005a42:	d1bc      	bne.n	80059be <xTaskResumeAll+0x56>
 8005a44:	b10b      	cbz	r3, 8005a4a <xTaskResumeAll+0xe2>
 8005a46:	f7ff fd43 	bl	80054d0 <prvResetNextTaskUnblockTime>
 8005a4a:	4d15      	ldr	r5, [pc, #84]	@ (8005aa0 <xTaskResumeAll+0x138>)
 8005a4c:	682c      	ldr	r4, [r5, #0]
 8005a4e:	b144      	cbz	r4, 8005a62 <xTaskResumeAll+0xfa>
 8005a50:	2701      	movs	r7, #1
 8005a52:	4e12      	ldr	r6, [pc, #72]	@ (8005a9c <xTaskResumeAll+0x134>)
 8005a54:	f7ff fed2 	bl	80057fc <xTaskIncrementTick>
 8005a58:	b100      	cbz	r0, 8005a5c <xTaskResumeAll+0xf4>
 8005a5a:	6037      	str	r7, [r6, #0]
 8005a5c:	3c01      	subs	r4, #1
 8005a5e:	d1f9      	bne.n	8005a54 <xTaskResumeAll+0xec>
 8005a60:	602c      	str	r4, [r5, #0]
 8005a62:	4b0e      	ldr	r3, [pc, #56]	@ (8005a9c <xTaskResumeAll+0x134>)
 8005a64:	681b      	ldr	r3, [r3, #0]
 8005a66:	2b00      	cmp	r3, #0
 8005a68:	d093      	beq.n	8005992 <xTaskResumeAll+0x2a>
 8005a6a:	f04f 23e0 	mov.w	r3, #3758153728	@ 0xe000e000
 8005a6e:	f04f 5280 	mov.w	r2, #268435456	@ 0x10000000
 8005a72:	f8c3 2d04 	str.w	r2, [r3, #3332]	@ 0xd04
 8005a76:	f3bf 8f4f 	dsb	sy
 8005a7a:	f3bf 8f6f 	isb	sy
 8005a7e:	2401      	movs	r4, #1
 8005a80:	e788      	b.n	8005994 <xTaskResumeAll+0x2c>
 8005a82:	bf00      	nop
 8005a84:	20001f50 	.word	0x20001f50
 8005a88:	20001f74 	.word	0x20001f74
 8005a8c:	20001fa4 	.word	0x20001fa4
 8005a90:	20001f6c 	.word	0x20001f6c
 8005a94:	20001fe8 	.word	0x20001fe8
 8005a98:	20002074 	.word	0x20002074
 8005a9c:	20001f60 	.word	0x20001f60
 8005aa0:	20001f64 	.word	0x20001f64

08005aa4 <vTaskDelay>:
 8005aa4:	b508      	push	{r3, lr}
 8005aa6:	b950      	cbnz	r0, 8005abe <vTaskDelay+0x1a>
 8005aa8:	f04f 23e0 	mov.w	r3, #3758153728	@ 0xe000e000
 8005aac:	f04f 5280 	mov.w	r2, #268435456	@ 0x10000000
 8005ab0:	f8c3 2d04 	str.w	r2, [r3, #3332]	@ 0xd04
 8005ab4:	f3bf 8f4f 	dsb	sy
 8005ab8:	f3bf 8f6f 	isb	sy
 8005abc:	bd08      	pop	{r3, pc}
 8005abe:	4b0a      	ldr	r3, [pc, #40]	@ (8005ae8 <vTaskDelay+0x44>)
 8005ac0:	6819      	ldr	r1, [r3, #0]
 8005ac2:	b141      	cbz	r1, 8005ad6 <vTaskDelay+0x32>
 8005ac4:	f04f 0350 	mov.w	r3, #80	@ 0x50
 8005ac8:	f383 8811 	msr	BASEPRI, r3
 8005acc:	f3bf 8f6f 	isb	sy
 8005ad0:	f3bf 8f4f 	dsb	sy
 8005ad4:	e7fe      	b.n	8005ad4 <vTaskDelay+0x30>
 8005ad6:	f7ff fe89 	bl	80057ec <vTaskSuspendAll>
 8005ada:	f7ff fca9 	bl	8005430 <prvAddCurrentTaskToDelayedList>
 8005ade:	f7ff ff43 	bl	8005968 <xTaskResumeAll>
 8005ae2:	2800      	cmp	r0, #0
 8005ae4:	d0e0      	beq.n	8005aa8 <vTaskDelay+0x4>
 8005ae6:	e7e9      	b.n	8005abc <vTaskDelay+0x18>
 8005ae8:	20001f50 	.word	0x20001f50

08005aec <vTaskSwitchContext>:
 8005aec:	4b1a      	ldr	r3, [pc, #104]	@ (8005b58 <vTaskSwitchContext+0x6c>)
 8005aee:	b510      	push	{r4, lr}
 8005af0:	681a      	ldr	r2, [r3, #0]
 8005af2:	4b1a      	ldr	r3, [pc, #104]	@ (8005b5c <vTaskSwitchContext+0x70>)
 8005af4:	b112      	cbz	r2, 8005afc <vTaskSwitchContext+0x10>
 8005af6:	2201      	movs	r2, #1
 8005af8:	601a      	str	r2, [r3, #0]
 8005afa:	bd10      	pop	{r4, pc}
 8005afc:	601a      	str	r2, [r3, #0]
 8005afe:	4b18      	ldr	r3, [pc, #96]	@ (8005b60 <vTaskSwitchContext+0x74>)
 8005b00:	681a      	ldr	r2, [r3, #0]
 8005b02:	fab2 f282 	clz	r2, r2
 8005b06:	2314      	movs	r3, #20
 8005b08:	b2d2      	uxtb	r2, r2
 8005b0a:	f1c2 021f 	rsb	r2, r2, #31
 8005b0e:	4353      	muls	r3, r2
 8005b10:	4914      	ldr	r1, [pc, #80]	@ (8005b64 <vTaskSwitchContext+0x78>)
 8005b12:	58cc      	ldr	r4, [r1, r3]
 8005b14:	18c8      	adds	r0, r1, r3
 8005b16:	b944      	cbnz	r4, 8005b2a <vTaskSwitchContext+0x3e>
 8005b18:	f04f 0350 	mov.w	r3, #80	@ 0x50
 8005b1c:	f383 8811 	msr	BASEPRI, r3
 8005b20:	f3bf 8f6f 	isb	sy
 8005b24:	f3bf 8f4f 	dsb	sy
 8005b28:	e7fe      	b.n	8005b28 <vTaskSwitchContext+0x3c>
 8005b2a:	6844      	ldr	r4, [r0, #4]
 8005b2c:	3308      	adds	r3, #8
 8005b2e:	6864      	ldr	r4, [r4, #4]
 8005b30:	440b      	add	r3, r1
 8005b32:	429c      	cmp	r4, r3
 8005b34:	bf08      	it	eq
 8005b36:	6863      	ldreq	r3, [r4, #4]
 8005b38:	6044      	str	r4, [r0, #4]
 8005b3a:	bf08      	it	eq
 8005b3c:	6043      	streq	r3, [r0, #4]
 8005b3e:	2314      	movs	r3, #20
 8005b40:	fb03 1102 	mla	r1, r3, r2, r1
 8005b44:	684b      	ldr	r3, [r1, #4]
 8005b46:	68da      	ldr	r2, [r3, #12]
 8005b48:	4b07      	ldr	r3, [pc, #28]	@ (8005b68 <vTaskSwitchContext+0x7c>)
 8005b4a:	601a      	str	r2, [r3, #0]
 8005b4c:	681b      	ldr	r3, [r3, #0]
 8005b4e:	4a07      	ldr	r2, [pc, #28]	@ (8005b6c <vTaskSwitchContext+0x80>)
 8005b50:	3350      	adds	r3, #80	@ 0x50
 8005b52:	6013      	str	r3, [r2, #0]
 8005b54:	e7d1      	b.n	8005afa <vTaskSwitchContext+0xe>
 8005b56:	bf00      	nop
 8005b58:	20001f50 	.word	0x20001f50
 8005b5c:	20001f60 	.word	0x20001f60
 8005b60:	20001f6c 	.word	0x20001f6c
 8005b64:	20001fe8 	.word	0x20001fe8
 8005b68:	20002074 	.word	0x20002074
 8005b6c:	2000004c 	.word	0x2000004c

08005b70 <reset_flags>:
 8005b70:	2300      	movs	r3, #0
 8005b72:	4619      	mov	r1, r3
 8005b74:	4a06      	ldr	r2, [pc, #24]	@ (8005b90 <reset_flags+0x20>)
 8005b76:	7013      	strb	r3, [r2, #0]
 8005b78:	4a06      	ldr	r2, [pc, #24]	@ (8005b94 <reset_flags+0x24>)
 8005b7a:	8013      	strh	r3, [r2, #0]
 8005b7c:	4a06      	ldr	r2, [pc, #24]	@ (8005b98 <reset_flags+0x28>)
 8005b7e:	7013      	strb	r3, [r2, #0]
 8005b80:	4a06      	ldr	r2, [pc, #24]	@ (8005b9c <reset_flags+0x2c>)
 8005b82:	54d1      	strb	r1, [r2, r3]
 8005b84:	3301      	adds	r3, #1
 8005b86:	f5b3 5ffa 	cmp.w	r3, #8000	@ 0x1f40
 8005b8a:	d1fa      	bne.n	8005b82 <reset_flags+0x12>
 8005b8c:	4770      	bx	lr
 8005b8e:	bf00      	nop
 8005b90:	2000207c 	.word	0x2000207c
 8005b94:	2000207e 	.word	0x2000207e
 8005b98:	2000207d 	.word	0x2000207d
 8005b9c:	20002080 	.word	0x20002080

08005ba0 <ESP8266_UART_TxCpltCallback>:
 8005ba0:	4b03      	ldr	r3, [pc, #12]	@ (8005bb0 <ESP8266_UART_TxCpltCallback+0x10>)
 8005ba2:	681b      	ldr	r3, [r3, #0]
 8005ba4:	4283      	cmp	r3, r0
 8005ba6:	bf02      	ittt	eq
 8005ba8:	2201      	moveq	r2, #1
 8005baa:	4b02      	ldreq	r3, [pc, #8]	@ (8005bb4 <ESP8266_UART_TxCpltCallback+0x14>)
 8005bac:	701a      	strbeq	r2, [r3, #0]
 8005bae:	4770      	bx	lr
 8005bb0:	20002078 	.word	0x20002078
 8005bb4:	2000207d 	.word	0x2000207d

08005bb8 <ESP8266_UART_RxCpltCallback>:
 8005bb8:	4b08      	ldr	r3, [pc, #32]	@ (8005bdc <ESP8266_UART_RxCpltCallback+0x24>)
 8005bba:	681b      	ldr	r3, [r3, #0]
 8005bbc:	4283      	cmp	r3, r0
 8005bbe:	d10b      	bne.n	8005bd8 <ESP8266_UART_RxCpltCallback+0x20>
 8005bc0:	4a07      	ldr	r2, [pc, #28]	@ (8005be0 <ESP8266_UART_RxCpltCallback+0x28>)
 8005bc2:	4908      	ldr	r1, [pc, #32]	@ (8005be4 <ESP8266_UART_RxCpltCallback+0x2c>)
 8005bc4:	8813      	ldrh	r3, [r2, #0]
 8005bc6:	3301      	adds	r3, #1
 8005bc8:	b29b      	uxth	r3, r3
 8005bca:	8013      	strh	r3, [r2, #0]
 8005bcc:	8813      	ldrh	r3, [r2, #0]
 8005bce:	2201      	movs	r2, #1
 8005bd0:	b29b      	uxth	r3, r3
 8005bd2:	4419      	add	r1, r3
 8005bd4:	f7fc bdc9 	b.w	800276a <HAL_UART_Receive_IT>
 8005bd8:	4770      	bx	lr
 8005bda:	bf00      	nop
 8005bdc:	20002078 	.word	0x20002078
 8005be0:	2000207e 	.word	0x2000207e
 8005be4:	20002080 	.word	0x20002080

08005be8 <find_str>:
 8005be8:	4603      	mov	r3, r0
 8005bea:	b5f0      	push	{r4, r5, r6, r7, lr}
 8005bec:	2500      	movs	r5, #0
 8005bee:	480f      	ldr	r0, [pc, #60]	@ (8005c2c <find_str+0x44>)
 8005bf0:	4e0f      	ldr	r6, [pc, #60]	@ (8005c30 <find_str+0x48>)
 8005bf2:	1a18      	subs	r0, r3, r0
 8005bf4:	8834      	ldrh	r4, [r6, #0]
 8005bf6:	b2a4      	uxth	r4, r4
 8005bf8:	4284      	cmp	r4, r0
 8005bfa:	da02      	bge.n	8005c02 <find_str+0x1a>
 8005bfc:	f04f 30ff 	mov.w	r0, #4294967295
 8005c00:	e008      	b.n	8005c14 <find_str+0x2c>
 8005c02:	8834      	ldrh	r4, [r6, #0]
 8005c04:	1887      	adds	r7, r0, r2
 8005c06:	b2a4      	uxth	r4, r4
 8005c08:	42bc      	cmp	r4, r7
 8005c0a:	db0c      	blt.n	8005c26 <find_str+0x3e>
 8005c0c:	2400      	movs	r4, #0
 8005c0e:	195f      	adds	r7, r3, r5
 8005c10:	4294      	cmp	r4, r2
 8005c12:	db00      	blt.n	8005c16 <find_str+0x2e>
 8005c14:	bdf0      	pop	{r4, r5, r6, r7, pc}
 8005c16:	f817 cb01 	ldrb.w	ip, [r7], #1
 8005c1a:	f811 e004 	ldrb.w	lr, [r1, r4]
 8005c1e:	45e6      	cmp	lr, ip
 8005c20:	d101      	bne.n	8005c26 <find_str+0x3e>
 8005c22:	3401      	adds	r4, #1
 8005c24:	e7f4      	b.n	8005c10 <find_str+0x28>
 8005c26:	3001      	adds	r0, #1
 8005c28:	3501      	adds	r5, #1
 8005c2a:	e7e3      	b.n	8005bf4 <find_str+0xc>
 8005c2c:	20002080 	.word	0x20002080
 8005c30:	2000207e 	.word	0x2000207e

08005c34 <sendAndReceive>:
 8005c34:	b538      	push	{r3, r4, r5, lr}
 8005c36:	f7ff ff9b 	bl	8005b70 <reset_flags>
 8005c3a:	4604      	mov	r4, r0
 8005c3c:	f7fa fa88 	bl	8000150 <strlen>
 8005c40:	4d25      	ldr	r5, [pc, #148]	@ (8005cd8 <sendAndReceive+0xa4>)
 8005c42:	b282      	uxth	r2, r0
 8005c44:	4621      	mov	r1, r4
 8005c46:	6828      	ldr	r0, [r5, #0]
 8005c48:	f7fc fbad 	bl	80023a6 <HAL_UART_Transmit_IT>
 8005c4c:	4a23      	ldr	r2, [pc, #140]	@ (8005cdc <sendAndReceive+0xa8>)
 8005c4e:	7813      	ldrb	r3, [r2, #0]
 8005c50:	2b00      	cmp	r3, #0
 8005c52:	d0fc      	beq.n	8005c4e <sendAndReceive+0x1a>
 8005c54:	6828      	ldr	r0, [r5, #0]
 8005c56:	2201      	movs	r2, #1
 8005c58:	4921      	ldr	r1, [pc, #132]	@ (8005ce0 <sendAndReceive+0xac>)
 8005c5a:	f7fc fd86 	bl	800276a <HAL_UART_Receive_IT>
 8005c5e:	4c21      	ldr	r4, [pc, #132]	@ (8005ce4 <sendAndReceive+0xb0>)
 8005c60:	4d21      	ldr	r5, [pc, #132]	@ (8005ce8 <sendAndReceive+0xb4>)
 8005c62:	7823      	ldrb	r3, [r4, #0]
 8005c64:	b10b      	cbz	r3, 8005c6a <sendAndReceive+0x36>
 8005c66:	7820      	ldrb	r0, [r4, #0]
 8005c68:	bd38      	pop	{r3, r4, r5, pc}
 8005c6a:	2204      	movs	r2, #4
 8005c6c:	4629      	mov	r1, r5
 8005c6e:	481c      	ldr	r0, [pc, #112]	@ (8005ce0 <sendAndReceive+0xac>)
 8005c70:	f7ff ffba 	bl	8005be8 <find_str>
 8005c74:	2800      	cmp	r0, #0
 8005c76:	db05      	blt.n	8005c84 <sendAndReceive+0x50>
 8005c78:	4b1c      	ldr	r3, [pc, #112]	@ (8005cec <sendAndReceive+0xb8>)
 8005c7a:	781b      	ldrb	r3, [r3, #0]
 8005c7c:	b913      	cbnz	r3, 8005c84 <sendAndReceive+0x50>
 8005c7e:	2301      	movs	r3, #1
 8005c80:	7023      	strb	r3, [r4, #0]
 8005c82:	e7ee      	b.n	8005c62 <sendAndReceive+0x2e>
 8005c84:	2211      	movs	r2, #17
 8005c86:	491a      	ldr	r1, [pc, #104]	@ (8005cf0 <sendAndReceive+0xbc>)
 8005c88:	4815      	ldr	r0, [pc, #84]	@ (8005ce0 <sendAndReceive+0xac>)
 8005c8a:	f7ff ffad 	bl	8005be8 <find_str>
 8005c8e:	2800      	cmp	r0, #0
 8005c90:	daf5      	bge.n	8005c7e <sendAndReceive+0x4a>
 8005c92:	4b16      	ldr	r3, [pc, #88]	@ (8005cec <sendAndReceive+0xb8>)
 8005c94:	781a      	ldrb	r2, [r3, #0]
 8005c96:	2a01      	cmp	r2, #1
 8005c98:	d107      	bne.n	8005caa <sendAndReceive+0x76>
 8005c9a:	4916      	ldr	r1, [pc, #88]	@ (8005cf4 <sendAndReceive+0xc0>)
 8005c9c:	4810      	ldr	r0, [pc, #64]	@ (8005ce0 <sendAndReceive+0xac>)
 8005c9e:	f7ff ffa3 	bl	8005be8 <find_str>
 8005ca2:	2800      	cmp	r0, #0
 8005ca4:	db0a      	blt.n	8005cbc <sendAndReceive+0x88>
 8005ca6:	7022      	strb	r2, [r4, #0]
 8005ca8:	e7db      	b.n	8005c62 <sendAndReceive+0x2e>
 8005caa:	2a02      	cmp	r2, #2
 8005cac:	d108      	bne.n	8005cc0 <sendAndReceive+0x8c>
 8005cae:	2207      	movs	r2, #7
 8005cb0:	4911      	ldr	r1, [pc, #68]	@ (8005cf8 <sendAndReceive+0xc4>)
 8005cb2:	480b      	ldr	r0, [pc, #44]	@ (8005ce0 <sendAndReceive+0xac>)
 8005cb4:	f7ff ff98 	bl	8005be8 <find_str>
 8005cb8:	2800      	cmp	r0, #0
 8005cba:	dae0      	bge.n	8005c7e <sendAndReceive+0x4a>
 8005cbc:	2300      	movs	r3, #0
 8005cbe:	e7df      	b.n	8005c80 <sendAndReceive+0x4c>
 8005cc0:	2a00      	cmp	r2, #0
 8005cc2:	d1fb      	bne.n	8005cbc <sendAndReceive+0x88>
 8005cc4:	2207      	movs	r2, #7
 8005cc6:	490d      	ldr	r1, [pc, #52]	@ (8005cfc <sendAndReceive+0xc8>)
 8005cc8:	4805      	ldr	r0, [pc, #20]	@ (8005ce0 <sendAndReceive+0xac>)
 8005cca:	f7ff ff8d 	bl	8005be8 <find_str>
 8005cce:	2800      	cmp	r0, #0
 8005cd0:	dbf4      	blt.n	8005cbc <sendAndReceive+0x88>
 8005cd2:	2302      	movs	r3, #2
 8005cd4:	e7d4      	b.n	8005c80 <sendAndReceive+0x4c>
 8005cd6:	bf00      	nop
 8005cd8:	20002078 	.word	0x20002078
 8005cdc:	2000207d 	.word	0x2000207d
 8005ce0:	20002080 	.word	0x20002080
 8005ce4:	2000207c 	.word	0x2000207c
 8005ce8:	0800753e 	.word	0x0800753e
 8005cec:	20003fc0 	.word	0x20003fc0
 8005cf0:	08007543 	.word	0x08007543
 8005cf4:	08007555 	.word	0x08007555
 8005cf8:	08007557 	.word	0x08007557
 8005cfc:	0800755f 	.word	0x0800755f

08005d00 <Esp8266_SetCwMode>:
 8005d00:	b57f      	push	{r0, r1, r2, r3, r4, r5, r6, lr}
 8005d02:	4b0e      	ldr	r3, [pc, #56]	@ (8005d3c <Esp8266_SetCwMode+0x3c>)
 8005d04:	681b      	ldr	r3, [r3, #0]
 8005d06:	b1b3      	cbz	r3, 8005d36 <Esp8266_SetCwMode+0x36>
 8005d08:	1e43      	subs	r3, r0, #1
 8005d0a:	2b02      	cmp	r3, #2
 8005d0c:	d903      	bls.n	8005d16 <Esp8266_SetCwMode+0x16>
 8005d0e:	2002      	movs	r0, #2
 8005d10:	b007      	add	sp, #28
 8005d12:	f85d fb04 	ldr.w	pc, [sp], #4
 8005d16:	f7ff ff2b 	bl	8005b70 <reset_flags>
 8005d1a:	2200      	movs	r2, #0
 8005d1c:	4b08      	ldr	r3, [pc, #32]	@ (8005d40 <Esp8266_SetCwMode+0x40>)
 8005d1e:	4909      	ldr	r1, [pc, #36]	@ (8005d44 <Esp8266_SetCwMode+0x44>)
 8005d20:	701a      	strb	r2, [r3, #0]
 8005d22:	4602      	mov	r2, r0
 8005d24:	a801      	add	r0, sp, #4
 8005d26:	f000 fa4b 	bl	80061c0 <siprintf>
 8005d2a:	a801      	add	r0, sp, #4
 8005d2c:	f7ff ff82 	bl	8005c34 <sendAndReceive>
 8005d30:	2801      	cmp	r0, #1
 8005d32:	d1ec      	bne.n	8005d0e <Esp8266_SetCwMode+0xe>
 8005d34:	e7ec      	b.n	8005d10 <Esp8266_SetCwMode+0x10>
 8005d36:	2003      	movs	r0, #3
 8005d38:	e7ea      	b.n	8005d10 <Esp8266_SetCwMode+0x10>
 8005d3a:	bf00      	nop
 8005d3c:	20002078 	.word	0x20002078
 8005d40:	20003fc0 	.word	0x20003fc0
 8005d44:	08007567 	.word	0x08007567

08005d48 <Esp8266_ConnectAP>:
 8005d48:	b510      	push	{r4, lr}
 8005d4a:	4b0d      	ldr	r3, [pc, #52]	@ (8005d80 <Esp8266_ConnectAP+0x38>)
 8005d4c:	460c      	mov	r4, r1
 8005d4e:	681b      	ldr	r3, [r3, #0]
 8005d50:	b092      	sub	sp, #72	@ 0x48
 8005d52:	b19b      	cbz	r3, 8005d7c <Esp8266_ConnectAP+0x34>
 8005d54:	f7ff ff0c 	bl	8005b70 <reset_flags>
 8005d58:	2200      	movs	r2, #0
 8005d5a:	4b0a      	ldr	r3, [pc, #40]	@ (8005d84 <Esp8266_ConnectAP+0x3c>)
 8005d5c:	490a      	ldr	r1, [pc, #40]	@ (8005d88 <Esp8266_ConnectAP+0x40>)
 8005d5e:	701a      	strb	r2, [r3, #0]
 8005d60:	2222      	movs	r2, #34	@ 0x22
 8005d62:	4603      	mov	r3, r0
 8005d64:	e9cd 4202 	strd	r4, r2, [sp, #8]
 8005d68:	e9cd 2200 	strd	r2, r2, [sp]
 8005d6c:	a805      	add	r0, sp, #20
 8005d6e:	f000 fa27 	bl	80061c0 <siprintf>
 8005d72:	a805      	add	r0, sp, #20
 8005d74:	f7ff ff5e 	bl	8005c34 <sendAndReceive>
 8005d78:	b012      	add	sp, #72	@ 0x48
 8005d7a:	bd10      	pop	{r4, pc}
 8005d7c:	2003      	movs	r0, #3
 8005d7e:	e7fb      	b.n	8005d78 <Esp8266_ConnectAP+0x30>
 8005d80:	20002078 	.word	0x20002078
 8005d84:	20003fc0 	.word	0x20003fc0
 8005d88:	08007576 	.word	0x08007576

08005d8c <Esp8266_StartTCPIPConnection>:
 8005d8c:	b510      	push	{r4, lr}
 8005d8e:	4b0b      	ldr	r3, [pc, #44]	@ (8005dbc <Esp8266_StartTCPIPConnection+0x30>)
 8005d90:	460c      	mov	r4, r1
 8005d92:	681b      	ldr	r3, [r3, #0]
 8005d94:	b08e      	sub	sp, #56	@ 0x38
 8005d96:	b17b      	cbz	r3, 8005db8 <Esp8266_StartTCPIPConnection+0x2c>
 8005d98:	f7ff feea 	bl	8005b70 <reset_flags>
 8005d9c:	2200      	movs	r2, #0
 8005d9e:	4b08      	ldr	r3, [pc, #32]	@ (8005dc0 <Esp8266_StartTCPIPConnection+0x34>)
 8005da0:	4908      	ldr	r1, [pc, #32]	@ (8005dc4 <Esp8266_StartTCPIPConnection+0x38>)
 8005da2:	701a      	strb	r2, [r3, #0]
 8005da4:	4602      	mov	r2, r0
 8005da6:	4623      	mov	r3, r4
 8005da8:	a801      	add	r0, sp, #4
 8005daa:	f000 fa09 	bl	80061c0 <siprintf>
 8005dae:	a801      	add	r0, sp, #4
 8005db0:	f7ff ff40 	bl	8005c34 <sendAndReceive>
 8005db4:	b00e      	add	sp, #56	@ 0x38
 8005db6:	bd10      	pop	{r4, pc}
 8005db8:	2003      	movs	r0, #3
 8005dba:	e7fb      	b.n	8005db4 <Esp8266_StartTCPIPConnection+0x28>
 8005dbc:	20002078 	.word	0x20002078
 8005dc0:	20003fc0 	.word	0x20003fc0
 8005dc4:	0800758f 	.word	0x0800758f

08005dc8 <Esp8266_SendIpCommand>:
 8005dc8:	b530      	push	{r4, r5, lr}
 8005dca:	4b13      	ldr	r3, [pc, #76]	@ (8005e18 <Esp8266_SendIpCommand+0x50>)
 8005dcc:	4604      	mov	r4, r0
 8005dce:	681b      	ldr	r3, [r3, #0]
 8005dd0:	b08f      	sub	sp, #60	@ 0x3c
 8005dd2:	b1f3      	cbz	r3, 8005e12 <Esp8266_SendIpCommand+0x4a>
 8005dd4:	f7fa f9bc 	bl	8000150 <strlen>
 8005dd8:	f7ff feca 	bl	8005b70 <reset_flags>
 8005ddc:	2301      	movs	r3, #1
 8005dde:	4d0f      	ldr	r5, [pc, #60]	@ (8005e1c <Esp8266_SendIpCommand+0x54>)
 8005de0:	2232      	movs	r2, #50	@ 0x32
 8005de2:	4669      	mov	r1, sp
 8005de4:	b280      	uxth	r0, r0
 8005de6:	702b      	strb	r3, [r5, #0]
 8005de8:	f000 f840 	bl	8005e6c <intToString>
 8005dec:	466a      	mov	r2, sp
 8005dee:	490c      	ldr	r1, [pc, #48]	@ (8005e20 <Esp8266_SendIpCommand+0x58>)
 8005df0:	a801      	add	r0, sp, #4
 8005df2:	f000 f9e5 	bl	80061c0 <siprintf>
 8005df6:	a801      	add	r0, sp, #4
 8005df8:	f7ff ff1c 	bl	8005c34 <sendAndReceive>
 8005dfc:	2801      	cmp	r0, #1
 8005dfe:	d106      	bne.n	8005e0e <Esp8266_SendIpCommand+0x46>
 8005e00:	f7ff feb6 	bl	8005b70 <reset_flags>
 8005e04:	2302      	movs	r3, #2
 8005e06:	4620      	mov	r0, r4
 8005e08:	702b      	strb	r3, [r5, #0]
 8005e0a:	f7ff ff13 	bl	8005c34 <sendAndReceive>
 8005e0e:	b00f      	add	sp, #60	@ 0x3c
 8005e10:	bd30      	pop	{r4, r5, pc}
 8005e12:	2003      	movs	r0, #3
 8005e14:	e7fb      	b.n	8005e0e <Esp8266_SendIpCommand+0x46>
 8005e16:	bf00      	nop
 8005e18:	20002078 	.word	0x20002078
 8005e1c:	20003fc0 	.word	0x20003fc0
 8005e20:	080075ab 	.word	0x080075ab

08005e24 <Esp8266_Init>:
 8005e24:	b57f      	push	{r0, r1, r2, r3, r4, r5, r6, lr}
 8005e26:	2200      	movs	r2, #0
 8005e28:	4b0c      	ldr	r3, [pc, #48]	@ (8005e5c <Esp8266_Init+0x38>)
 8005e2a:	6018      	str	r0, [r3, #0]
 8005e2c:	4b0c      	ldr	r3, [pc, #48]	@ (8005e60 <Esp8266_Init+0x3c>)
 8005e2e:	701a      	strb	r2, [r3, #0]
 8005e30:	b150      	cbz	r0, 8005e48 <Esp8266_Init+0x24>
 8005e32:	490c      	ldr	r1, [pc, #48]	@ (8005e64 <Esp8266_Init+0x40>)
 8005e34:	a801      	add	r0, sp, #4
 8005e36:	f000 fb92 	bl	800655e <strcpy>
 8005e3a:	a801      	add	r0, sp, #4
 8005e3c:	f7ff fefa 	bl	8005c34 <sendAndReceive>
 8005e40:	f44f 70fa 	mov.w	r0, #500	@ 0x1f4
 8005e44:	f7fa ff58 	bl	8000cf8 <HAL_Delay>
 8005e48:	4907      	ldr	r1, [pc, #28]	@ (8005e68 <Esp8266_Init+0x44>)
 8005e4a:	a801      	add	r0, sp, #4
 8005e4c:	f000 fb87 	bl	800655e <strcpy>
 8005e50:	a801      	add	r0, sp, #4
 8005e52:	f7ff feef 	bl	8005c34 <sendAndReceive>
 8005e56:	b007      	add	sp, #28
 8005e58:	f85d fb04 	ldr.w	pc, [sp], #4
 8005e5c:	20002078 	.word	0x20002078
 8005e60:	20003fc0 	.word	0x20003fc0
 8005e64:	080075bb 	.word	0x080075bb
 8005e68:	080075c4 	.word	0x080075c4

08005e6c <intToString>:
 8005e6c:	b5f0      	push	{r4, r5, r6, r7, lr}
 8005e6e:	460d      	mov	r5, r1
 8005e70:	2400      	movs	r4, #0
 8005e72:	260a      	movs	r6, #10
 8005e74:	ea80 73e0 	eor.w	r3, r0, r0, asr #31
 8005e78:	eba3 73e0 	sub.w	r3, r3, r0, asr #31
 8005e7c:	b9c3      	cbnz	r3, 8005eb0 <intToString+0x44>
 8005e7e:	2800      	cmp	r0, #0
 8005e80:	da06      	bge.n	8005e90 <intToString+0x24>
 8005e82:	1c60      	adds	r0, r4, #1
 8005e84:	4290      	cmp	r0, r2
 8005e86:	bfbd      	ittte	lt
 8005e88:	222d      	movlt	r2, #45	@ 0x2d
 8005e8a:	4604      	movlt	r4, r0
 8005e8c:	702a      	strblt	r2, [r5, #0]
 8005e8e:	702b      	strbge	r3, [r5, #0]
 8005e90:	2200      	movs	r2, #0
 8005e92:	550a      	strb	r2, [r1, r4]
 8005e94:	1e4a      	subs	r2, r1, #1
 8005e96:	4421      	add	r1, r4
 8005e98:	3c01      	subs	r4, #1
 8005e9a:	1ae0      	subs	r0, r4, r3
 8005e9c:	4298      	cmp	r0, r3
 8005e9e:	dd15      	ble.n	8005ecc <intToString+0x60>
 8005ea0:	f812 0f01 	ldrb.w	r0, [r2, #1]!
 8005ea4:	f811 5d01 	ldrb.w	r5, [r1, #-1]!
 8005ea8:	3301      	adds	r3, #1
 8005eaa:	7015      	strb	r5, [r2, #0]
 8005eac:	7008      	strb	r0, [r1, #0]
 8005eae:	e7f4      	b.n	8005e9a <intToString+0x2e>
 8005eb0:	3401      	adds	r4, #1
 8005eb2:	4294      	cmp	r4, r2
 8005eb4:	da08      	bge.n	8005ec8 <intToString+0x5c>
 8005eb6:	fbb3 f7f6 	udiv	r7, r3, r6
 8005eba:	fb06 3317 	mls	r3, r6, r7, r3
 8005ebe:	3330      	adds	r3, #48	@ 0x30
 8005ec0:	f805 3b01 	strb.w	r3, [r5], #1
 8005ec4:	463b      	mov	r3, r7
 8005ec6:	e7d9      	b.n	8005e7c <intToString+0x10>
 8005ec8:	2300      	movs	r3, #0
 8005eca:	702b      	strb	r3, [r5, #0]
 8005ecc:	bdf0      	pop	{r4, r5, r6, r7, pc}
	...

08005ed0 <malloc>:
 8005ed0:	4b02      	ldr	r3, [pc, #8]	@ (8005edc <malloc+0xc>)
 8005ed2:	4601      	mov	r1, r0
 8005ed4:	6818      	ldr	r0, [r3, #0]
 8005ed6:	f000 b825 	b.w	8005f24 <_malloc_r>
 8005eda:	bf00      	nop
 8005edc:	2000004c 	.word	0x2000004c

08005ee0 <sbrk_aligned>:
 8005ee0:	b570      	push	{r4, r5, r6, lr}
 8005ee2:	4e0f      	ldr	r6, [pc, #60]	@ (8005f20 <sbrk_aligned+0x40>)
 8005ee4:	460c      	mov	r4, r1
 8005ee6:	6831      	ldr	r1, [r6, #0]
 8005ee8:	4605      	mov	r5, r0
 8005eea:	b911      	cbnz	r1, 8005ef2 <sbrk_aligned+0x12>
 8005eec:	f000 fae8 	bl	80064c0 <_sbrk_r>
 8005ef0:	6030      	str	r0, [r6, #0]
 8005ef2:	4621      	mov	r1, r4
 8005ef4:	4628      	mov	r0, r5
 8005ef6:	f000 fae3 	bl	80064c0 <_sbrk_r>
 8005efa:	1c43      	adds	r3, r0, #1
 8005efc:	d103      	bne.n	8005f06 <sbrk_aligned+0x26>
 8005efe:	f04f 34ff 	mov.w	r4, #4294967295
 8005f02:	4620      	mov	r0, r4
 8005f04:	bd70      	pop	{r4, r5, r6, pc}
 8005f06:	1cc4      	adds	r4, r0, #3
 8005f08:	f024 0403 	bic.w	r4, r4, #3
 8005f0c:	42a0      	cmp	r0, r4
 8005f0e:	d0f8      	beq.n	8005f02 <sbrk_aligned+0x22>
 8005f10:	1a21      	subs	r1, r4, r0
 8005f12:	4628      	mov	r0, r5
 8005f14:	f000 fad4 	bl	80064c0 <_sbrk_r>
 8005f18:	3001      	adds	r0, #1
 8005f1a:	d1f2      	bne.n	8005f02 <sbrk_aligned+0x22>
 8005f1c:	e7ef      	b.n	8005efe <sbrk_aligned+0x1e>
 8005f1e:	bf00      	nop
 8005f20:	20003fc4 	.word	0x20003fc4

08005f24 <_malloc_r>:
 8005f24:	e92d 43f8 	stmdb	sp!, {r3, r4, r5, r6, r7, r8, r9, lr}
 8005f28:	1ccd      	adds	r5, r1, #3
 8005f2a:	f025 0503 	bic.w	r5, r5, #3
 8005f2e:	3508      	adds	r5, #8
 8005f30:	2d0c      	cmp	r5, #12
 8005f32:	bf38      	it	cc
 8005f34:	250c      	movcc	r5, #12
 8005f36:	2d00      	cmp	r5, #0
 8005f38:	4606      	mov	r6, r0
 8005f3a:	db01      	blt.n	8005f40 <_malloc_r+0x1c>
 8005f3c:	42a9      	cmp	r1, r5
 8005f3e:	d904      	bls.n	8005f4a <_malloc_r+0x26>
 8005f40:	230c      	movs	r3, #12
 8005f42:	6033      	str	r3, [r6, #0]
 8005f44:	2000      	movs	r0, #0
 8005f46:	e8bd 83f8 	ldmia.w	sp!, {r3, r4, r5, r6, r7, r8, r9, pc}
 8005f4a:	f8df 80d4 	ldr.w	r8, [pc, #212]	@ 8006020 <_malloc_r+0xfc>
 8005f4e:	f000 f869 	bl	8006024 <__malloc_lock>
 8005f52:	f8d8 3000 	ldr.w	r3, [r8]
 8005f56:	461c      	mov	r4, r3
 8005f58:	bb44      	cbnz	r4, 8005fac <_malloc_r+0x88>
 8005f5a:	4629      	mov	r1, r5
 8005f5c:	4630      	mov	r0, r6
 8005f5e:	f7ff ffbf 	bl	8005ee0 <sbrk_aligned>
 8005f62:	1c43      	adds	r3, r0, #1
 8005f64:	4604      	mov	r4, r0
 8005f66:	d158      	bne.n	800601a <_malloc_r+0xf6>
 8005f68:	f8d8 4000 	ldr.w	r4, [r8]
 8005f6c:	4627      	mov	r7, r4
 8005f6e:	2f00      	cmp	r7, #0
 8005f70:	d143      	bne.n	8005ffa <_malloc_r+0xd6>
 8005f72:	2c00      	cmp	r4, #0
 8005f74:	d04b      	beq.n	800600e <_malloc_r+0xea>
 8005f76:	6823      	ldr	r3, [r4, #0]
 8005f78:	4639      	mov	r1, r7
 8005f7a:	4630      	mov	r0, r6
 8005f7c:	eb04 0903 	add.w	r9, r4, r3
 8005f80:	f000 fa9e 	bl	80064c0 <_sbrk_r>
 8005f84:	4581      	cmp	r9, r0
 8005f86:	d142      	bne.n	800600e <_malloc_r+0xea>
 8005f88:	6821      	ldr	r1, [r4, #0]
 8005f8a:	4630      	mov	r0, r6
 8005f8c:	1a6d      	subs	r5, r5, r1
 8005f8e:	4629      	mov	r1, r5
 8005f90:	f7ff ffa6 	bl	8005ee0 <sbrk_aligned>
 8005f94:	3001      	adds	r0, #1
 8005f96:	d03a      	beq.n	800600e <_malloc_r+0xea>
 8005f98:	6823      	ldr	r3, [r4, #0]
 8005f9a:	442b      	add	r3, r5
 8005f9c:	6023      	str	r3, [r4, #0]
 8005f9e:	f8d8 3000 	ldr.w	r3, [r8]
 8005fa2:	685a      	ldr	r2, [r3, #4]
 8005fa4:	bb62      	cbnz	r2, 8006000 <_malloc_r+0xdc>
 8005fa6:	f8c8 7000 	str.w	r7, [r8]
 8005faa:	e00f      	b.n	8005fcc <_malloc_r+0xa8>
 8005fac:	6822      	ldr	r2, [r4, #0]
 8005fae:	1b52      	subs	r2, r2, r5
 8005fb0:	d420      	bmi.n	8005ff4 <_malloc_r+0xd0>
 8005fb2:	2a0b      	cmp	r2, #11
 8005fb4:	d917      	bls.n	8005fe6 <_malloc_r+0xc2>
 8005fb6:	1961      	adds	r1, r4, r5
 8005fb8:	42a3      	cmp	r3, r4
 8005fba:	6025      	str	r5, [r4, #0]
 8005fbc:	bf18      	it	ne
 8005fbe:	6059      	strne	r1, [r3, #4]
 8005fc0:	6863      	ldr	r3, [r4, #4]
 8005fc2:	bf08      	it	eq
 8005fc4:	f8c8 1000 	streq.w	r1, [r8]
 8005fc8:	5162      	str	r2, [r4, r5]
 8005fca:	604b      	str	r3, [r1, #4]
 8005fcc:	4630      	mov	r0, r6
 8005fce:	f000 f82f 	bl	8006030 <__malloc_unlock>
 8005fd2:	f104 000b 	add.w	r0, r4, #11
 8005fd6:	1d23      	adds	r3, r4, #4
 8005fd8:	f020 0007 	bic.w	r0, r0, #7
 8005fdc:	1ac2      	subs	r2, r0, r3
 8005fde:	bf1c      	itt	ne
 8005fe0:	1a1b      	subne	r3, r3, r0
 8005fe2:	50a3      	strne	r3, [r4, r2]
 8005fe4:	e7af      	b.n	8005f46 <_malloc_r+0x22>
 8005fe6:	6862      	ldr	r2, [r4, #4]
 8005fe8:	42a3      	cmp	r3, r4
 8005fea:	bf0c      	ite	eq
 8005fec:	f8c8 2000 	streq.w	r2, [r8]
 8005ff0:	605a      	strne	r2, [r3, #4]
 8005ff2:	e7eb      	b.n	8005fcc <_malloc_r+0xa8>
 8005ff4:	4623      	mov	r3, r4
 8005ff6:	6864      	ldr	r4, [r4, #4]
 8005ff8:	e7ae      	b.n	8005f58 <_malloc_r+0x34>
 8005ffa:	463c      	mov	r4, r7
 8005ffc:	687f      	ldr	r7, [r7, #4]
 8005ffe:	e7b6      	b.n	8005f6e <_malloc_r+0x4a>
 8006000:	461a      	mov	r2, r3
 8006002:	685b      	ldr	r3, [r3, #4]
 8006004:	42a3      	cmp	r3, r4
 8006006:	d1fb      	bne.n	8006000 <_malloc_r+0xdc>
 8006008:	2300      	movs	r3, #0
 800600a:	6053      	str	r3, [r2, #4]
 800600c:	e7de      	b.n	8005fcc <_malloc_r+0xa8>
 800600e:	230c      	movs	r3, #12
 8006010:	4630      	mov	r0, r6
 8006012:	6033      	str	r3, [r6, #0]
 8006014:	f000 f80c 	bl	8006030 <__malloc_unlock>
 8006018:	e794      	b.n	8005f44 <_malloc_r+0x20>
 800601a:	6005      	str	r5, [r0, #0]
 800601c:	e7d6      	b.n	8005fcc <_malloc_r+0xa8>
 800601e:	bf00      	nop
 8006020:	20003fc8 	.word	0x20003fc8

08006024 <__malloc_lock>:
 8006024:	4801      	ldr	r0, [pc, #4]	@ (800602c <__malloc_lock+0x8>)
 8006026:	f000 ba98 	b.w	800655a <__retarget_lock_acquire_recursive>
 800602a:	bf00      	nop
 800602c:	2000410c 	.word	0x2000410c

08006030 <__malloc_unlock>:
 8006030:	4801      	ldr	r0, [pc, #4]	@ (8006038 <__malloc_unlock+0x8>)
 8006032:	f000 ba93 	b.w	800655c <__retarget_lock_release_recursive>
 8006036:	bf00      	nop
 8006038:	2000410c 	.word	0x2000410c

0800603c <std>:
 800603c:	2300      	movs	r3, #0
 800603e:	b510      	push	{r4, lr}
 8006040:	4604      	mov	r4, r0
 8006042:	e9c0 3300 	strd	r3, r3, [r0]
 8006046:	e9c0 3304 	strd	r3, r3, [r0, #16]
 800604a:	6083      	str	r3, [r0, #8]
 800604c:	8181      	strh	r1, [r0, #12]
 800604e:	6643      	str	r3, [r0, #100]	@ 0x64
 8006050:	81c2      	strh	r2, [r0, #14]
 8006052:	6183      	str	r3, [r0, #24]
 8006054:	4619      	mov	r1, r3
 8006056:	2208      	movs	r2, #8
 8006058:	305c      	adds	r0, #92	@ 0x5c
 800605a:	f000 f916 	bl	800628a <memset>
 800605e:	4b0d      	ldr	r3, [pc, #52]	@ (8006094 <std+0x58>)
 8006060:	6224      	str	r4, [r4, #32]
 8006062:	6263      	str	r3, [r4, #36]	@ 0x24
 8006064:	4b0c      	ldr	r3, [pc, #48]	@ (8006098 <std+0x5c>)
 8006066:	62a3      	str	r3, [r4, #40]	@ 0x28
 8006068:	4b0c      	ldr	r3, [pc, #48]	@ (800609c <std+0x60>)
 800606a:	62e3      	str	r3, [r4, #44]	@ 0x2c
 800606c:	4b0c      	ldr	r3, [pc, #48]	@ (80060a0 <std+0x64>)
 800606e:	6323      	str	r3, [r4, #48]	@ 0x30
 8006070:	4b0c      	ldr	r3, [pc, #48]	@ (80060a4 <std+0x68>)
 8006072:	429c      	cmp	r4, r3
 8006074:	d006      	beq.n	8006084 <std+0x48>
 8006076:	f103 0268 	add.w	r2, r3, #104	@ 0x68
 800607a:	4294      	cmp	r4, r2
 800607c:	d002      	beq.n	8006084 <std+0x48>
 800607e:	33d0      	adds	r3, #208	@ 0xd0
 8006080:	429c      	cmp	r4, r3
 8006082:	d105      	bne.n	8006090 <std+0x54>
 8006084:	f104 0058 	add.w	r0, r4, #88	@ 0x58
 8006088:	e8bd 4010 	ldmia.w	sp!, {r4, lr}
 800608c:	f000 ba64 	b.w	8006558 <__retarget_lock_init_recursive>
 8006090:	bd10      	pop	{r4, pc}
 8006092:	bf00      	nop
 8006094:	08006205 	.word	0x08006205
 8006098:	08006227 	.word	0x08006227
 800609c:	0800625f 	.word	0x0800625f
 80060a0:	08006283 	.word	0x08006283
 80060a4:	20003fcc 	.word	0x20003fcc

080060a8 <stdio_exit_handler>:
 80060a8:	4a02      	ldr	r2, [pc, #8]	@ (80060b4 <stdio_exit_handler+0xc>)
 80060aa:	4903      	ldr	r1, [pc, #12]	@ (80060b8 <stdio_exit_handler+0x10>)
 80060ac:	4803      	ldr	r0, [pc, #12]	@ (80060bc <stdio_exit_handler+0x14>)
 80060ae:	f000 b869 	b.w	8006184 <_fwalk_sglue>
 80060b2:	bf00      	nop
 80060b4:	20000040 	.word	0x20000040
 80060b8:	08006d29 	.word	0x08006d29
 80060bc:	20000050 	.word	0x20000050

080060c0 <cleanup_stdio>:
 80060c0:	6841      	ldr	r1, [r0, #4]
 80060c2:	4b0c      	ldr	r3, [pc, #48]	@ (80060f4 <cleanup_stdio+0x34>)
 80060c4:	b510      	push	{r4, lr}
 80060c6:	4299      	cmp	r1, r3
 80060c8:	4604      	mov	r4, r0
 80060ca:	d001      	beq.n	80060d0 <cleanup_stdio+0x10>
 80060cc:	f000 fe2c 	bl	8006d28 <_fflush_r>
 80060d0:	68a1      	ldr	r1, [r4, #8]
 80060d2:	4b09      	ldr	r3, [pc, #36]	@ (80060f8 <cleanup_stdio+0x38>)
 80060d4:	4299      	cmp	r1, r3
 80060d6:	d002      	beq.n	80060de <cleanup_stdio+0x1e>
 80060d8:	4620      	mov	r0, r4
 80060da:	f000 fe25 	bl	8006d28 <_fflush_r>
 80060de:	68e1      	ldr	r1, [r4, #12]
 80060e0:	4b06      	ldr	r3, [pc, #24]	@ (80060fc <cleanup_stdio+0x3c>)
 80060e2:	4299      	cmp	r1, r3
 80060e4:	d004      	beq.n	80060f0 <cleanup_stdio+0x30>
 80060e6:	4620      	mov	r0, r4
 80060e8:	e8bd 4010 	ldmia.w	sp!, {r4, lr}
 80060ec:	f000 be1c 	b.w	8006d28 <_fflush_r>
 80060f0:	bd10      	pop	{r4, pc}
 80060f2:	bf00      	nop
 80060f4:	20003fcc 	.word	0x20003fcc
 80060f8:	20004034 	.word	0x20004034
 80060fc:	2000409c 	.word	0x2000409c

08006100 <global_stdio_init.part.0>:
 8006100:	b510      	push	{r4, lr}
 8006102:	4b0b      	ldr	r3, [pc, #44]	@ (8006130 <global_stdio_init.part.0+0x30>)
 8006104:	4c0b      	ldr	r4, [pc, #44]	@ (8006134 <global_stdio_init.part.0+0x34>)
 8006106:	4a0c      	ldr	r2, [pc, #48]	@ (8006138 <global_stdio_init.part.0+0x38>)
 8006108:	4620      	mov	r0, r4
 800610a:	601a      	str	r2, [r3, #0]
 800610c:	2104      	movs	r1, #4
 800610e:	2200      	movs	r2, #0
 8006110:	f7ff ff94 	bl	800603c <std>
 8006114:	f104 0068 	add.w	r0, r4, #104	@ 0x68
 8006118:	2201      	movs	r2, #1
 800611a:	2109      	movs	r1, #9
 800611c:	f7ff ff8e 	bl	800603c <std>
 8006120:	f104 00d0 	add.w	r0, r4, #208	@ 0xd0
 8006124:	2202      	movs	r2, #2
 8006126:	e8bd 4010 	ldmia.w	sp!, {r4, lr}
 800612a:	2112      	movs	r1, #18
 800612c:	f7ff bf86 	b.w	800603c <std>
 8006130:	20004104 	.word	0x20004104
 8006134:	20003fcc 	.word	0x20003fcc
 8006138:	080060a9 	.word	0x080060a9

0800613c <__sfp_lock_acquire>:
 800613c:	4801      	ldr	r0, [pc, #4]	@ (8006144 <__sfp_lock_acquire+0x8>)
 800613e:	f000 ba0c 	b.w	800655a <__retarget_lock_acquire_recursive>
 8006142:	bf00      	nop
 8006144:	2000410d 	.word	0x2000410d

08006148 <__sfp_lock_release>:
 8006148:	4801      	ldr	r0, [pc, #4]	@ (8006150 <__sfp_lock_release+0x8>)
 800614a:	f000 ba07 	b.w	800655c <__retarget_lock_release_recursive>
 800614e:	bf00      	nop
 8006150:	2000410d 	.word	0x2000410d

08006154 <__sinit>:
 8006154:	b510      	push	{r4, lr}
 8006156:	4604      	mov	r4, r0
 8006158:	f7ff fff0 	bl	800613c <__sfp_lock_acquire>
 800615c:	6a23      	ldr	r3, [r4, #32]
 800615e:	b11b      	cbz	r3, 8006168 <__sinit+0x14>
 8006160:	e8bd 4010 	ldmia.w	sp!, {r4, lr}
 8006164:	f7ff bff0 	b.w	8006148 <__sfp_lock_release>
 8006168:	4b04      	ldr	r3, [pc, #16]	@ (800617c <__sinit+0x28>)
 800616a:	6223      	str	r3, [r4, #32]
 800616c:	4b04      	ldr	r3, [pc, #16]	@ (8006180 <__sinit+0x2c>)
 800616e:	681b      	ldr	r3, [r3, #0]
 8006170:	2b00      	cmp	r3, #0
 8006172:	d1f5      	bne.n	8006160 <__sinit+0xc>
 8006174:	f7ff ffc4 	bl	8006100 <global_stdio_init.part.0>
 8006178:	e7f2      	b.n	8006160 <__sinit+0xc>
 800617a:	bf00      	nop
 800617c:	080060c1 	.word	0x080060c1
 8006180:	20004104 	.word	0x20004104

08006184 <_fwalk_sglue>:
 8006184:	e92d 43f8 	stmdb	sp!, {r3, r4, r5, r6, r7, r8, r9, lr}
 8006188:	4607      	mov	r7, r0
 800618a:	4688      	mov	r8, r1
 800618c:	4614      	mov	r4, r2
 800618e:	2600      	movs	r6, #0
 8006190:	e9d4 9501 	ldrd	r9, r5, [r4, #4]
 8006194:	f1b9 0901 	subs.w	r9, r9, #1
 8006198:	d505      	bpl.n	80061a6 <_fwalk_sglue+0x22>
 800619a:	6824      	ldr	r4, [r4, #0]
 800619c:	2c00      	cmp	r4, #0
 800619e:	d1f7      	bne.n	8006190 <_fwalk_sglue+0xc>
 80061a0:	4630      	mov	r0, r6
 80061a2:	e8bd 83f8 	ldmia.w	sp!, {r3, r4, r5, r6, r7, r8, r9, pc}
 80061a6:	89ab      	ldrh	r3, [r5, #12]
 80061a8:	2b01      	cmp	r3, #1
 80061aa:	d907      	bls.n	80061bc <_fwalk_sglue+0x38>
 80061ac:	f9b5 300e 	ldrsh.w	r3, [r5, #14]
 80061b0:	3301      	adds	r3, #1
 80061b2:	d003      	beq.n	80061bc <_fwalk_sglue+0x38>
 80061b4:	4629      	mov	r1, r5
 80061b6:	4638      	mov	r0, r7
 80061b8:	47c0      	blx	r8
 80061ba:	4306      	orrs	r6, r0
 80061bc:	3568      	adds	r5, #104	@ 0x68
 80061be:	e7e9      	b.n	8006194 <_fwalk_sglue+0x10>

080061c0 <siprintf>:
 80061c0:	b40e      	push	{r1, r2, r3}
 80061c2:	f06f 4100 	mvn.w	r1, #2147483648	@ 0x80000000
 80061c6:	b510      	push	{r4, lr}
 80061c8:	2400      	movs	r4, #0
 80061ca:	b09d      	sub	sp, #116	@ 0x74
 80061cc:	ab1f      	add	r3, sp, #124	@ 0x7c
 80061ce:	9002      	str	r0, [sp, #8]
 80061d0:	9006      	str	r0, [sp, #24]
 80061d2:	9107      	str	r1, [sp, #28]
 80061d4:	9104      	str	r1, [sp, #16]
 80061d6:	4809      	ldr	r0, [pc, #36]	@ (80061fc <siprintf+0x3c>)
 80061d8:	4909      	ldr	r1, [pc, #36]	@ (8006200 <siprintf+0x40>)
 80061da:	f853 2b04 	ldr.w	r2, [r3], #4
 80061de:	9105      	str	r1, [sp, #20]
 80061e0:	6800      	ldr	r0, [r0, #0]
 80061e2:	a902      	add	r1, sp, #8
 80061e4:	9301      	str	r3, [sp, #4]
 80061e6:	941b      	str	r4, [sp, #108]	@ 0x6c
 80061e8:	f000 fa92 	bl	8006710 <_svfiprintf_r>
 80061ec:	9b02      	ldr	r3, [sp, #8]
 80061ee:	701c      	strb	r4, [r3, #0]
 80061f0:	b01d      	add	sp, #116	@ 0x74
 80061f2:	e8bd 4010 	ldmia.w	sp!, {r4, lr}
 80061f6:	b003      	add	sp, #12
 80061f8:	4770      	bx	lr
 80061fa:	bf00      	nop
 80061fc:	2000004c 	.word	0x2000004c
 8006200:	ffff0208 	.word	0xffff0208

08006204 <__sread>:
 8006204:	b510      	push	{r4, lr}
 8006206:	460c      	mov	r4, r1
 8006208:	f9b1 100e 	ldrsh.w	r1, [r1, #14]
 800620c:	f000 f946 	bl	800649c <_read_r>
 8006210:	2800      	cmp	r0, #0
 8006212:	bfab      	itete	ge
 8006214:	6d63      	ldrge	r3, [r4, #84]	@ 0x54
 8006216:	89a3      	ldrhlt	r3, [r4, #12]
 8006218:	181b      	addge	r3, r3, r0
 800621a:	f423 5380 	biclt.w	r3, r3, #4096	@ 0x1000
 800621e:	bfac      	ite	ge
 8006220:	6563      	strge	r3, [r4, #84]	@ 0x54
 8006222:	81a3      	strhlt	r3, [r4, #12]
 8006224:	bd10      	pop	{r4, pc}

08006226 <__swrite>:
 8006226:	e92d 41f0 	stmdb	sp!, {r4, r5, r6, r7, r8, lr}
 800622a:	461f      	mov	r7, r3
 800622c:	898b      	ldrh	r3, [r1, #12]
 800622e:	4605      	mov	r5, r0
 8006230:	05db      	lsls	r3, r3, #23
 8006232:	460c      	mov	r4, r1
 8006234:	4616      	mov	r6, r2
 8006236:	d505      	bpl.n	8006244 <__swrite+0x1e>
 8006238:	2302      	movs	r3, #2
 800623a:	2200      	movs	r2, #0
 800623c:	f9b1 100e 	ldrsh.w	r1, [r1, #14]
 8006240:	f000 f91a 	bl	8006478 <_lseek_r>
 8006244:	89a3      	ldrh	r3, [r4, #12]
 8006246:	4632      	mov	r2, r6
 8006248:	f423 5380 	bic.w	r3, r3, #4096	@ 0x1000
 800624c:	81a3      	strh	r3, [r4, #12]
 800624e:	4628      	mov	r0, r5
 8006250:	463b      	mov	r3, r7
 8006252:	f9b4 100e 	ldrsh.w	r1, [r4, #14]
 8006256:	e8bd 41f0 	ldmia.w	sp!, {r4, r5, r6, r7, r8, lr}
 800625a:	f000 b941 	b.w	80064e0 <_write_r>

0800625e <__sseek>:
 800625e:	b510      	push	{r4, lr}
 8006260:	460c      	mov	r4, r1
 8006262:	f9b1 100e 	ldrsh.w	r1, [r1, #14]
 8006266:	f000 f907 	bl	8006478 <_lseek_r>
 800626a:	1c43      	adds	r3, r0, #1
 800626c:	89a3      	ldrh	r3, [r4, #12]
 800626e:	bf15      	itete	ne
 8006270:	6560      	strne	r0, [r4, #84]	@ 0x54
 8006272:	f423 5380 	biceq.w	r3, r3, #4096	@ 0x1000
 8006276:	f443 5380 	orrne.w	r3, r3, #4096	@ 0x1000
 800627a:	81a3      	strheq	r3, [r4, #12]
 800627c:	bf18      	it	ne
 800627e:	81a3      	strhne	r3, [r4, #12]
 8006280:	bd10      	pop	{r4, pc}

08006282 <__sclose>:
 8006282:	f9b1 100e 	ldrsh.w	r1, [r1, #14]
 8006286:	f000 b889 	b.w	800639c <_close_r>

0800628a <memset>:
 800628a:	4603      	mov	r3, r0
 800628c:	4402      	add	r2, r0
 800628e:	4293      	cmp	r3, r2
 8006290:	d100      	bne.n	8006294 <memset+0xa>
 8006292:	4770      	bx	lr
 8006294:	f803 1b01 	strb.w	r1, [r3], #1
 8006298:	e7f9      	b.n	800628e <memset+0x4>

0800629a <strcat>:
 800629a:	4602      	mov	r2, r0
 800629c:	b510      	push	{r4, lr}
 800629e:	7814      	ldrb	r4, [r2, #0]
 80062a0:	4613      	mov	r3, r2
 80062a2:	3201      	adds	r2, #1
 80062a4:	2c00      	cmp	r4, #0
 80062a6:	d1fa      	bne.n	800629e <strcat+0x4>
 80062a8:	3b01      	subs	r3, #1
 80062aa:	f811 2b01 	ldrb.w	r2, [r1], #1
 80062ae:	f803 2f01 	strb.w	r2, [r3, #1]!
 80062b2:	2a00      	cmp	r2, #0
 80062b4:	d1f9      	bne.n	80062aa <strcat+0x10>
 80062b6:	bd10      	pop	{r4, pc}

080062b8 <strtok>:
 80062b8:	4b16      	ldr	r3, [pc, #88]	@ (8006314 <strtok+0x5c>)
 80062ba:	e92d 41f0 	stmdb	sp!, {r4, r5, r6, r7, r8, lr}
 80062be:	681f      	ldr	r7, [r3, #0]
 80062c0:	4605      	mov	r5, r0
 80062c2:	6c7c      	ldr	r4, [r7, #68]	@ 0x44
 80062c4:	460e      	mov	r6, r1
 80062c6:	b9ec      	cbnz	r4, 8006304 <strtok+0x4c>
 80062c8:	2050      	movs	r0, #80	@ 0x50
 80062ca:	f7ff fe01 	bl	8005ed0 <malloc>
 80062ce:	4602      	mov	r2, r0
 80062d0:	6478      	str	r0, [r7, #68]	@ 0x44
 80062d2:	b920      	cbnz	r0, 80062de <strtok+0x26>
 80062d4:	215b      	movs	r1, #91	@ 0x5b
 80062d6:	4b10      	ldr	r3, [pc, #64]	@ (8006318 <strtok+0x60>)
 80062d8:	4810      	ldr	r0, [pc, #64]	@ (800631c <strtok+0x64>)
 80062da:	f000 f957 	bl	800658c <__assert_func>
 80062de:	e9c0 4400 	strd	r4, r4, [r0]
 80062e2:	e9c0 4402 	strd	r4, r4, [r0, #8]
 80062e6:	e9c0 4404 	strd	r4, r4, [r0, #16]
 80062ea:	e9c0 440a 	strd	r4, r4, [r0, #40]	@ 0x28
 80062ee:	e9c0 440c 	strd	r4, r4, [r0, #48]	@ 0x30
 80062f2:	e9c0 440e 	strd	r4, r4, [r0, #56]	@ 0x38
 80062f6:	e9c0 4410 	strd	r4, r4, [r0, #64]	@ 0x40
 80062fa:	e9c0 4412 	strd	r4, r4, [r0, #72]	@ 0x48
 80062fe:	6184      	str	r4, [r0, #24]
 8006300:	7704      	strb	r4, [r0, #28]
 8006302:	6244      	str	r4, [r0, #36]	@ 0x24
 8006304:	4631      	mov	r1, r6
 8006306:	4628      	mov	r0, r5
 8006308:	6c7a      	ldr	r2, [r7, #68]	@ 0x44
 800630a:	2301      	movs	r3, #1
 800630c:	e8bd 41f0 	ldmia.w	sp!, {r4, r5, r6, r7, r8, lr}
 8006310:	f000 b806 	b.w	8006320 <__strtok_r>
 8006314:	2000004c 	.word	0x2000004c
 8006318:	080075c9 	.word	0x080075c9
 800631c:	080075e0 	.word	0x080075e0

08006320 <__strtok_r>:
 8006320:	b5f0      	push	{r4, r5, r6, r7, lr}
 8006322:	4604      	mov	r4, r0
 8006324:	b908      	cbnz	r0, 800632a <__strtok_r+0xa>
 8006326:	6814      	ldr	r4, [r2, #0]
 8006328:	b144      	cbz	r4, 800633c <__strtok_r+0x1c>
 800632a:	460f      	mov	r7, r1
 800632c:	4620      	mov	r0, r4
 800632e:	f814 5b01 	ldrb.w	r5, [r4], #1
 8006332:	f817 6b01 	ldrb.w	r6, [r7], #1
 8006336:	b91e      	cbnz	r6, 8006340 <__strtok_r+0x20>
 8006338:	b965      	cbnz	r5, 8006354 <__strtok_r+0x34>
 800633a:	6015      	str	r5, [r2, #0]
 800633c:	2000      	movs	r0, #0
 800633e:	e005      	b.n	800634c <__strtok_r+0x2c>
 8006340:	42b5      	cmp	r5, r6
 8006342:	d1f6      	bne.n	8006332 <__strtok_r+0x12>
 8006344:	2b00      	cmp	r3, #0
 8006346:	d1f0      	bne.n	800632a <__strtok_r+0xa>
 8006348:	6014      	str	r4, [r2, #0]
 800634a:	7003      	strb	r3, [r0, #0]
 800634c:	bdf0      	pop	{r4, r5, r6, r7, pc}
 800634e:	461c      	mov	r4, r3
 8006350:	e00c      	b.n	800636c <__strtok_r+0x4c>
 8006352:	b91d      	cbnz	r5, 800635c <__strtok_r+0x3c>
 8006354:	460e      	mov	r6, r1
 8006356:	4627      	mov	r7, r4
 8006358:	f814 3b01 	ldrb.w	r3, [r4], #1
 800635c:	f816 5b01 	ldrb.w	r5, [r6], #1
 8006360:	42ab      	cmp	r3, r5
 8006362:	d1f6      	bne.n	8006352 <__strtok_r+0x32>
 8006364:	2b00      	cmp	r3, #0
 8006366:	d0f2      	beq.n	800634e <__strtok_r+0x2e>
 8006368:	2300      	movs	r3, #0
 800636a:	703b      	strb	r3, [r7, #0]
 800636c:	6014      	str	r4, [r2, #0]
 800636e:	e7ed      	b.n	800634c <__strtok_r+0x2c>

08006370 <strstr>:
 8006370:	780a      	ldrb	r2, [r1, #0]
 8006372:	b570      	push	{r4, r5, r6, lr}
 8006374:	b96a      	cbnz	r2, 8006392 <strstr+0x22>
 8006376:	bd70      	pop	{r4, r5, r6, pc}
 8006378:	429a      	cmp	r2, r3
 800637a:	d109      	bne.n	8006390 <strstr+0x20>
 800637c:	460c      	mov	r4, r1
 800637e:	4605      	mov	r5, r0
 8006380:	f814 3f01 	ldrb.w	r3, [r4, #1]!
 8006384:	2b00      	cmp	r3, #0
 8006386:	d0f6      	beq.n	8006376 <strstr+0x6>
 8006388:	f815 6f01 	ldrb.w	r6, [r5, #1]!
 800638c:	429e      	cmp	r6, r3
 800638e:	d0f7      	beq.n	8006380 <strstr+0x10>
 8006390:	3001      	adds	r0, #1
 8006392:	7803      	ldrb	r3, [r0, #0]
 8006394:	2b00      	cmp	r3, #0
 8006396:	d1ef      	bne.n	8006378 <strstr+0x8>
 8006398:	4618      	mov	r0, r3
 800639a:	e7ec      	b.n	8006376 <strstr+0x6>

0800639c <_close_r>:
 800639c:	b538      	push	{r3, r4, r5, lr}
 800639e:	2300      	movs	r3, #0
 80063a0:	4d05      	ldr	r5, [pc, #20]	@ (80063b8 <_close_r+0x1c>)
 80063a2:	4604      	mov	r4, r0
 80063a4:	4608      	mov	r0, r1
 80063a6:	602b      	str	r3, [r5, #0]
 80063a8:	f7fd fb6a 	bl	8003a80 <_close>
 80063ac:	1c43      	adds	r3, r0, #1
 80063ae:	d102      	bne.n	80063b6 <_close_r+0x1a>
 80063b0:	682b      	ldr	r3, [r5, #0]
 80063b2:	b103      	cbz	r3, 80063b6 <_close_r+0x1a>
 80063b4:	6023      	str	r3, [r4, #0]
 80063b6:	bd38      	pop	{r3, r4, r5, pc}
 80063b8:	20004108 	.word	0x20004108

080063bc <_reclaim_reent>:
 80063bc:	4b2d      	ldr	r3, [pc, #180]	@ (8006474 <_reclaim_reent+0xb8>)
 80063be:	b570      	push	{r4, r5, r6, lr}
 80063c0:	681b      	ldr	r3, [r3, #0]
 80063c2:	4604      	mov	r4, r0
 80063c4:	4283      	cmp	r3, r0
 80063c6:	d053      	beq.n	8006470 <_reclaim_reent+0xb4>
 80063c8:	69c3      	ldr	r3, [r0, #28]
 80063ca:	b31b      	cbz	r3, 8006414 <_reclaim_reent+0x58>
 80063cc:	68db      	ldr	r3, [r3, #12]
 80063ce:	b163      	cbz	r3, 80063ea <_reclaim_reent+0x2e>
 80063d0:	2500      	movs	r5, #0
 80063d2:	69e3      	ldr	r3, [r4, #28]
 80063d4:	68db      	ldr	r3, [r3, #12]
 80063d6:	5959      	ldr	r1, [r3, r5]
 80063d8:	b9b1      	cbnz	r1, 8006408 <_reclaim_reent+0x4c>
 80063da:	3504      	adds	r5, #4
 80063dc:	2d80      	cmp	r5, #128	@ 0x80
 80063de:	d1f8      	bne.n	80063d2 <_reclaim_reent+0x16>
 80063e0:	69e3      	ldr	r3, [r4, #28]
 80063e2:	4620      	mov	r0, r4
 80063e4:	68d9      	ldr	r1, [r3, #12]
 80063e6:	f000 f8ef 	bl	80065c8 <_free_r>
 80063ea:	69e3      	ldr	r3, [r4, #28]
 80063ec:	6819      	ldr	r1, [r3, #0]
 80063ee:	b111      	cbz	r1, 80063f6 <_reclaim_reent+0x3a>
 80063f0:	4620      	mov	r0, r4
 80063f2:	f000 f8e9 	bl	80065c8 <_free_r>
 80063f6:	69e3      	ldr	r3, [r4, #28]
 80063f8:	689d      	ldr	r5, [r3, #8]
 80063fa:	b15d      	cbz	r5, 8006414 <_reclaim_reent+0x58>
 80063fc:	4629      	mov	r1, r5
 80063fe:	4620      	mov	r0, r4
 8006400:	682d      	ldr	r5, [r5, #0]
 8006402:	f000 f8e1 	bl	80065c8 <_free_r>
 8006406:	e7f8      	b.n	80063fa <_reclaim_reent+0x3e>
 8006408:	680e      	ldr	r6, [r1, #0]
 800640a:	4620      	mov	r0, r4
 800640c:	f000 f8dc 	bl	80065c8 <_free_r>
 8006410:	4631      	mov	r1, r6
 8006412:	e7e1      	b.n	80063d8 <_reclaim_reent+0x1c>
 8006414:	6961      	ldr	r1, [r4, #20]
 8006416:	b111      	cbz	r1, 800641e <_reclaim_reent+0x62>
 8006418:	4620      	mov	r0, r4
 800641a:	f000 f8d5 	bl	80065c8 <_free_r>
 800641e:	69e1      	ldr	r1, [r4, #28]
 8006420:	b111      	cbz	r1, 8006428 <_reclaim_reent+0x6c>
 8006422:	4620      	mov	r0, r4
 8006424:	f000 f8d0 	bl	80065c8 <_free_r>
 8006428:	6b21      	ldr	r1, [r4, #48]	@ 0x30
 800642a:	b111      	cbz	r1, 8006432 <_reclaim_reent+0x76>
 800642c:	4620      	mov	r0, r4
 800642e:	f000 f8cb 	bl	80065c8 <_free_r>
 8006432:	6b61      	ldr	r1, [r4, #52]	@ 0x34
 8006434:	b111      	cbz	r1, 800643c <_reclaim_reent+0x80>
 8006436:	4620      	mov	r0, r4
 8006438:	f000 f8c6 	bl	80065c8 <_free_r>
 800643c:	6ba1      	ldr	r1, [r4, #56]	@ 0x38
 800643e:	b111      	cbz	r1, 8006446 <_reclaim_reent+0x8a>
 8006440:	4620      	mov	r0, r4
 8006442:	f000 f8c1 	bl	80065c8 <_free_r>
 8006446:	6ca1      	ldr	r1, [r4, #72]	@ 0x48
 8006448:	b111      	cbz	r1, 8006450 <_reclaim_reent+0x94>
 800644a:	4620      	mov	r0, r4
 800644c:	f000 f8bc 	bl	80065c8 <_free_r>
 8006450:	6c61      	ldr	r1, [r4, #68]	@ 0x44
 8006452:	b111      	cbz	r1, 800645a <_reclaim_reent+0x9e>
 8006454:	4620      	mov	r0, r4
 8006456:	f000 f8b7 	bl	80065c8 <_free_r>
 800645a:	6ae1      	ldr	r1, [r4, #44]	@ 0x2c
 800645c:	b111      	cbz	r1, 8006464 <_reclaim_reent+0xa8>
 800645e:	4620      	mov	r0, r4
 8006460:	f000 f8b2 	bl	80065c8 <_free_r>
 8006464:	6a23      	ldr	r3, [r4, #32]
 8006466:	b11b      	cbz	r3, 8006470 <_reclaim_reent+0xb4>
 8006468:	4620      	mov	r0, r4
 800646a:	e8bd 4070 	ldmia.w	sp!, {r4, r5, r6, lr}
 800646e:	4718      	bx	r3
 8006470:	bd70      	pop	{r4, r5, r6, pc}
 8006472:	bf00      	nop
 8006474:	2000004c 	.word	0x2000004c

08006478 <_lseek_r>:
 8006478:	b538      	push	{r3, r4, r5, lr}
 800647a:	4604      	mov	r4, r0
 800647c:	4608      	mov	r0, r1
 800647e:	4611      	mov	r1, r2
 8006480:	2200      	movs	r2, #0
 8006482:	4d05      	ldr	r5, [pc, #20]	@ (8006498 <_lseek_r+0x20>)
 8006484:	602a      	str	r2, [r5, #0]
 8006486:	461a      	mov	r2, r3
 8006488:	f7fd fb04 	bl	8003a94 <_lseek>
 800648c:	1c43      	adds	r3, r0, #1
 800648e:	d102      	bne.n	8006496 <_lseek_r+0x1e>
 8006490:	682b      	ldr	r3, [r5, #0]
 8006492:	b103      	cbz	r3, 8006496 <_lseek_r+0x1e>
 8006494:	6023      	str	r3, [r4, #0]
 8006496:	bd38      	pop	{r3, r4, r5, pc}
 8006498:	20004108 	.word	0x20004108

0800649c <_read_r>:
 800649c:	b538      	push	{r3, r4, r5, lr}
 800649e:	4604      	mov	r4, r0
 80064a0:	4608      	mov	r0, r1
 80064a2:	4611      	mov	r1, r2
 80064a4:	2200      	movs	r2, #0
 80064a6:	4d05      	ldr	r5, [pc, #20]	@ (80064bc <_read_r+0x20>)
 80064a8:	602a      	str	r2, [r5, #0]
 80064aa:	461a      	mov	r2, r3
 80064ac:	f7fd facc 	bl	8003a48 <_read>
 80064b0:	1c43      	adds	r3, r0, #1
 80064b2:	d102      	bne.n	80064ba <_read_r+0x1e>
 80064b4:	682b      	ldr	r3, [r5, #0]
 80064b6:	b103      	cbz	r3, 80064ba <_read_r+0x1e>
 80064b8:	6023      	str	r3, [r4, #0]
 80064ba:	bd38      	pop	{r3, r4, r5, pc}
 80064bc:	20004108 	.word	0x20004108

080064c0 <_sbrk_r>:
 80064c0:	b538      	push	{r3, r4, r5, lr}
 80064c2:	2300      	movs	r3, #0
 80064c4:	4d05      	ldr	r5, [pc, #20]	@ (80064dc <_sbrk_r+0x1c>)
 80064c6:	4604      	mov	r4, r0
 80064c8:	4608      	mov	r0, r1
 80064ca:	602b      	str	r3, [r5, #0]
 80064cc:	f7fd fa8c 	bl	80039e8 <_sbrk>
 80064d0:	1c43      	adds	r3, r0, #1
 80064d2:	d102      	bne.n	80064da <_sbrk_r+0x1a>
 80064d4:	682b      	ldr	r3, [r5, #0]
 80064d6:	b103      	cbz	r3, 80064da <_sbrk_r+0x1a>
 80064d8:	6023      	str	r3, [r4, #0]
 80064da:	bd38      	pop	{r3, r4, r5, pc}
 80064dc:	20004108 	.word	0x20004108

080064e0 <_write_r>:
 80064e0:	b538      	push	{r3, r4, r5, lr}
 80064e2:	4604      	mov	r4, r0
 80064e4:	4608      	mov	r0, r1
 80064e6:	4611      	mov	r1, r2
 80064e8:	2200      	movs	r2, #0
 80064ea:	4d05      	ldr	r5, [pc, #20]	@ (8006500 <_write_r+0x20>)
 80064ec:	602a      	str	r2, [r5, #0]
 80064ee:	461a      	mov	r2, r3
 80064f0:	f7fd fab8 	bl	8003a64 <_write>
 80064f4:	1c43      	adds	r3, r0, #1
 80064f6:	d102      	bne.n	80064fe <_write_r+0x1e>
 80064f8:	682b      	ldr	r3, [r5, #0]
 80064fa:	b103      	cbz	r3, 80064fe <_write_r+0x1e>
 80064fc:	6023      	str	r3, [r4, #0]
 80064fe:	bd38      	pop	{r3, r4, r5, pc}
 8006500:	20004108 	.word	0x20004108

08006504 <__errno>:
 8006504:	4b01      	ldr	r3, [pc, #4]	@ (800650c <__errno+0x8>)
 8006506:	6818      	ldr	r0, [r3, #0]
 8006508:	4770      	bx	lr
 800650a:	bf00      	nop
 800650c:	2000004c 	.word	0x2000004c

08006510 <__libc_init_array>:
 8006510:	b570      	push	{r4, r5, r6, lr}
 8006512:	2600      	movs	r6, #0
 8006514:	4d0c      	ldr	r5, [pc, #48]	@ (8006548 <__libc_init_array+0x38>)
 8006516:	4c0d      	ldr	r4, [pc, #52]	@ (800654c <__libc_init_array+0x3c>)
 8006518:	1b64      	subs	r4, r4, r5
 800651a:	10a4      	asrs	r4, r4, #2
 800651c:	42a6      	cmp	r6, r4
 800651e:	d109      	bne.n	8006534 <__libc_init_array+0x24>
 8006520:	f000 ff3c 	bl	800739c <_init>
 8006524:	2600      	movs	r6, #0
 8006526:	4d0a      	ldr	r5, [pc, #40]	@ (8006550 <__libc_init_array+0x40>)
 8006528:	4c0a      	ldr	r4, [pc, #40]	@ (8006554 <__libc_init_array+0x44>)
 800652a:	1b64      	subs	r4, r4, r5
 800652c:	10a4      	asrs	r4, r4, #2
 800652e:	42a6      	cmp	r6, r4
 8006530:	d105      	bne.n	800653e <__libc_init_array+0x2e>
 8006532:	bd70      	pop	{r4, r5, r6, pc}
 8006534:	f855 3b04 	ldr.w	r3, [r5], #4
 8006538:	4798      	blx	r3
 800653a:	3601      	adds	r6, #1
 800653c:	e7ee      	b.n	800651c <__libc_init_array+0xc>
 800653e:	f855 3b04 	ldr.w	r3, [r5], #4
 8006542:	4798      	blx	r3
 8006544:	3601      	adds	r6, #1
 8006546:	e7f2      	b.n	800652e <__libc_init_array+0x1e>
 8006548:	0800f9d8 	.word	0x0800f9d8
 800654c:	0800f9d8 	.word	0x0800f9d8
 8006550:	0800f9d8 	.word	0x0800f9d8
 8006554:	0800f9dc 	.word	0x0800f9dc

08006558 <__retarget_lock_init_recursive>:
 8006558:	4770      	bx	lr

0800655a <__retarget_lock_acquire_recursive>:
 800655a:	4770      	bx	lr

0800655c <__retarget_lock_release_recursive>:
 800655c:	4770      	bx	lr

0800655e <strcpy>:
 800655e:	4603      	mov	r3, r0
 8006560:	f811 2b01 	ldrb.w	r2, [r1], #1
 8006564:	f803 2b01 	strb.w	r2, [r3], #1
 8006568:	2a00      	cmp	r2, #0
 800656a:	d1f9      	bne.n	8006560 <strcpy+0x2>
 800656c:	4770      	bx	lr

0800656e <memcpy>:
 800656e:	440a      	add	r2, r1
 8006570:	4291      	cmp	r1, r2
 8006572:	f100 33ff 	add.w	r3, r0, #4294967295
 8006576:	d100      	bne.n	800657a <memcpy+0xc>
 8006578:	4770      	bx	lr
 800657a:	b510      	push	{r4, lr}
 800657c:	f811 4b01 	ldrb.w	r4, [r1], #1
 8006580:	4291      	cmp	r1, r2
 8006582:	f803 4f01 	strb.w	r4, [r3, #1]!
 8006586:	d1f9      	bne.n	800657c <memcpy+0xe>
 8006588:	bd10      	pop	{r4, pc}
	...

0800658c <__assert_func>:
 800658c:	b51f      	push	{r0, r1, r2, r3, r4, lr}
 800658e:	4614      	mov	r4, r2
 8006590:	461a      	mov	r2, r3
 8006592:	4b09      	ldr	r3, [pc, #36]	@ (80065b8 <__assert_func+0x2c>)
 8006594:	4605      	mov	r5, r0
 8006596:	681b      	ldr	r3, [r3, #0]
 8006598:	68d8      	ldr	r0, [r3, #12]
 800659a:	b14c      	cbz	r4, 80065b0 <__assert_func+0x24>
 800659c:	4b07      	ldr	r3, [pc, #28]	@ (80065bc <__assert_func+0x30>)
 800659e:	e9cd 3401 	strd	r3, r4, [sp, #4]
 80065a2:	9100      	str	r1, [sp, #0]
 80065a4:	462b      	mov	r3, r5
 80065a6:	4906      	ldr	r1, [pc, #24]	@ (80065c0 <__assert_func+0x34>)
 80065a8:	f000 fbe6 	bl	8006d78 <fiprintf>
 80065ac:	f000 fc1e 	bl	8006dec <abort>
 80065b0:	4b04      	ldr	r3, [pc, #16]	@ (80065c4 <__assert_func+0x38>)
 80065b2:	461c      	mov	r4, r3
 80065b4:	e7f3      	b.n	800659e <__assert_func+0x12>
 80065b6:	bf00      	nop
 80065b8:	2000004c 	.word	0x2000004c
 80065bc:	0800763a 	.word	0x0800763a
 80065c0:	08007647 	.word	0x08007647
 80065c4:	080074e4 	.word	0x080074e4

080065c8 <_free_r>:
 80065c8:	b538      	push	{r3, r4, r5, lr}
 80065ca:	4605      	mov	r5, r0
 80065cc:	2900      	cmp	r1, #0
 80065ce:	d040      	beq.n	8006652 <_free_r+0x8a>
 80065d0:	f851 3c04 	ldr.w	r3, [r1, #-4]
 80065d4:	1f0c      	subs	r4, r1, #4
 80065d6:	2b00      	cmp	r3, #0
 80065d8:	bfb8      	it	lt
 80065da:	18e4      	addlt	r4, r4, r3
 80065dc:	f7ff fd22 	bl	8006024 <__malloc_lock>
 80065e0:	4a1c      	ldr	r2, [pc, #112]	@ (8006654 <_free_r+0x8c>)
 80065e2:	6813      	ldr	r3, [r2, #0]
 80065e4:	b933      	cbnz	r3, 80065f4 <_free_r+0x2c>
 80065e6:	6063      	str	r3, [r4, #4]
 80065e8:	6014      	str	r4, [r2, #0]
 80065ea:	4628      	mov	r0, r5
 80065ec:	e8bd 4038 	ldmia.w	sp!, {r3, r4, r5, lr}
 80065f0:	f7ff bd1e 	b.w	8006030 <__malloc_unlock>
 80065f4:	42a3      	cmp	r3, r4
 80065f6:	d908      	bls.n	800660a <_free_r+0x42>
 80065f8:	6820      	ldr	r0, [r4, #0]
 80065fa:	1821      	adds	r1, r4, r0
 80065fc:	428b      	cmp	r3, r1
 80065fe:	bf01      	itttt	eq
 8006600:	6819      	ldreq	r1, [r3, #0]
 8006602:	685b      	ldreq	r3, [r3, #4]
 8006604:	1809      	addeq	r1, r1, r0
 8006606:	6021      	streq	r1, [r4, #0]
 8006608:	e7ed      	b.n	80065e6 <_free_r+0x1e>
 800660a:	461a      	mov	r2, r3
 800660c:	685b      	ldr	r3, [r3, #4]
 800660e:	b10b      	cbz	r3, 8006614 <_free_r+0x4c>
 8006610:	42a3      	cmp	r3, r4
 8006612:	d9fa      	bls.n	800660a <_free_r+0x42>
 8006614:	6811      	ldr	r1, [r2, #0]
 8006616:	1850      	adds	r0, r2, r1
 8006618:	42a0      	cmp	r0, r4
 800661a:	d10b      	bne.n	8006634 <_free_r+0x6c>
 800661c:	6820      	ldr	r0, [r4, #0]
 800661e:	4401      	add	r1, r0
 8006620:	1850      	adds	r0, r2, r1
 8006622:	4283      	cmp	r3, r0
 8006624:	6011      	str	r1, [r2, #0]
 8006626:	d1e0      	bne.n	80065ea <_free_r+0x22>
 8006628:	6818      	ldr	r0, [r3, #0]
 800662a:	685b      	ldr	r3, [r3, #4]
 800662c:	4408      	add	r0, r1
 800662e:	6010      	str	r0, [r2, #0]
 8006630:	6053      	str	r3, [r2, #4]
 8006632:	e7da      	b.n	80065ea <_free_r+0x22>
 8006634:	d902      	bls.n	800663c <_free_r+0x74>
 8006636:	230c      	movs	r3, #12
 8006638:	602b      	str	r3, [r5, #0]
 800663a:	e7d6      	b.n	80065ea <_free_r+0x22>
 800663c:	6820      	ldr	r0, [r4, #0]
 800663e:	1821      	adds	r1, r4, r0
 8006640:	428b      	cmp	r3, r1
 8006642:	bf01      	itttt	eq
 8006644:	6819      	ldreq	r1, [r3, #0]
 8006646:	685b      	ldreq	r3, [r3, #4]
 8006648:	1809      	addeq	r1, r1, r0
 800664a:	6021      	streq	r1, [r4, #0]
 800664c:	6063      	str	r3, [r4, #4]
 800664e:	6054      	str	r4, [r2, #4]
 8006650:	e7cb      	b.n	80065ea <_free_r+0x22>
 8006652:	bd38      	pop	{r3, r4, r5, pc}
 8006654:	20003fc8 	.word	0x20003fc8

08006658 <__ssputs_r>:
 8006658:	e92d 47f0 	stmdb	sp!, {r4, r5, r6, r7, r8, r9, sl, lr}
 800665c:	461f      	mov	r7, r3
 800665e:	688e      	ldr	r6, [r1, #8]
 8006660:	4682      	mov	sl, r0
 8006662:	42be      	cmp	r6, r7
 8006664:	460c      	mov	r4, r1
 8006666:	4690      	mov	r8, r2
 8006668:	680b      	ldr	r3, [r1, #0]
 800666a:	d82d      	bhi.n	80066c8 <__ssputs_r+0x70>
 800666c:	f9b1 200c 	ldrsh.w	r2, [r1, #12]
 8006670:	f412 6f90 	tst.w	r2, #1152	@ 0x480
 8006674:	d026      	beq.n	80066c4 <__ssputs_r+0x6c>
 8006676:	6965      	ldr	r5, [r4, #20]
 8006678:	6909      	ldr	r1, [r1, #16]
 800667a:	eb05 0545 	add.w	r5, r5, r5, lsl #1
 800667e:	eba3 0901 	sub.w	r9, r3, r1
 8006682:	eb05 75d5 	add.w	r5, r5, r5, lsr #31
 8006686:	1c7b      	adds	r3, r7, #1
 8006688:	444b      	add	r3, r9
 800668a:	106d      	asrs	r5, r5, #1
 800668c:	429d      	cmp	r5, r3
 800668e:	bf38      	it	cc
 8006690:	461d      	movcc	r5, r3
 8006692:	0553      	lsls	r3, r2, #21
 8006694:	d527      	bpl.n	80066e6 <__ssputs_r+0x8e>
 8006696:	4629      	mov	r1, r5
 8006698:	f7ff fc44 	bl	8005f24 <_malloc_r>
 800669c:	4606      	mov	r6, r0
 800669e:	b360      	cbz	r0, 80066fa <__ssputs_r+0xa2>
 80066a0:	464a      	mov	r2, r9
 80066a2:	6921      	ldr	r1, [r4, #16]
 80066a4:	f7ff ff63 	bl	800656e <memcpy>
 80066a8:	89a3      	ldrh	r3, [r4, #12]
 80066aa:	f423 6390 	bic.w	r3, r3, #1152	@ 0x480
 80066ae:	f043 0380 	orr.w	r3, r3, #128	@ 0x80
 80066b2:	81a3      	strh	r3, [r4, #12]
 80066b4:	6126      	str	r6, [r4, #16]
 80066b6:	444e      	add	r6, r9
 80066b8:	6026      	str	r6, [r4, #0]
 80066ba:	463e      	mov	r6, r7
 80066bc:	6165      	str	r5, [r4, #20]
 80066be:	eba5 0509 	sub.w	r5, r5, r9
 80066c2:	60a5      	str	r5, [r4, #8]
 80066c4:	42be      	cmp	r6, r7
 80066c6:	d900      	bls.n	80066ca <__ssputs_r+0x72>
 80066c8:	463e      	mov	r6, r7
 80066ca:	4632      	mov	r2, r6
 80066cc:	4641      	mov	r1, r8
 80066ce:	6820      	ldr	r0, [r4, #0]
 80066d0:	f000 fb64 	bl	8006d9c <memmove>
 80066d4:	2000      	movs	r0, #0
 80066d6:	68a3      	ldr	r3, [r4, #8]
 80066d8:	1b9b      	subs	r3, r3, r6
 80066da:	60a3      	str	r3, [r4, #8]
 80066dc:	6823      	ldr	r3, [r4, #0]
 80066de:	4433      	add	r3, r6
 80066e0:	6023      	str	r3, [r4, #0]
 80066e2:	e8bd 87f0 	ldmia.w	sp!, {r4, r5, r6, r7, r8, r9, sl, pc}
 80066e6:	462a      	mov	r2, r5
 80066e8:	f000 fb87 	bl	8006dfa <_realloc_r>
 80066ec:	4606      	mov	r6, r0
 80066ee:	2800      	cmp	r0, #0
 80066f0:	d1e0      	bne.n	80066b4 <__ssputs_r+0x5c>
 80066f2:	4650      	mov	r0, sl
 80066f4:	6921      	ldr	r1, [r4, #16]
 80066f6:	f7ff ff67 	bl	80065c8 <_free_r>
 80066fa:	230c      	movs	r3, #12
 80066fc:	f8ca 3000 	str.w	r3, [sl]
 8006700:	89a3      	ldrh	r3, [r4, #12]
 8006702:	f04f 30ff 	mov.w	r0, #4294967295
 8006706:	f043 0340 	orr.w	r3, r3, #64	@ 0x40
 800670a:	81a3      	strh	r3, [r4, #12]
 800670c:	e7e9      	b.n	80066e2 <__ssputs_r+0x8a>
	...

08006710 <_svfiprintf_r>:
 8006710:	e92d 4ff0 	stmdb	sp!, {r4, r5, r6, r7, r8, r9, sl, fp, lr}
 8006714:	4698      	mov	r8, r3
 8006716:	898b      	ldrh	r3, [r1, #12]
 8006718:	4607      	mov	r7, r0
 800671a:	061b      	lsls	r3, r3, #24
 800671c:	460d      	mov	r5, r1
 800671e:	4614      	mov	r4, r2
 8006720:	b09d      	sub	sp, #116	@ 0x74
 8006722:	d510      	bpl.n	8006746 <_svfiprintf_r+0x36>
 8006724:	690b      	ldr	r3, [r1, #16]
 8006726:	b973      	cbnz	r3, 8006746 <_svfiprintf_r+0x36>
 8006728:	2140      	movs	r1, #64	@ 0x40
 800672a:	f7ff fbfb 	bl	8005f24 <_malloc_r>
 800672e:	6028      	str	r0, [r5, #0]
 8006730:	6128      	str	r0, [r5, #16]
 8006732:	b930      	cbnz	r0, 8006742 <_svfiprintf_r+0x32>
 8006734:	230c      	movs	r3, #12
 8006736:	603b      	str	r3, [r7, #0]
 8006738:	f04f 30ff 	mov.w	r0, #4294967295
 800673c:	b01d      	add	sp, #116	@ 0x74
 800673e:	e8bd 8ff0 	ldmia.w	sp!, {r4, r5, r6, r7, r8, r9, sl, fp, pc}
 8006742:	2340      	movs	r3, #64	@ 0x40
 8006744:	616b      	str	r3, [r5, #20]
 8006746:	2300      	movs	r3, #0
 8006748:	9309      	str	r3, [sp, #36]	@ 0x24
 800674a:	2320      	movs	r3, #32
 800674c:	f88d 3029 	strb.w	r3, [sp, #41]	@ 0x29
 8006750:	2330      	movs	r3, #48	@ 0x30
 8006752:	f04f 0901 	mov.w	r9, #1
 8006756:	f8cd 800c 	str.w	r8, [sp, #12]
 800675a:	f8df 8198 	ldr.w	r8, [pc, #408]	@ 80068f4 <_svfiprintf_r+0x1e4>
 800675e:	f88d 302a 	strb.w	r3, [sp, #42]	@ 0x2a
 8006762:	4623      	mov	r3, r4
 8006764:	469a      	mov	sl, r3
 8006766:	f813 2b01 	ldrb.w	r2, [r3], #1
 800676a:	b10a      	cbz	r2, 8006770 <_svfiprintf_r+0x60>
 800676c:	2a25      	cmp	r2, #37	@ 0x25
 800676e:	d1f9      	bne.n	8006764 <_svfiprintf_r+0x54>
 8006770:	ebba 0b04 	subs.w	fp, sl, r4
 8006774:	d00b      	beq.n	800678e <_svfiprintf_r+0x7e>
 8006776:	465b      	mov	r3, fp
 8006778:	4622      	mov	r2, r4
 800677a:	4629      	mov	r1, r5
 800677c:	4638      	mov	r0, r7
 800677e:	f7ff ff6b 	bl	8006658 <__ssputs_r>
 8006782:	3001      	adds	r0, #1
 8006784:	f000 80a7 	beq.w	80068d6 <_svfiprintf_r+0x1c6>
 8006788:	9a09      	ldr	r2, [sp, #36]	@ 0x24
 800678a:	445a      	add	r2, fp
 800678c:	9209      	str	r2, [sp, #36]	@ 0x24
 800678e:	f89a 3000 	ldrb.w	r3, [sl]
 8006792:	2b00      	cmp	r3, #0
 8006794:	f000 809f 	beq.w	80068d6 <_svfiprintf_r+0x1c6>
 8006798:	2300      	movs	r3, #0
 800679a:	f04f 32ff 	mov.w	r2, #4294967295
 800679e:	e9cd 2305 	strd	r2, r3, [sp, #20]
 80067a2:	f10a 0a01 	add.w	sl, sl, #1
 80067a6:	9304      	str	r3, [sp, #16]
 80067a8:	9307      	str	r3, [sp, #28]
 80067aa:	f88d 3053 	strb.w	r3, [sp, #83]	@ 0x53
 80067ae:	931a      	str	r3, [sp, #104]	@ 0x68
 80067b0:	4654      	mov	r4, sl
 80067b2:	2205      	movs	r2, #5
 80067b4:	f814 1b01 	ldrb.w	r1, [r4], #1
 80067b8:	484e      	ldr	r0, [pc, #312]	@ (80068f4 <_svfiprintf_r+0x1e4>)
 80067ba:	f000 fb09 	bl	8006dd0 <memchr>
 80067be:	9a04      	ldr	r2, [sp, #16]
 80067c0:	b9d8      	cbnz	r0, 80067fa <_svfiprintf_r+0xea>
 80067c2:	06d0      	lsls	r0, r2, #27
 80067c4:	bf44      	itt	mi
 80067c6:	2320      	movmi	r3, #32
 80067c8:	f88d 3053 	strbmi.w	r3, [sp, #83]	@ 0x53
 80067cc:	0711      	lsls	r1, r2, #28
 80067ce:	bf44      	itt	mi
 80067d0:	232b      	movmi	r3, #43	@ 0x2b
 80067d2:	f88d 3053 	strbmi.w	r3, [sp, #83]	@ 0x53
 80067d6:	f89a 3000 	ldrb.w	r3, [sl]
 80067da:	2b2a      	cmp	r3, #42	@ 0x2a
 80067dc:	d015      	beq.n	800680a <_svfiprintf_r+0xfa>
 80067de:	4654      	mov	r4, sl
 80067e0:	2000      	movs	r0, #0
 80067e2:	f04f 0c0a 	mov.w	ip, #10
 80067e6:	9a07      	ldr	r2, [sp, #28]
 80067e8:	4621      	mov	r1, r4
 80067ea:	f811 3b01 	ldrb.w	r3, [r1], #1
 80067ee:	3b30      	subs	r3, #48	@ 0x30
 80067f0:	2b09      	cmp	r3, #9
 80067f2:	d94b      	bls.n	800688c <_svfiprintf_r+0x17c>
 80067f4:	b1b0      	cbz	r0, 8006824 <_svfiprintf_r+0x114>
 80067f6:	9207      	str	r2, [sp, #28]
 80067f8:	e014      	b.n	8006824 <_svfiprintf_r+0x114>
 80067fa:	eba0 0308 	sub.w	r3, r0, r8
 80067fe:	fa09 f303 	lsl.w	r3, r9, r3
 8006802:	4313      	orrs	r3, r2
 8006804:	46a2      	mov	sl, r4
 8006806:	9304      	str	r3, [sp, #16]
 8006808:	e7d2      	b.n	80067b0 <_svfiprintf_r+0xa0>
 800680a:	9b03      	ldr	r3, [sp, #12]
 800680c:	1d19      	adds	r1, r3, #4
 800680e:	681b      	ldr	r3, [r3, #0]
 8006810:	9103      	str	r1, [sp, #12]
 8006812:	2b00      	cmp	r3, #0
 8006814:	bfbb      	ittet	lt
 8006816:	425b      	neglt	r3, r3
 8006818:	f042 0202 	orrlt.w	r2, r2, #2
 800681c:	9307      	strge	r3, [sp, #28]
 800681e:	9307      	strlt	r3, [sp, #28]
 8006820:	bfb8      	it	lt
 8006822:	9204      	strlt	r2, [sp, #16]
 8006824:	7823      	ldrb	r3, [r4, #0]
 8006826:	2b2e      	cmp	r3, #46	@ 0x2e
 8006828:	d10a      	bne.n	8006840 <_svfiprintf_r+0x130>
 800682a:	7863      	ldrb	r3, [r4, #1]
 800682c:	2b2a      	cmp	r3, #42	@ 0x2a
 800682e:	d132      	bne.n	8006896 <_svfiprintf_r+0x186>
 8006830:	9b03      	ldr	r3, [sp, #12]
 8006832:	3402      	adds	r4, #2
 8006834:	1d1a      	adds	r2, r3, #4
 8006836:	681b      	ldr	r3, [r3, #0]
 8006838:	9203      	str	r2, [sp, #12]
 800683a:	ea43 73e3 	orr.w	r3, r3, r3, asr #31
 800683e:	9305      	str	r3, [sp, #20]
 8006840:	f8df a0b4 	ldr.w	sl, [pc, #180]	@ 80068f8 <_svfiprintf_r+0x1e8>
 8006844:	2203      	movs	r2, #3
 8006846:	4650      	mov	r0, sl
 8006848:	7821      	ldrb	r1, [r4, #0]
 800684a:	f000 fac1 	bl	8006dd0 <memchr>
 800684e:	b138      	cbz	r0, 8006860 <_svfiprintf_r+0x150>
 8006850:	2240      	movs	r2, #64	@ 0x40
 8006852:	9b04      	ldr	r3, [sp, #16]
 8006854:	eba0 000a 	sub.w	r0, r0, sl
 8006858:	4082      	lsls	r2, r0
 800685a:	4313      	orrs	r3, r2
 800685c:	3401      	adds	r4, #1
 800685e:	9304      	str	r3, [sp, #16]
 8006860:	f814 1b01 	ldrb.w	r1, [r4], #1
 8006864:	2206      	movs	r2, #6
 8006866:	4825      	ldr	r0, [pc, #148]	@ (80068fc <_svfiprintf_r+0x1ec>)
 8006868:	f88d 1028 	strb.w	r1, [sp, #40]	@ 0x28
 800686c:	f000 fab0 	bl	8006dd0 <memchr>
 8006870:	2800      	cmp	r0, #0
 8006872:	d036      	beq.n	80068e2 <_svfiprintf_r+0x1d2>
 8006874:	4b22      	ldr	r3, [pc, #136]	@ (8006900 <_svfiprintf_r+0x1f0>)
 8006876:	bb1b      	cbnz	r3, 80068c0 <_svfiprintf_r+0x1b0>
 8006878:	9b03      	ldr	r3, [sp, #12]
 800687a:	3307      	adds	r3, #7
 800687c:	f023 0307 	bic.w	r3, r3, #7
 8006880:	3308      	adds	r3, #8
 8006882:	9303      	str	r3, [sp, #12]
 8006884:	9b09      	ldr	r3, [sp, #36]	@ 0x24
 8006886:	4433      	add	r3, r6
 8006888:	9309      	str	r3, [sp, #36]	@ 0x24
 800688a:	e76a      	b.n	8006762 <_svfiprintf_r+0x52>
 800688c:	460c      	mov	r4, r1
 800688e:	2001      	movs	r0, #1
 8006890:	fb0c 3202 	mla	r2, ip, r2, r3
 8006894:	e7a8      	b.n	80067e8 <_svfiprintf_r+0xd8>
 8006896:	2300      	movs	r3, #0
 8006898:	f04f 0c0a 	mov.w	ip, #10
 800689c:	4619      	mov	r1, r3
 800689e:	3401      	adds	r4, #1
 80068a0:	9305      	str	r3, [sp, #20]
 80068a2:	4620      	mov	r0, r4
 80068a4:	f810 2b01 	ldrb.w	r2, [r0], #1
 80068a8:	3a30      	subs	r2, #48	@ 0x30
 80068aa:	2a09      	cmp	r2, #9
 80068ac:	d903      	bls.n	80068b6 <_svfiprintf_r+0x1a6>
 80068ae:	2b00      	cmp	r3, #0
 80068b0:	d0c6      	beq.n	8006840 <_svfiprintf_r+0x130>
 80068b2:	9105      	str	r1, [sp, #20]
 80068b4:	e7c4      	b.n	8006840 <_svfiprintf_r+0x130>
 80068b6:	4604      	mov	r4, r0
 80068b8:	2301      	movs	r3, #1
 80068ba:	fb0c 2101 	mla	r1, ip, r1, r2
 80068be:	e7f0      	b.n	80068a2 <_svfiprintf_r+0x192>
 80068c0:	ab03      	add	r3, sp, #12
 80068c2:	9300      	str	r3, [sp, #0]
 80068c4:	462a      	mov	r2, r5
 80068c6:	4638      	mov	r0, r7
 80068c8:	4b0e      	ldr	r3, [pc, #56]	@ (8006904 <_svfiprintf_r+0x1f4>)
 80068ca:	a904      	add	r1, sp, #16
 80068cc:	f3af 8000 	nop.w
 80068d0:	1c42      	adds	r2, r0, #1
 80068d2:	4606      	mov	r6, r0
 80068d4:	d1d6      	bne.n	8006884 <_svfiprintf_r+0x174>
 80068d6:	89ab      	ldrh	r3, [r5, #12]
 80068d8:	065b      	lsls	r3, r3, #25
 80068da:	f53f af2d 	bmi.w	8006738 <_svfiprintf_r+0x28>
 80068de:	9809      	ldr	r0, [sp, #36]	@ 0x24
 80068e0:	e72c      	b.n	800673c <_svfiprintf_r+0x2c>
 80068e2:	ab03      	add	r3, sp, #12
 80068e4:	9300      	str	r3, [sp, #0]
 80068e6:	462a      	mov	r2, r5
 80068e8:	4638      	mov	r0, r7
 80068ea:	4b06      	ldr	r3, [pc, #24]	@ (8006904 <_svfiprintf_r+0x1f4>)
 80068ec:	a904      	add	r1, sp, #16
 80068ee:	f000 f87d 	bl	80069ec <_printf_i>
 80068f2:	e7ed      	b.n	80068d0 <_svfiprintf_r+0x1c0>
 80068f4:	08007676 	.word	0x08007676
 80068f8:	0800767c 	.word	0x0800767c
 80068fc:	08007680 	.word	0x08007680
 8006900:	00000000 	.word	0x00000000
 8006904:	08006659 	.word	0x08006659

08006908 <_printf_common>:
 8006908:	e92d 47f0 	stmdb	sp!, {r4, r5, r6, r7, r8, r9, sl, lr}
 800690c:	4616      	mov	r6, r2
 800690e:	4698      	mov	r8, r3
 8006910:	688a      	ldr	r2, [r1, #8]
 8006912:	690b      	ldr	r3, [r1, #16]
 8006914:	4607      	mov	r7, r0
 8006916:	4293      	cmp	r3, r2
 8006918:	bfb8      	it	lt
 800691a:	4613      	movlt	r3, r2
 800691c:	6033      	str	r3, [r6, #0]
 800691e:	f891 2043 	ldrb.w	r2, [r1, #67]	@ 0x43
 8006922:	460c      	mov	r4, r1
 8006924:	f8dd 9020 	ldr.w	r9, [sp, #32]
 8006928:	b10a      	cbz	r2, 800692e <_printf_common+0x26>
 800692a:	3301      	adds	r3, #1
 800692c:	6033      	str	r3, [r6, #0]
 800692e:	6823      	ldr	r3, [r4, #0]
 8006930:	0699      	lsls	r1, r3, #26
 8006932:	bf42      	ittt	mi
 8006934:	6833      	ldrmi	r3, [r6, #0]
 8006936:	3302      	addmi	r3, #2
 8006938:	6033      	strmi	r3, [r6, #0]
 800693a:	6825      	ldr	r5, [r4, #0]
 800693c:	f015 0506 	ands.w	r5, r5, #6
 8006940:	d106      	bne.n	8006950 <_printf_common+0x48>
 8006942:	f104 0a19 	add.w	sl, r4, #25
 8006946:	68e3      	ldr	r3, [r4, #12]
 8006948:	6832      	ldr	r2, [r6, #0]
 800694a:	1a9b      	subs	r3, r3, r2
 800694c:	42ab      	cmp	r3, r5
 800694e:	dc2b      	bgt.n	80069a8 <_printf_common+0xa0>
 8006950:	f894 3043 	ldrb.w	r3, [r4, #67]	@ 0x43
 8006954:	6822      	ldr	r2, [r4, #0]
 8006956:	3b00      	subs	r3, #0
 8006958:	bf18      	it	ne
 800695a:	2301      	movne	r3, #1
 800695c:	0692      	lsls	r2, r2, #26
 800695e:	d430      	bmi.n	80069c2 <_printf_common+0xba>
 8006960:	4641      	mov	r1, r8
 8006962:	4638      	mov	r0, r7
 8006964:	f104 0243 	add.w	r2, r4, #67	@ 0x43
 8006968:	47c8      	blx	r9
 800696a:	3001      	adds	r0, #1
 800696c:	d023      	beq.n	80069b6 <_printf_common+0xae>
 800696e:	6823      	ldr	r3, [r4, #0]
 8006970:	6922      	ldr	r2, [r4, #16]
 8006972:	f003 0306 	and.w	r3, r3, #6
 8006976:	2b04      	cmp	r3, #4
 8006978:	bf14      	ite	ne
 800697a:	2500      	movne	r5, #0
 800697c:	6833      	ldreq	r3, [r6, #0]
 800697e:	f04f 0600 	mov.w	r6, #0
 8006982:	bf08      	it	eq
 8006984:	68e5      	ldreq	r5, [r4, #12]
 8006986:	f104 041a 	add.w	r4, r4, #26
 800698a:	bf08      	it	eq
 800698c:	1aed      	subeq	r5, r5, r3
 800698e:	f854 3c12 	ldr.w	r3, [r4, #-18]
 8006992:	bf08      	it	eq
 8006994:	ea25 75e5 	biceq.w	r5, r5, r5, asr #31
 8006998:	4293      	cmp	r3, r2
 800699a:	bfc4      	itt	gt
 800699c:	1a9b      	subgt	r3, r3, r2
 800699e:	18ed      	addgt	r5, r5, r3
 80069a0:	42b5      	cmp	r5, r6
 80069a2:	d11a      	bne.n	80069da <_printf_common+0xd2>
 80069a4:	2000      	movs	r0, #0
 80069a6:	e008      	b.n	80069ba <_printf_common+0xb2>
 80069a8:	2301      	movs	r3, #1
 80069aa:	4652      	mov	r2, sl
 80069ac:	4641      	mov	r1, r8
 80069ae:	4638      	mov	r0, r7
 80069b0:	47c8      	blx	r9
 80069b2:	3001      	adds	r0, #1
 80069b4:	d103      	bne.n	80069be <_printf_common+0xb6>
 80069b6:	f04f 30ff 	mov.w	r0, #4294967295
 80069ba:	e8bd 87f0 	ldmia.w	sp!, {r4, r5, r6, r7, r8, r9, sl, pc}
 80069be:	3501      	adds	r5, #1
 80069c0:	e7c1      	b.n	8006946 <_printf_common+0x3e>
 80069c2:	2030      	movs	r0, #48	@ 0x30
 80069c4:	18e1      	adds	r1, r4, r3
 80069c6:	f881 0043 	strb.w	r0, [r1, #67]	@ 0x43
 80069ca:	1c5a      	adds	r2, r3, #1
 80069cc:	f894 1045 	ldrb.w	r1, [r4, #69]	@ 0x45
 80069d0:	4422      	add	r2, r4
 80069d2:	3302      	adds	r3, #2
 80069d4:	f882 1043 	strb.w	r1, [r2, #67]	@ 0x43
 80069d8:	e7c2      	b.n	8006960 <_printf_common+0x58>
 80069da:	2301      	movs	r3, #1
 80069dc:	4622      	mov	r2, r4
 80069de:	4641      	mov	r1, r8
 80069e0:	4638      	mov	r0, r7
 80069e2:	47c8      	blx	r9
 80069e4:	3001      	adds	r0, #1
 80069e6:	d0e6      	beq.n	80069b6 <_printf_common+0xae>
 80069e8:	3601      	adds	r6, #1
 80069ea:	e7d9      	b.n	80069a0 <_printf_common+0x98>

080069ec <_printf_i>:
 80069ec:	e92d 47ff 	stmdb	sp!, {r0, r1, r2, r3, r4, r5, r6, r7, r8, r9, sl, lr}
 80069f0:	7e0f      	ldrb	r7, [r1, #24]
 80069f2:	4691      	mov	r9, r2
 80069f4:	2f78      	cmp	r7, #120	@ 0x78
 80069f6:	4680      	mov	r8, r0
 80069f8:	460c      	mov	r4, r1
 80069fa:	469a      	mov	sl, r3
 80069fc:	9e0c      	ldr	r6, [sp, #48]	@ 0x30
 80069fe:	f101 0243 	add.w	r2, r1, #67	@ 0x43
 8006a02:	d807      	bhi.n	8006a14 <_printf_i+0x28>
 8006a04:	2f62      	cmp	r7, #98	@ 0x62
 8006a06:	d80a      	bhi.n	8006a1e <_printf_i+0x32>
 8006a08:	2f00      	cmp	r7, #0
 8006a0a:	f000 80d1 	beq.w	8006bb0 <_printf_i+0x1c4>
 8006a0e:	2f58      	cmp	r7, #88	@ 0x58
 8006a10:	f000 80b8 	beq.w	8006b84 <_printf_i+0x198>
 8006a14:	f104 0642 	add.w	r6, r4, #66	@ 0x42
 8006a18:	f884 7042 	strb.w	r7, [r4, #66]	@ 0x42
 8006a1c:	e03a      	b.n	8006a94 <_printf_i+0xa8>
 8006a1e:	f1a7 0363 	sub.w	r3, r7, #99	@ 0x63
 8006a22:	2b15      	cmp	r3, #21
 8006a24:	d8f6      	bhi.n	8006a14 <_printf_i+0x28>
 8006a26:	a101      	add	r1, pc, #4	@ (adr r1, 8006a2c <_printf_i+0x40>)
 8006a28:	f851 f023 	ldr.w	pc, [r1, r3, lsl #2]
 8006a2c:	08006a85 	.word	0x08006a85
 8006a30:	08006a99 	.word	0x08006a99
 8006a34:	08006a15 	.word	0x08006a15
 8006a38:	08006a15 	.word	0x08006a15
 8006a3c:	08006a15 	.word	0x08006a15
 8006a40:	08006a15 	.word	0x08006a15
 8006a44:	08006a99 	.word	0x08006a99
 8006a48:	08006a15 	.word	0x08006a15
 8006a4c:	08006a15 	.word	0x08006a15
 8006a50:	08006a15 	.word	0x08006a15
 8006a54:	08006a15 	.word	0x08006a15
 8006a58:	08006b97 	.word	0x08006b97
 8006a5c:	08006ac3 	.word	0x08006ac3
 8006a60:	08006b51 	.word	0x08006b51
 8006a64:	08006a15 	.word	0x08006a15
 8006a68:	08006a15 	.word	0x08006a15
 8006a6c:	08006bb9 	.word	0x08006bb9
 8006a70:	08006a15 	.word	0x08006a15
 8006a74:	08006ac3 	.word	0x08006ac3
 8006a78:	08006a15 	.word	0x08006a15
 8006a7c:	08006a15 	.word	0x08006a15
 8006a80:	08006b59 	.word	0x08006b59
 8006a84:	6833      	ldr	r3, [r6, #0]
 8006a86:	1d1a      	adds	r2, r3, #4
 8006a88:	681b      	ldr	r3, [r3, #0]
 8006a8a:	6032      	str	r2, [r6, #0]
 8006a8c:	f104 0642 	add.w	r6, r4, #66	@ 0x42
 8006a90:	f884 3042 	strb.w	r3, [r4, #66]	@ 0x42
 8006a94:	2301      	movs	r3, #1
 8006a96:	e09c      	b.n	8006bd2 <_printf_i+0x1e6>
 8006a98:	6833      	ldr	r3, [r6, #0]
 8006a9a:	6820      	ldr	r0, [r4, #0]
 8006a9c:	1d19      	adds	r1, r3, #4
 8006a9e:	6031      	str	r1, [r6, #0]
 8006aa0:	0606      	lsls	r6, r0, #24
 8006aa2:	d501      	bpl.n	8006aa8 <_printf_i+0xbc>
 8006aa4:	681d      	ldr	r5, [r3, #0]
 8006aa6:	e003      	b.n	8006ab0 <_printf_i+0xc4>
 8006aa8:	0645      	lsls	r5, r0, #25
 8006aaa:	d5fb      	bpl.n	8006aa4 <_printf_i+0xb8>
 8006aac:	f9b3 5000 	ldrsh.w	r5, [r3]
 8006ab0:	2d00      	cmp	r5, #0
 8006ab2:	da03      	bge.n	8006abc <_printf_i+0xd0>
 8006ab4:	232d      	movs	r3, #45	@ 0x2d
 8006ab6:	426d      	negs	r5, r5
 8006ab8:	f884 3043 	strb.w	r3, [r4, #67]	@ 0x43
 8006abc:	230a      	movs	r3, #10
 8006abe:	4858      	ldr	r0, [pc, #352]	@ (8006c20 <_printf_i+0x234>)
 8006ac0:	e011      	b.n	8006ae6 <_printf_i+0xfa>
 8006ac2:	6821      	ldr	r1, [r4, #0]
 8006ac4:	6833      	ldr	r3, [r6, #0]
 8006ac6:	0608      	lsls	r0, r1, #24
 8006ac8:	f853 5b04 	ldr.w	r5, [r3], #4
 8006acc:	d402      	bmi.n	8006ad4 <_printf_i+0xe8>
 8006ace:	0649      	lsls	r1, r1, #25
 8006ad0:	bf48      	it	mi
 8006ad2:	b2ad      	uxthmi	r5, r5
 8006ad4:	2f6f      	cmp	r7, #111	@ 0x6f
 8006ad6:	6033      	str	r3, [r6, #0]
 8006ad8:	bf14      	ite	ne
 8006ada:	230a      	movne	r3, #10
 8006adc:	2308      	moveq	r3, #8
 8006ade:	4850      	ldr	r0, [pc, #320]	@ (8006c20 <_printf_i+0x234>)
 8006ae0:	2100      	movs	r1, #0
 8006ae2:	f884 1043 	strb.w	r1, [r4, #67]	@ 0x43
 8006ae6:	6866      	ldr	r6, [r4, #4]
 8006ae8:	2e00      	cmp	r6, #0
 8006aea:	60a6      	str	r6, [r4, #8]
 8006aec:	db05      	blt.n	8006afa <_printf_i+0x10e>
 8006aee:	6821      	ldr	r1, [r4, #0]
 8006af0:	432e      	orrs	r6, r5
 8006af2:	f021 0104 	bic.w	r1, r1, #4
 8006af6:	6021      	str	r1, [r4, #0]
 8006af8:	d04b      	beq.n	8006b92 <_printf_i+0x1a6>
 8006afa:	4616      	mov	r6, r2
 8006afc:	fbb5 f1f3 	udiv	r1, r5, r3
 8006b00:	fb03 5711 	mls	r7, r3, r1, r5
 8006b04:	5dc7      	ldrb	r7, [r0, r7]
 8006b06:	f806 7d01 	strb.w	r7, [r6, #-1]!
 8006b0a:	462f      	mov	r7, r5
 8006b0c:	42bb      	cmp	r3, r7
 8006b0e:	460d      	mov	r5, r1
 8006b10:	d9f4      	bls.n	8006afc <_printf_i+0x110>
 8006b12:	2b08      	cmp	r3, #8
 8006b14:	d10b      	bne.n	8006b2e <_printf_i+0x142>
 8006b16:	6823      	ldr	r3, [r4, #0]
 8006b18:	07df      	lsls	r7, r3, #31
 8006b1a:	d508      	bpl.n	8006b2e <_printf_i+0x142>
 8006b1c:	6923      	ldr	r3, [r4, #16]
 8006b1e:	6861      	ldr	r1, [r4, #4]
 8006b20:	4299      	cmp	r1, r3
 8006b22:	bfde      	ittt	le
 8006b24:	2330      	movle	r3, #48	@ 0x30
 8006b26:	f806 3c01 	strble.w	r3, [r6, #-1]
 8006b2a:	f106 36ff 	addle.w	r6, r6, #4294967295
 8006b2e:	1b92      	subs	r2, r2, r6
 8006b30:	6122      	str	r2, [r4, #16]
 8006b32:	464b      	mov	r3, r9
 8006b34:	4621      	mov	r1, r4
 8006b36:	4640      	mov	r0, r8
 8006b38:	f8cd a000 	str.w	sl, [sp]
 8006b3c:	aa03      	add	r2, sp, #12
 8006b3e:	f7ff fee3 	bl	8006908 <_printf_common>
 8006b42:	3001      	adds	r0, #1
 8006b44:	d14a      	bne.n	8006bdc <_printf_i+0x1f0>
 8006b46:	f04f 30ff 	mov.w	r0, #4294967295
 8006b4a:	b004      	add	sp, #16
 8006b4c:	e8bd 87f0 	ldmia.w	sp!, {r4, r5, r6, r7, r8, r9, sl, pc}
 8006b50:	6823      	ldr	r3, [r4, #0]
 8006b52:	f043 0320 	orr.w	r3, r3, #32
 8006b56:	6023      	str	r3, [r4, #0]
 8006b58:	2778      	movs	r7, #120	@ 0x78
 8006b5a:	4832      	ldr	r0, [pc, #200]	@ (8006c24 <_printf_i+0x238>)
 8006b5c:	f884 7045 	strb.w	r7, [r4, #69]	@ 0x45
 8006b60:	6823      	ldr	r3, [r4, #0]
 8006b62:	6831      	ldr	r1, [r6, #0]
 8006b64:	061f      	lsls	r7, r3, #24
 8006b66:	f851 5b04 	ldr.w	r5, [r1], #4
 8006b6a:	d402      	bmi.n	8006b72 <_printf_i+0x186>
 8006b6c:	065f      	lsls	r7, r3, #25
 8006b6e:	bf48      	it	mi
 8006b70:	b2ad      	uxthmi	r5, r5
 8006b72:	6031      	str	r1, [r6, #0]
 8006b74:	07d9      	lsls	r1, r3, #31
 8006b76:	bf44      	itt	mi
 8006b78:	f043 0320 	orrmi.w	r3, r3, #32
 8006b7c:	6023      	strmi	r3, [r4, #0]
 8006b7e:	b11d      	cbz	r5, 8006b88 <_printf_i+0x19c>
 8006b80:	2310      	movs	r3, #16
 8006b82:	e7ad      	b.n	8006ae0 <_printf_i+0xf4>
 8006b84:	4826      	ldr	r0, [pc, #152]	@ (8006c20 <_printf_i+0x234>)
 8006b86:	e7e9      	b.n	8006b5c <_printf_i+0x170>
 8006b88:	6823      	ldr	r3, [r4, #0]
 8006b8a:	f023 0320 	bic.w	r3, r3, #32
 8006b8e:	6023      	str	r3, [r4, #0]
 8006b90:	e7f6      	b.n	8006b80 <_printf_i+0x194>
 8006b92:	4616      	mov	r6, r2
 8006b94:	e7bd      	b.n	8006b12 <_printf_i+0x126>
 8006b96:	6833      	ldr	r3, [r6, #0]
 8006b98:	6825      	ldr	r5, [r4, #0]
 8006b9a:	1d18      	adds	r0, r3, #4
 8006b9c:	6961      	ldr	r1, [r4, #20]
 8006b9e:	6030      	str	r0, [r6, #0]
 8006ba0:	062e      	lsls	r6, r5, #24
 8006ba2:	681b      	ldr	r3, [r3, #0]
 8006ba4:	d501      	bpl.n	8006baa <_printf_i+0x1be>
 8006ba6:	6019      	str	r1, [r3, #0]
 8006ba8:	e002      	b.n	8006bb0 <_printf_i+0x1c4>
 8006baa:	0668      	lsls	r0, r5, #25
 8006bac:	d5fb      	bpl.n	8006ba6 <_printf_i+0x1ba>
 8006bae:	8019      	strh	r1, [r3, #0]
 8006bb0:	2300      	movs	r3, #0
 8006bb2:	4616      	mov	r6, r2
 8006bb4:	6123      	str	r3, [r4, #16]
 8006bb6:	e7bc      	b.n	8006b32 <_printf_i+0x146>
 8006bb8:	6833      	ldr	r3, [r6, #0]
 8006bba:	2100      	movs	r1, #0
 8006bbc:	1d1a      	adds	r2, r3, #4
 8006bbe:	6032      	str	r2, [r6, #0]
 8006bc0:	681e      	ldr	r6, [r3, #0]
 8006bc2:	6862      	ldr	r2, [r4, #4]
 8006bc4:	4630      	mov	r0, r6
 8006bc6:	f000 f903 	bl	8006dd0 <memchr>
 8006bca:	b108      	cbz	r0, 8006bd0 <_printf_i+0x1e4>
 8006bcc:	1b80      	subs	r0, r0, r6
 8006bce:	6060      	str	r0, [r4, #4]
 8006bd0:	6863      	ldr	r3, [r4, #4]
 8006bd2:	6123      	str	r3, [r4, #16]
 8006bd4:	2300      	movs	r3, #0
 8006bd6:	f884 3043 	strb.w	r3, [r4, #67]	@ 0x43
 8006bda:	e7aa      	b.n	8006b32 <_printf_i+0x146>
 8006bdc:	4632      	mov	r2, r6
 8006bde:	4649      	mov	r1, r9
 8006be0:	4640      	mov	r0, r8
 8006be2:	6923      	ldr	r3, [r4, #16]
 8006be4:	47d0      	blx	sl
 8006be6:	3001      	adds	r0, #1
 8006be8:	d0ad      	beq.n	8006b46 <_printf_i+0x15a>
 8006bea:	6823      	ldr	r3, [r4, #0]
 8006bec:	079b      	lsls	r3, r3, #30
 8006bee:	d413      	bmi.n	8006c18 <_printf_i+0x22c>
 8006bf0:	68e0      	ldr	r0, [r4, #12]
 8006bf2:	9b03      	ldr	r3, [sp, #12]
 8006bf4:	4298      	cmp	r0, r3
 8006bf6:	bfb8      	it	lt
 8006bf8:	4618      	movlt	r0, r3
 8006bfa:	e7a6      	b.n	8006b4a <_printf_i+0x15e>
 8006bfc:	2301      	movs	r3, #1
 8006bfe:	4632      	mov	r2, r6
 8006c00:	4649      	mov	r1, r9
 8006c02:	4640      	mov	r0, r8
 8006c04:	47d0      	blx	sl
 8006c06:	3001      	adds	r0, #1
 8006c08:	d09d      	beq.n	8006b46 <_printf_i+0x15a>
 8006c0a:	3501      	adds	r5, #1
 8006c0c:	68e3      	ldr	r3, [r4, #12]
 8006c0e:	9903      	ldr	r1, [sp, #12]
 8006c10:	1a5b      	subs	r3, r3, r1
 8006c12:	42ab      	cmp	r3, r5
 8006c14:	dcf2      	bgt.n	8006bfc <_printf_i+0x210>
 8006c16:	e7eb      	b.n	8006bf0 <_printf_i+0x204>
 8006c18:	2500      	movs	r5, #0
 8006c1a:	f104 0619 	add.w	r6, r4, #25
 8006c1e:	e7f5      	b.n	8006c0c <_printf_i+0x220>
 8006c20:	08007687 	.word	0x08007687
 8006c24:	08007698 	.word	0x08007698

08006c28 <__sflush_r>:
 8006c28:	f9b1 200c 	ldrsh.w	r2, [r1, #12]
 8006c2c:	b5f8      	push	{r3, r4, r5, r6, r7, lr}
 8006c2e:	0716      	lsls	r6, r2, #28
 8006c30:	4605      	mov	r5, r0
 8006c32:	460c      	mov	r4, r1
 8006c34:	d454      	bmi.n	8006ce0 <__sflush_r+0xb8>
 8006c36:	684b      	ldr	r3, [r1, #4]
 8006c38:	2b00      	cmp	r3, #0
 8006c3a:	dc02      	bgt.n	8006c42 <__sflush_r+0x1a>
 8006c3c:	6c0b      	ldr	r3, [r1, #64]	@ 0x40
 8006c3e:	2b00      	cmp	r3, #0
 8006c40:	dd48      	ble.n	8006cd4 <__sflush_r+0xac>
 8006c42:	6ae6      	ldr	r6, [r4, #44]	@ 0x2c
 8006c44:	2e00      	cmp	r6, #0
 8006c46:	d045      	beq.n	8006cd4 <__sflush_r+0xac>
 8006c48:	2300      	movs	r3, #0
 8006c4a:	f412 5280 	ands.w	r2, r2, #4096	@ 0x1000
 8006c4e:	682f      	ldr	r7, [r5, #0]
 8006c50:	6a21      	ldr	r1, [r4, #32]
 8006c52:	602b      	str	r3, [r5, #0]
 8006c54:	d030      	beq.n	8006cb8 <__sflush_r+0x90>
 8006c56:	6d62      	ldr	r2, [r4, #84]	@ 0x54
 8006c58:	89a3      	ldrh	r3, [r4, #12]
 8006c5a:	0759      	lsls	r1, r3, #29
 8006c5c:	d505      	bpl.n	8006c6a <__sflush_r+0x42>
 8006c5e:	6863      	ldr	r3, [r4, #4]
 8006c60:	1ad2      	subs	r2, r2, r3
 8006c62:	6b63      	ldr	r3, [r4, #52]	@ 0x34
 8006c64:	b10b      	cbz	r3, 8006c6a <__sflush_r+0x42>
 8006c66:	6c23      	ldr	r3, [r4, #64]	@ 0x40
 8006c68:	1ad2      	subs	r2, r2, r3
 8006c6a:	2300      	movs	r3, #0
 8006c6c:	4628      	mov	r0, r5
 8006c6e:	6ae6      	ldr	r6, [r4, #44]	@ 0x2c
 8006c70:	6a21      	ldr	r1, [r4, #32]
 8006c72:	47b0      	blx	r6
 8006c74:	1c43      	adds	r3, r0, #1
 8006c76:	89a3      	ldrh	r3, [r4, #12]
 8006c78:	d106      	bne.n	8006c88 <__sflush_r+0x60>
 8006c7a:	6829      	ldr	r1, [r5, #0]
 8006c7c:	291d      	cmp	r1, #29
 8006c7e:	d82b      	bhi.n	8006cd8 <__sflush_r+0xb0>
 8006c80:	4a28      	ldr	r2, [pc, #160]	@ (8006d24 <__sflush_r+0xfc>)
 8006c82:	40ca      	lsrs	r2, r1
 8006c84:	07d6      	lsls	r6, r2, #31
 8006c86:	d527      	bpl.n	8006cd8 <__sflush_r+0xb0>
 8006c88:	2200      	movs	r2, #0
 8006c8a:	6062      	str	r2, [r4, #4]
 8006c8c:	6922      	ldr	r2, [r4, #16]
 8006c8e:	04d9      	lsls	r1, r3, #19
 8006c90:	6022      	str	r2, [r4, #0]
 8006c92:	d504      	bpl.n	8006c9e <__sflush_r+0x76>
 8006c94:	1c42      	adds	r2, r0, #1
 8006c96:	d101      	bne.n	8006c9c <__sflush_r+0x74>
 8006c98:	682b      	ldr	r3, [r5, #0]
 8006c9a:	b903      	cbnz	r3, 8006c9e <__sflush_r+0x76>
 8006c9c:	6560      	str	r0, [r4, #84]	@ 0x54
 8006c9e:	6b61      	ldr	r1, [r4, #52]	@ 0x34
 8006ca0:	602f      	str	r7, [r5, #0]
 8006ca2:	b1b9      	cbz	r1, 8006cd4 <__sflush_r+0xac>
 8006ca4:	f104 0344 	add.w	r3, r4, #68	@ 0x44
 8006ca8:	4299      	cmp	r1, r3
 8006caa:	d002      	beq.n	8006cb2 <__sflush_r+0x8a>
 8006cac:	4628      	mov	r0, r5
 8006cae:	f7ff fc8b 	bl	80065c8 <_free_r>
 8006cb2:	2300      	movs	r3, #0
 8006cb4:	6363      	str	r3, [r4, #52]	@ 0x34
 8006cb6:	e00d      	b.n	8006cd4 <__sflush_r+0xac>
 8006cb8:	2301      	movs	r3, #1
 8006cba:	4628      	mov	r0, r5
 8006cbc:	47b0      	blx	r6
 8006cbe:	4602      	mov	r2, r0
 8006cc0:	1c50      	adds	r0, r2, #1
 8006cc2:	d1c9      	bne.n	8006c58 <__sflush_r+0x30>
 8006cc4:	682b      	ldr	r3, [r5, #0]
 8006cc6:	2b00      	cmp	r3, #0
 8006cc8:	d0c6      	beq.n	8006c58 <__sflush_r+0x30>
 8006cca:	2b1d      	cmp	r3, #29
 8006ccc:	d001      	beq.n	8006cd2 <__sflush_r+0xaa>
 8006cce:	2b16      	cmp	r3, #22
 8006cd0:	d11d      	bne.n	8006d0e <__sflush_r+0xe6>
 8006cd2:	602f      	str	r7, [r5, #0]
 8006cd4:	2000      	movs	r0, #0
 8006cd6:	e021      	b.n	8006d1c <__sflush_r+0xf4>
 8006cd8:	f043 0340 	orr.w	r3, r3, #64	@ 0x40
 8006cdc:	b21b      	sxth	r3, r3
 8006cde:	e01a      	b.n	8006d16 <__sflush_r+0xee>
 8006ce0:	690f      	ldr	r7, [r1, #16]
 8006ce2:	2f00      	cmp	r7, #0
 8006ce4:	d0f6      	beq.n	8006cd4 <__sflush_r+0xac>
 8006ce6:	0793      	lsls	r3, r2, #30
 8006ce8:	bf18      	it	ne
 8006cea:	2300      	movne	r3, #0
 8006cec:	680e      	ldr	r6, [r1, #0]
 8006cee:	bf08      	it	eq
 8006cf0:	694b      	ldreq	r3, [r1, #20]
 8006cf2:	1bf6      	subs	r6, r6, r7
 8006cf4:	600f      	str	r7, [r1, #0]
 8006cf6:	608b      	str	r3, [r1, #8]
 8006cf8:	2e00      	cmp	r6, #0
 8006cfa:	ddeb      	ble.n	8006cd4 <__sflush_r+0xac>
 8006cfc:	4633      	mov	r3, r6
 8006cfe:	463a      	mov	r2, r7
 8006d00:	4628      	mov	r0, r5
 8006d02:	6a21      	ldr	r1, [r4, #32]
 8006d04:	f8d4 c028 	ldr.w	ip, [r4, #40]	@ 0x28
 8006d08:	47e0      	blx	ip
 8006d0a:	2800      	cmp	r0, #0
 8006d0c:	dc07      	bgt.n	8006d1e <__sflush_r+0xf6>
 8006d0e:	f9b4 300c 	ldrsh.w	r3, [r4, #12]
 8006d12:	f043 0340 	orr.w	r3, r3, #64	@ 0x40
 8006d16:	f04f 30ff 	mov.w	r0, #4294967295
 8006d1a:	81a3      	strh	r3, [r4, #12]
 8006d1c:	bdf8      	pop	{r3, r4, r5, r6, r7, pc}
 8006d1e:	4407      	add	r7, r0
 8006d20:	1a36      	subs	r6, r6, r0
 8006d22:	e7e9      	b.n	8006cf8 <__sflush_r+0xd0>
 8006d24:	20400001 	.word	0x20400001

08006d28 <_fflush_r>:
 8006d28:	b538      	push	{r3, r4, r5, lr}
 8006d2a:	690b      	ldr	r3, [r1, #16]
 8006d2c:	4605      	mov	r5, r0
 8006d2e:	460c      	mov	r4, r1
 8006d30:	b913      	cbnz	r3, 8006d38 <_fflush_r+0x10>
 8006d32:	2500      	movs	r5, #0
 8006d34:	4628      	mov	r0, r5
 8006d36:	bd38      	pop	{r3, r4, r5, pc}
 8006d38:	b118      	cbz	r0, 8006d42 <_fflush_r+0x1a>
 8006d3a:	6a03      	ldr	r3, [r0, #32]
 8006d3c:	b90b      	cbnz	r3, 8006d42 <_fflush_r+0x1a>
 8006d3e:	f7ff fa09 	bl	8006154 <__sinit>
 8006d42:	f9b4 300c 	ldrsh.w	r3, [r4, #12]
 8006d46:	2b00      	cmp	r3, #0
 8006d48:	d0f3      	beq.n	8006d32 <_fflush_r+0xa>
 8006d4a:	6e62      	ldr	r2, [r4, #100]	@ 0x64
 8006d4c:	07d0      	lsls	r0, r2, #31
 8006d4e:	d404      	bmi.n	8006d5a <_fflush_r+0x32>
 8006d50:	0599      	lsls	r1, r3, #22
 8006d52:	d402      	bmi.n	8006d5a <_fflush_r+0x32>
 8006d54:	6da0      	ldr	r0, [r4, #88]	@ 0x58
 8006d56:	f7ff fc00 	bl	800655a <__retarget_lock_acquire_recursive>
 8006d5a:	4628      	mov	r0, r5
 8006d5c:	4621      	mov	r1, r4
 8006d5e:	f7ff ff63 	bl	8006c28 <__sflush_r>
 8006d62:	6e63      	ldr	r3, [r4, #100]	@ 0x64
 8006d64:	4605      	mov	r5, r0
 8006d66:	07da      	lsls	r2, r3, #31
 8006d68:	d4e4      	bmi.n	8006d34 <_fflush_r+0xc>
 8006d6a:	89a3      	ldrh	r3, [r4, #12]
 8006d6c:	059b      	lsls	r3, r3, #22
 8006d6e:	d4e1      	bmi.n	8006d34 <_fflush_r+0xc>
 8006d70:	6da0      	ldr	r0, [r4, #88]	@ 0x58
 8006d72:	f7ff fbf3 	bl	800655c <__retarget_lock_release_recursive>
 8006d76:	e7dd      	b.n	8006d34 <_fflush_r+0xc>

08006d78 <fiprintf>:
 8006d78:	b40e      	push	{r1, r2, r3}
 8006d7a:	b503      	push	{r0, r1, lr}
 8006d7c:	4601      	mov	r1, r0
 8006d7e:	ab03      	add	r3, sp, #12
 8006d80:	4805      	ldr	r0, [pc, #20]	@ (8006d98 <fiprintf+0x20>)
 8006d82:	f853 2b04 	ldr.w	r2, [r3], #4
 8006d86:	6800      	ldr	r0, [r0, #0]
 8006d88:	9301      	str	r3, [sp, #4]
 8006d8a:	f000 f88b 	bl	8006ea4 <_vfiprintf_r>
 8006d8e:	b002      	add	sp, #8
 8006d90:	f85d eb04 	ldr.w	lr, [sp], #4
 8006d94:	b003      	add	sp, #12
 8006d96:	4770      	bx	lr
 8006d98:	2000004c 	.word	0x2000004c

08006d9c <memmove>:
 8006d9c:	4288      	cmp	r0, r1
 8006d9e:	b510      	push	{r4, lr}
 8006da0:	eb01 0402 	add.w	r4, r1, r2
 8006da4:	d902      	bls.n	8006dac <memmove+0x10>
 8006da6:	4284      	cmp	r4, r0
 8006da8:	4623      	mov	r3, r4
 8006daa:	d807      	bhi.n	8006dbc <memmove+0x20>
 8006dac:	1e43      	subs	r3, r0, #1
 8006dae:	42a1      	cmp	r1, r4
 8006db0:	d008      	beq.n	8006dc4 <memmove+0x28>
 8006db2:	f811 2b01 	ldrb.w	r2, [r1], #1
 8006db6:	f803 2f01 	strb.w	r2, [r3, #1]!
 8006dba:	e7f8      	b.n	8006dae <memmove+0x12>
 8006dbc:	4601      	mov	r1, r0
 8006dbe:	4402      	add	r2, r0
 8006dc0:	428a      	cmp	r2, r1
 8006dc2:	d100      	bne.n	8006dc6 <memmove+0x2a>
 8006dc4:	bd10      	pop	{r4, pc}
 8006dc6:	f813 4d01 	ldrb.w	r4, [r3, #-1]!
 8006dca:	f802 4d01 	strb.w	r4, [r2, #-1]!
 8006dce:	e7f7      	b.n	8006dc0 <memmove+0x24>

08006dd0 <memchr>:
 8006dd0:	4603      	mov	r3, r0
 8006dd2:	b510      	push	{r4, lr}
 8006dd4:	b2c9      	uxtb	r1, r1
 8006dd6:	4402      	add	r2, r0
 8006dd8:	4293      	cmp	r3, r2
 8006dda:	4618      	mov	r0, r3
 8006ddc:	d101      	bne.n	8006de2 <memchr+0x12>
 8006dde:	2000      	movs	r0, #0
 8006de0:	e003      	b.n	8006dea <memchr+0x1a>
 8006de2:	7804      	ldrb	r4, [r0, #0]
 8006de4:	3301      	adds	r3, #1
 8006de6:	428c      	cmp	r4, r1
 8006de8:	d1f6      	bne.n	8006dd8 <memchr+0x8>
 8006dea:	bd10      	pop	{r4, pc}

08006dec <abort>:
 8006dec:	2006      	movs	r0, #6
 8006dee:	b508      	push	{r3, lr}
 8006df0:	f000 fa2c 	bl	800724c <raise>
 8006df4:	2001      	movs	r0, #1
 8006df6:	f7fc fe21 	bl	8003a3c <_exit>

08006dfa <_realloc_r>:
 8006dfa:	e92d 41f0 	stmdb	sp!, {r4, r5, r6, r7, r8, lr}
 8006dfe:	4607      	mov	r7, r0
 8006e00:	4614      	mov	r4, r2
 8006e02:	460d      	mov	r5, r1
 8006e04:	b921      	cbnz	r1, 8006e10 <_realloc_r+0x16>
 8006e06:	4611      	mov	r1, r2
 8006e08:	e8bd 41f0 	ldmia.w	sp!, {r4, r5, r6, r7, r8, lr}
 8006e0c:	f7ff b88a 	b.w	8005f24 <_malloc_r>
 8006e10:	b92a      	cbnz	r2, 8006e1e <_realloc_r+0x24>
 8006e12:	f7ff fbd9 	bl	80065c8 <_free_r>
 8006e16:	4625      	mov	r5, r4
 8006e18:	4628      	mov	r0, r5
 8006e1a:	e8bd 81f0 	ldmia.w	sp!, {r4, r5, r6, r7, r8, pc}
 8006e1e:	f000 fa31 	bl	8007284 <_malloc_usable_size_r>
 8006e22:	4284      	cmp	r4, r0
 8006e24:	4606      	mov	r6, r0
 8006e26:	d802      	bhi.n	8006e2e <_realloc_r+0x34>
 8006e28:	ebb4 0f50 	cmp.w	r4, r0, lsr #1
 8006e2c:	d8f4      	bhi.n	8006e18 <_realloc_r+0x1e>
 8006e2e:	4621      	mov	r1, r4
 8006e30:	4638      	mov	r0, r7
 8006e32:	f7ff f877 	bl	8005f24 <_malloc_r>
 8006e36:	4680      	mov	r8, r0
 8006e38:	b908      	cbnz	r0, 8006e3e <_realloc_r+0x44>
 8006e3a:	4645      	mov	r5, r8
 8006e3c:	e7ec      	b.n	8006e18 <_realloc_r+0x1e>
 8006e3e:	42b4      	cmp	r4, r6
 8006e40:	4622      	mov	r2, r4
 8006e42:	4629      	mov	r1, r5
 8006e44:	bf28      	it	cs
 8006e46:	4632      	movcs	r2, r6
 8006e48:	f7ff fb91 	bl	800656e <memcpy>
 8006e4c:	4629      	mov	r1, r5
 8006e4e:	4638      	mov	r0, r7
 8006e50:	f7ff fbba 	bl	80065c8 <_free_r>
 8006e54:	e7f1      	b.n	8006e3a <_realloc_r+0x40>

08006e56 <__sfputc_r>:
 8006e56:	6893      	ldr	r3, [r2, #8]
 8006e58:	b410      	push	{r4}
 8006e5a:	3b01      	subs	r3, #1
 8006e5c:	2b00      	cmp	r3, #0
 8006e5e:	6093      	str	r3, [r2, #8]
 8006e60:	da07      	bge.n	8006e72 <__sfputc_r+0x1c>
 8006e62:	6994      	ldr	r4, [r2, #24]
 8006e64:	42a3      	cmp	r3, r4
 8006e66:	db01      	blt.n	8006e6c <__sfputc_r+0x16>
 8006e68:	290a      	cmp	r1, #10
 8006e6a:	d102      	bne.n	8006e72 <__sfputc_r+0x1c>
 8006e6c:	bc10      	pop	{r4}
 8006e6e:	f000 b931 	b.w	80070d4 <__swbuf_r>
 8006e72:	6813      	ldr	r3, [r2, #0]
 8006e74:	1c58      	adds	r0, r3, #1
 8006e76:	6010      	str	r0, [r2, #0]
 8006e78:	7019      	strb	r1, [r3, #0]
 8006e7a:	4608      	mov	r0, r1
 8006e7c:	bc10      	pop	{r4}
 8006e7e:	4770      	bx	lr

08006e80 <__sfputs_r>:
 8006e80:	b5f8      	push	{r3, r4, r5, r6, r7, lr}
 8006e82:	4606      	mov	r6, r0
 8006e84:	460f      	mov	r7, r1
 8006e86:	4614      	mov	r4, r2
 8006e88:	18d5      	adds	r5, r2, r3
 8006e8a:	42ac      	cmp	r4, r5
 8006e8c:	d101      	bne.n	8006e92 <__sfputs_r+0x12>
 8006e8e:	2000      	movs	r0, #0
 8006e90:	e007      	b.n	8006ea2 <__sfputs_r+0x22>
 8006e92:	463a      	mov	r2, r7
 8006e94:	4630      	mov	r0, r6
 8006e96:	f814 1b01 	ldrb.w	r1, [r4], #1
 8006e9a:	f7ff ffdc 	bl	8006e56 <__sfputc_r>
 8006e9e:	1c43      	adds	r3, r0, #1
 8006ea0:	d1f3      	bne.n	8006e8a <__sfputs_r+0xa>
 8006ea2:	bdf8      	pop	{r3, r4, r5, r6, r7, pc}

08006ea4 <_vfiprintf_r>:
 8006ea4:	e92d 4ff0 	stmdb	sp!, {r4, r5, r6, r7, r8, r9, sl, fp, lr}
 8006ea8:	460d      	mov	r5, r1
 8006eaa:	4614      	mov	r4, r2
 8006eac:	4698      	mov	r8, r3
 8006eae:	4606      	mov	r6, r0
 8006eb0:	b09d      	sub	sp, #116	@ 0x74
 8006eb2:	b118      	cbz	r0, 8006ebc <_vfiprintf_r+0x18>
 8006eb4:	6a03      	ldr	r3, [r0, #32]
 8006eb6:	b90b      	cbnz	r3, 8006ebc <_vfiprintf_r+0x18>
 8006eb8:	f7ff f94c 	bl	8006154 <__sinit>
 8006ebc:	6e6b      	ldr	r3, [r5, #100]	@ 0x64
 8006ebe:	07d9      	lsls	r1, r3, #31
 8006ec0:	d405      	bmi.n	8006ece <_vfiprintf_r+0x2a>
 8006ec2:	89ab      	ldrh	r3, [r5, #12]
 8006ec4:	059a      	lsls	r2, r3, #22
 8006ec6:	d402      	bmi.n	8006ece <_vfiprintf_r+0x2a>
 8006ec8:	6da8      	ldr	r0, [r5, #88]	@ 0x58
 8006eca:	f7ff fb46 	bl	800655a <__retarget_lock_acquire_recursive>
 8006ece:	89ab      	ldrh	r3, [r5, #12]
 8006ed0:	071b      	lsls	r3, r3, #28
 8006ed2:	d501      	bpl.n	8006ed8 <_vfiprintf_r+0x34>
 8006ed4:	692b      	ldr	r3, [r5, #16]
 8006ed6:	b99b      	cbnz	r3, 8006f00 <_vfiprintf_r+0x5c>
 8006ed8:	4629      	mov	r1, r5
 8006eda:	4630      	mov	r0, r6
 8006edc:	f000 f938 	bl	8007150 <__swsetup_r>
 8006ee0:	b170      	cbz	r0, 8006f00 <_vfiprintf_r+0x5c>
 8006ee2:	6e6b      	ldr	r3, [r5, #100]	@ 0x64
 8006ee4:	07dc      	lsls	r4, r3, #31
 8006ee6:	d504      	bpl.n	8006ef2 <_vfiprintf_r+0x4e>
 8006ee8:	f04f 30ff 	mov.w	r0, #4294967295
 8006eec:	b01d      	add	sp, #116	@ 0x74
 8006eee:	e8bd 8ff0 	ldmia.w	sp!, {r4, r5, r6, r7, r8, r9, sl, fp, pc}
 8006ef2:	89ab      	ldrh	r3, [r5, #12]
 8006ef4:	0598      	lsls	r0, r3, #22
 8006ef6:	d4f7      	bmi.n	8006ee8 <_vfiprintf_r+0x44>
 8006ef8:	6da8      	ldr	r0, [r5, #88]	@ 0x58
 8006efa:	f7ff fb2f 	bl	800655c <__retarget_lock_release_recursive>
 8006efe:	e7f3      	b.n	8006ee8 <_vfiprintf_r+0x44>
 8006f00:	2300      	movs	r3, #0
 8006f02:	9309      	str	r3, [sp, #36]	@ 0x24
 8006f04:	2320      	movs	r3, #32
 8006f06:	f88d 3029 	strb.w	r3, [sp, #41]	@ 0x29
 8006f0a:	2330      	movs	r3, #48	@ 0x30
 8006f0c:	f04f 0901 	mov.w	r9, #1
 8006f10:	f8cd 800c 	str.w	r8, [sp, #12]
 8006f14:	f8df 81a8 	ldr.w	r8, [pc, #424]	@ 80070c0 <_vfiprintf_r+0x21c>
 8006f18:	f88d 302a 	strb.w	r3, [sp, #42]	@ 0x2a
 8006f1c:	4623      	mov	r3, r4
 8006f1e:	469a      	mov	sl, r3
 8006f20:	f813 2b01 	ldrb.w	r2, [r3], #1
 8006f24:	b10a      	cbz	r2, 8006f2a <_vfiprintf_r+0x86>
 8006f26:	2a25      	cmp	r2, #37	@ 0x25
 8006f28:	d1f9      	bne.n	8006f1e <_vfiprintf_r+0x7a>
 8006f2a:	ebba 0b04 	subs.w	fp, sl, r4
 8006f2e:	d00b      	beq.n	8006f48 <_vfiprintf_r+0xa4>
 8006f30:	465b      	mov	r3, fp
 8006f32:	4622      	mov	r2, r4
 8006f34:	4629      	mov	r1, r5
 8006f36:	4630      	mov	r0, r6
 8006f38:	f7ff ffa2 	bl	8006e80 <__sfputs_r>
 8006f3c:	3001      	adds	r0, #1
 8006f3e:	f000 80a7 	beq.w	8007090 <_vfiprintf_r+0x1ec>
 8006f42:	9a09      	ldr	r2, [sp, #36]	@ 0x24
 8006f44:	445a      	add	r2, fp
 8006f46:	9209      	str	r2, [sp, #36]	@ 0x24
 8006f48:	f89a 3000 	ldrb.w	r3, [sl]
 8006f4c:	2b00      	cmp	r3, #0
 8006f4e:	f000 809f 	beq.w	8007090 <_vfiprintf_r+0x1ec>
 8006f52:	2300      	movs	r3, #0
 8006f54:	f04f 32ff 	mov.w	r2, #4294967295
 8006f58:	e9cd 2305 	strd	r2, r3, [sp, #20]
 8006f5c:	f10a 0a01 	add.w	sl, sl, #1
 8006f60:	9304      	str	r3, [sp, #16]
 8006f62:	9307      	str	r3, [sp, #28]
 8006f64:	f88d 3053 	strb.w	r3, [sp, #83]	@ 0x53
 8006f68:	931a      	str	r3, [sp, #104]	@ 0x68
 8006f6a:	4654      	mov	r4, sl
 8006f6c:	2205      	movs	r2, #5
 8006f6e:	f814 1b01 	ldrb.w	r1, [r4], #1
 8006f72:	4853      	ldr	r0, [pc, #332]	@ (80070c0 <_vfiprintf_r+0x21c>)
 8006f74:	f7ff ff2c 	bl	8006dd0 <memchr>
 8006f78:	9a04      	ldr	r2, [sp, #16]
 8006f7a:	b9d8      	cbnz	r0, 8006fb4 <_vfiprintf_r+0x110>
 8006f7c:	06d1      	lsls	r1, r2, #27
 8006f7e:	bf44      	itt	mi
 8006f80:	2320      	movmi	r3, #32
 8006f82:	f88d 3053 	strbmi.w	r3, [sp, #83]	@ 0x53
 8006f86:	0713      	lsls	r3, r2, #28
 8006f88:	bf44      	itt	mi
 8006f8a:	232b      	movmi	r3, #43	@ 0x2b
 8006f8c:	f88d 3053 	strbmi.w	r3, [sp, #83]	@ 0x53
 8006f90:	f89a 3000 	ldrb.w	r3, [sl]
 8006f94:	2b2a      	cmp	r3, #42	@ 0x2a
 8006f96:	d015      	beq.n	8006fc4 <_vfiprintf_r+0x120>
 8006f98:	4654      	mov	r4, sl
 8006f9a:	2000      	movs	r0, #0
 8006f9c:	f04f 0c0a 	mov.w	ip, #10
 8006fa0:	9a07      	ldr	r2, [sp, #28]
 8006fa2:	4621      	mov	r1, r4
 8006fa4:	f811 3b01 	ldrb.w	r3, [r1], #1
 8006fa8:	3b30      	subs	r3, #48	@ 0x30
 8006faa:	2b09      	cmp	r3, #9
 8006fac:	d94b      	bls.n	8007046 <_vfiprintf_r+0x1a2>
 8006fae:	b1b0      	cbz	r0, 8006fde <_vfiprintf_r+0x13a>
 8006fb0:	9207      	str	r2, [sp, #28]
 8006fb2:	e014      	b.n	8006fde <_vfiprintf_r+0x13a>
 8006fb4:	eba0 0308 	sub.w	r3, r0, r8
 8006fb8:	fa09 f303 	lsl.w	r3, r9, r3
 8006fbc:	4313      	orrs	r3, r2
 8006fbe:	46a2      	mov	sl, r4
 8006fc0:	9304      	str	r3, [sp, #16]
 8006fc2:	e7d2      	b.n	8006f6a <_vfiprintf_r+0xc6>
 8006fc4:	9b03      	ldr	r3, [sp, #12]
 8006fc6:	1d19      	adds	r1, r3, #4
 8006fc8:	681b      	ldr	r3, [r3, #0]
 8006fca:	9103      	str	r1, [sp, #12]
 8006fcc:	2b00      	cmp	r3, #0
 8006fce:	bfbb      	ittet	lt
 8006fd0:	425b      	neglt	r3, r3
 8006fd2:	f042 0202 	orrlt.w	r2, r2, #2
 8006fd6:	9307      	strge	r3, [sp, #28]
 8006fd8:	9307      	strlt	r3, [sp, #28]
 8006fda:	bfb8      	it	lt
 8006fdc:	9204      	strlt	r2, [sp, #16]
 8006fde:	7823      	ldrb	r3, [r4, #0]
 8006fe0:	2b2e      	cmp	r3, #46	@ 0x2e
 8006fe2:	d10a      	bne.n	8006ffa <_vfiprintf_r+0x156>
 8006fe4:	7863      	ldrb	r3, [r4, #1]
 8006fe6:	2b2a      	cmp	r3, #42	@ 0x2a
 8006fe8:	d132      	bne.n	8007050 <_vfiprintf_r+0x1ac>
 8006fea:	9b03      	ldr	r3, [sp, #12]
 8006fec:	3402      	adds	r4, #2
 8006fee:	1d1a      	adds	r2, r3, #4
 8006ff0:	681b      	ldr	r3, [r3, #0]
 8006ff2:	9203      	str	r2, [sp, #12]
 8006ff4:	ea43 73e3 	orr.w	r3, r3, r3, asr #31
 8006ff8:	9305      	str	r3, [sp, #20]
 8006ffa:	f8df a0c8 	ldr.w	sl, [pc, #200]	@ 80070c4 <_vfiprintf_r+0x220>
 8006ffe:	2203      	movs	r2, #3
 8007000:	4650      	mov	r0, sl
 8007002:	7821      	ldrb	r1, [r4, #0]
 8007004:	f7ff fee4 	bl	8006dd0 <memchr>
 8007008:	b138      	cbz	r0, 800701a <_vfiprintf_r+0x176>
 800700a:	2240      	movs	r2, #64	@ 0x40
 800700c:	9b04      	ldr	r3, [sp, #16]
 800700e:	eba0 000a 	sub.w	r0, r0, sl
 8007012:	4082      	lsls	r2, r0
 8007014:	4313      	orrs	r3, r2
 8007016:	3401      	adds	r4, #1
 8007018:	9304      	str	r3, [sp, #16]
 800701a:	f814 1b01 	ldrb.w	r1, [r4], #1
 800701e:	2206      	movs	r2, #6
 8007020:	4829      	ldr	r0, [pc, #164]	@ (80070c8 <_vfiprintf_r+0x224>)
 8007022:	f88d 1028 	strb.w	r1, [sp, #40]	@ 0x28
 8007026:	f7ff fed3 	bl	8006dd0 <memchr>
 800702a:	2800      	cmp	r0, #0
 800702c:	d03f      	beq.n	80070ae <_vfiprintf_r+0x20a>
 800702e:	4b27      	ldr	r3, [pc, #156]	@ (80070cc <_vfiprintf_r+0x228>)
 8007030:	bb1b      	cbnz	r3, 800707a <_vfiprintf_r+0x1d6>
 8007032:	9b03      	ldr	r3, [sp, #12]
 8007034:	3307      	adds	r3, #7
 8007036:	f023 0307 	bic.w	r3, r3, #7
 800703a:	3308      	adds	r3, #8
 800703c:	9303      	str	r3, [sp, #12]
 800703e:	9b09      	ldr	r3, [sp, #36]	@ 0x24
 8007040:	443b      	add	r3, r7
 8007042:	9309      	str	r3, [sp, #36]	@ 0x24
 8007044:	e76a      	b.n	8006f1c <_vfiprintf_r+0x78>
 8007046:	460c      	mov	r4, r1
 8007048:	2001      	movs	r0, #1
 800704a:	fb0c 3202 	mla	r2, ip, r2, r3
 800704e:	e7a8      	b.n	8006fa2 <_vfiprintf_r+0xfe>
 8007050:	2300      	movs	r3, #0
 8007052:	f04f 0c0a 	mov.w	ip, #10
 8007056:	4619      	mov	r1, r3
 8007058:	3401      	adds	r4, #1
 800705a:	9305      	str	r3, [sp, #20]
 800705c:	4620      	mov	r0, r4
 800705e:	f810 2b01 	ldrb.w	r2, [r0], #1
 8007062:	3a30      	subs	r2, #48	@ 0x30
 8007064:	2a09      	cmp	r2, #9
 8007066:	d903      	bls.n	8007070 <_vfiprintf_r+0x1cc>
 8007068:	2b00      	cmp	r3, #0
 800706a:	d0c6      	beq.n	8006ffa <_vfiprintf_r+0x156>
 800706c:	9105      	str	r1, [sp, #20]
 800706e:	e7c4      	b.n	8006ffa <_vfiprintf_r+0x156>
 8007070:	4604      	mov	r4, r0
 8007072:	2301      	movs	r3, #1
 8007074:	fb0c 2101 	mla	r1, ip, r1, r2
 8007078:	e7f0      	b.n	800705c <_vfiprintf_r+0x1b8>
 800707a:	ab03      	add	r3, sp, #12
 800707c:	9300      	str	r3, [sp, #0]
 800707e:	462a      	mov	r2, r5
 8007080:	4630      	mov	r0, r6
 8007082:	4b13      	ldr	r3, [pc, #76]	@ (80070d0 <_vfiprintf_r+0x22c>)
 8007084:	a904      	add	r1, sp, #16
 8007086:	f3af 8000 	nop.w
 800708a:	4607      	mov	r7, r0
 800708c:	1c78      	adds	r0, r7, #1
 800708e:	d1d6      	bne.n	800703e <_vfiprintf_r+0x19a>
 8007090:	6e6b      	ldr	r3, [r5, #100]	@ 0x64
 8007092:	07d9      	lsls	r1, r3, #31
 8007094:	d405      	bmi.n	80070a2 <_vfiprintf_r+0x1fe>
 8007096:	89ab      	ldrh	r3, [r5, #12]
 8007098:	059a      	lsls	r2, r3, #22
 800709a:	d402      	bmi.n	80070a2 <_vfiprintf_r+0x1fe>
 800709c:	6da8      	ldr	r0, [r5, #88]	@ 0x58
 800709e:	f7ff fa5d 	bl	800655c <__retarget_lock_release_recursive>
 80070a2:	89ab      	ldrh	r3, [r5, #12]
 80070a4:	065b      	lsls	r3, r3, #25
 80070a6:	f53f af1f 	bmi.w	8006ee8 <_vfiprintf_r+0x44>
 80070aa:	9809      	ldr	r0, [sp, #36]	@ 0x24
 80070ac:	e71e      	b.n	8006eec <_vfiprintf_r+0x48>
 80070ae:	ab03      	add	r3, sp, #12
 80070b0:	9300      	str	r3, [sp, #0]
 80070b2:	462a      	mov	r2, r5
 80070b4:	4630      	mov	r0, r6
 80070b6:	4b06      	ldr	r3, [pc, #24]	@ (80070d0 <_vfiprintf_r+0x22c>)
 80070b8:	a904      	add	r1, sp, #16
 80070ba:	f7ff fc97 	bl	80069ec <_printf_i>
 80070be:	e7e4      	b.n	800708a <_vfiprintf_r+0x1e6>
 80070c0:	08007676 	.word	0x08007676
 80070c4:	0800767c 	.word	0x0800767c
 80070c8:	08007680 	.word	0x08007680
 80070cc:	00000000 	.word	0x00000000
 80070d0:	08006e81 	.word	0x08006e81

080070d4 <__swbuf_r>:
 80070d4:	b5f8      	push	{r3, r4, r5, r6, r7, lr}
 80070d6:	460e      	mov	r6, r1
 80070d8:	4614      	mov	r4, r2
 80070da:	4605      	mov	r5, r0
 80070dc:	b118      	cbz	r0, 80070e6 <__swbuf_r+0x12>
 80070de:	6a03      	ldr	r3, [r0, #32]
 80070e0:	b90b      	cbnz	r3, 80070e6 <__swbuf_r+0x12>
 80070e2:	f7ff f837 	bl	8006154 <__sinit>
 80070e6:	69a3      	ldr	r3, [r4, #24]
 80070e8:	60a3      	str	r3, [r4, #8]
 80070ea:	89a3      	ldrh	r3, [r4, #12]
 80070ec:	071a      	lsls	r2, r3, #28
 80070ee:	d501      	bpl.n	80070f4 <__swbuf_r+0x20>
 80070f0:	6923      	ldr	r3, [r4, #16]
 80070f2:	b943      	cbnz	r3, 8007106 <__swbuf_r+0x32>
 80070f4:	4621      	mov	r1, r4
 80070f6:	4628      	mov	r0, r5
 80070f8:	f000 f82a 	bl	8007150 <__swsetup_r>
 80070fc:	b118      	cbz	r0, 8007106 <__swbuf_r+0x32>
 80070fe:	f04f 37ff 	mov.w	r7, #4294967295
 8007102:	4638      	mov	r0, r7
 8007104:	bdf8      	pop	{r3, r4, r5, r6, r7, pc}
 8007106:	6823      	ldr	r3, [r4, #0]
 8007108:	6922      	ldr	r2, [r4, #16]
 800710a:	b2f6      	uxtb	r6, r6
 800710c:	1a98      	subs	r0, r3, r2
 800710e:	6963      	ldr	r3, [r4, #20]
 8007110:	4637      	mov	r7, r6
 8007112:	4283      	cmp	r3, r0
 8007114:	dc05      	bgt.n	8007122 <__swbuf_r+0x4e>
 8007116:	4621      	mov	r1, r4
 8007118:	4628      	mov	r0, r5
 800711a:	f7ff fe05 	bl	8006d28 <_fflush_r>
 800711e:	2800      	cmp	r0, #0
 8007120:	d1ed      	bne.n	80070fe <__swbuf_r+0x2a>
 8007122:	68a3      	ldr	r3, [r4, #8]
 8007124:	3b01      	subs	r3, #1
 8007126:	60a3      	str	r3, [r4, #8]
 8007128:	6823      	ldr	r3, [r4, #0]
 800712a:	1c5a      	adds	r2, r3, #1
 800712c:	6022      	str	r2, [r4, #0]
 800712e:	701e      	strb	r6, [r3, #0]
 8007130:	6962      	ldr	r2, [r4, #20]
 8007132:	1c43      	adds	r3, r0, #1
 8007134:	429a      	cmp	r2, r3
 8007136:	d004      	beq.n	8007142 <__swbuf_r+0x6e>
 8007138:	89a3      	ldrh	r3, [r4, #12]
 800713a:	07db      	lsls	r3, r3, #31
 800713c:	d5e1      	bpl.n	8007102 <__swbuf_r+0x2e>
 800713e:	2e0a      	cmp	r6, #10
 8007140:	d1df      	bne.n	8007102 <__swbuf_r+0x2e>
 8007142:	4621      	mov	r1, r4
 8007144:	4628      	mov	r0, r5
 8007146:	f7ff fdef 	bl	8006d28 <_fflush_r>
 800714a:	2800      	cmp	r0, #0
 800714c:	d0d9      	beq.n	8007102 <__swbuf_r+0x2e>
 800714e:	e7d6      	b.n	80070fe <__swbuf_r+0x2a>

08007150 <__swsetup_r>:
 8007150:	b538      	push	{r3, r4, r5, lr}
 8007152:	4b29      	ldr	r3, [pc, #164]	@ (80071f8 <__swsetup_r+0xa8>)
 8007154:	4605      	mov	r5, r0
 8007156:	6818      	ldr	r0, [r3, #0]
 8007158:	460c      	mov	r4, r1
 800715a:	b118      	cbz	r0, 8007164 <__swsetup_r+0x14>
 800715c:	6a03      	ldr	r3, [r0, #32]
 800715e:	b90b      	cbnz	r3, 8007164 <__swsetup_r+0x14>
 8007160:	f7fe fff8 	bl	8006154 <__sinit>
 8007164:	f9b4 300c 	ldrsh.w	r3, [r4, #12]
 8007168:	0719      	lsls	r1, r3, #28
 800716a:	d422      	bmi.n	80071b2 <__swsetup_r+0x62>
 800716c:	06da      	lsls	r2, r3, #27
 800716e:	d407      	bmi.n	8007180 <__swsetup_r+0x30>
 8007170:	2209      	movs	r2, #9
 8007172:	602a      	str	r2, [r5, #0]
 8007174:	f043 0340 	orr.w	r3, r3, #64	@ 0x40
 8007178:	f04f 30ff 	mov.w	r0, #4294967295
 800717c:	81a3      	strh	r3, [r4, #12]
 800717e:	e033      	b.n	80071e8 <__swsetup_r+0x98>
 8007180:	0758      	lsls	r0, r3, #29
 8007182:	d512      	bpl.n	80071aa <__swsetup_r+0x5a>
 8007184:	6b61      	ldr	r1, [r4, #52]	@ 0x34
 8007186:	b141      	cbz	r1, 800719a <__swsetup_r+0x4a>
 8007188:	f104 0344 	add.w	r3, r4, #68	@ 0x44
 800718c:	4299      	cmp	r1, r3
 800718e:	d002      	beq.n	8007196 <__swsetup_r+0x46>
 8007190:	4628      	mov	r0, r5
 8007192:	f7ff fa19 	bl	80065c8 <_free_r>
 8007196:	2300      	movs	r3, #0
 8007198:	6363      	str	r3, [r4, #52]	@ 0x34
 800719a:	89a3      	ldrh	r3, [r4, #12]
 800719c:	f023 0324 	bic.w	r3, r3, #36	@ 0x24
 80071a0:	81a3      	strh	r3, [r4, #12]
 80071a2:	2300      	movs	r3, #0
 80071a4:	6063      	str	r3, [r4, #4]
 80071a6:	6923      	ldr	r3, [r4, #16]
 80071a8:	6023      	str	r3, [r4, #0]
 80071aa:	89a3      	ldrh	r3, [r4, #12]
 80071ac:	f043 0308 	orr.w	r3, r3, #8
 80071b0:	81a3      	strh	r3, [r4, #12]
 80071b2:	6923      	ldr	r3, [r4, #16]
 80071b4:	b94b      	cbnz	r3, 80071ca <__swsetup_r+0x7a>
 80071b6:	89a3      	ldrh	r3, [r4, #12]
 80071b8:	f403 7320 	and.w	r3, r3, #640	@ 0x280
 80071bc:	f5b3 7f00 	cmp.w	r3, #512	@ 0x200
 80071c0:	d003      	beq.n	80071ca <__swsetup_r+0x7a>
 80071c2:	4621      	mov	r1, r4
 80071c4:	4628      	mov	r0, r5
 80071c6:	f000 f88a 	bl	80072de <__smakebuf_r>
 80071ca:	f9b4 300c 	ldrsh.w	r3, [r4, #12]
 80071ce:	f013 0201 	ands.w	r2, r3, #1
 80071d2:	d00a      	beq.n	80071ea <__swsetup_r+0x9a>
 80071d4:	2200      	movs	r2, #0
 80071d6:	60a2      	str	r2, [r4, #8]
 80071d8:	6962      	ldr	r2, [r4, #20]
 80071da:	4252      	negs	r2, r2
 80071dc:	61a2      	str	r2, [r4, #24]
 80071de:	6922      	ldr	r2, [r4, #16]
 80071e0:	b942      	cbnz	r2, 80071f4 <__swsetup_r+0xa4>
 80071e2:	f013 0080 	ands.w	r0, r3, #128	@ 0x80
 80071e6:	d1c5      	bne.n	8007174 <__swsetup_r+0x24>
 80071e8:	bd38      	pop	{r3, r4, r5, pc}
 80071ea:	0799      	lsls	r1, r3, #30
 80071ec:	bf58      	it	pl
 80071ee:	6962      	ldrpl	r2, [r4, #20]
 80071f0:	60a2      	str	r2, [r4, #8]
 80071f2:	e7f4      	b.n	80071de <__swsetup_r+0x8e>
 80071f4:	2000      	movs	r0, #0
 80071f6:	e7f7      	b.n	80071e8 <__swsetup_r+0x98>
 80071f8:	2000004c 	.word	0x2000004c

080071fc <_raise_r>:
 80071fc:	291f      	cmp	r1, #31
 80071fe:	b538      	push	{r3, r4, r5, lr}
 8007200:	4605      	mov	r5, r0
 8007202:	460c      	mov	r4, r1
 8007204:	d904      	bls.n	8007210 <_raise_r+0x14>
 8007206:	2316      	movs	r3, #22
 8007208:	6003      	str	r3, [r0, #0]
 800720a:	f04f 30ff 	mov.w	r0, #4294967295
 800720e:	bd38      	pop	{r3, r4, r5, pc}
 8007210:	6bc2      	ldr	r2, [r0, #60]	@ 0x3c
 8007212:	b112      	cbz	r2, 800721a <_raise_r+0x1e>
 8007214:	f852 3021 	ldr.w	r3, [r2, r1, lsl #2]
 8007218:	b94b      	cbnz	r3, 800722e <_raise_r+0x32>
 800721a:	4628      	mov	r0, r5
 800721c:	f000 f830 	bl	8007280 <_getpid_r>
 8007220:	4622      	mov	r2, r4
 8007222:	4601      	mov	r1, r0
 8007224:	4628      	mov	r0, r5
 8007226:	e8bd 4038 	ldmia.w	sp!, {r3, r4, r5, lr}
 800722a:	f000 b817 	b.w	800725c <_kill_r>
 800722e:	2b01      	cmp	r3, #1
 8007230:	d00a      	beq.n	8007248 <_raise_r+0x4c>
 8007232:	1c59      	adds	r1, r3, #1
 8007234:	d103      	bne.n	800723e <_raise_r+0x42>
 8007236:	2316      	movs	r3, #22
 8007238:	6003      	str	r3, [r0, #0]
 800723a:	2001      	movs	r0, #1
 800723c:	e7e7      	b.n	800720e <_raise_r+0x12>
 800723e:	2100      	movs	r1, #0
 8007240:	4620      	mov	r0, r4
 8007242:	f842 1024 	str.w	r1, [r2, r4, lsl #2]
 8007246:	4798      	blx	r3
 8007248:	2000      	movs	r0, #0
 800724a:	e7e0      	b.n	800720e <_raise_r+0x12>

0800724c <raise>:
 800724c:	4b02      	ldr	r3, [pc, #8]	@ (8007258 <raise+0xc>)
 800724e:	4601      	mov	r1, r0
 8007250:	6818      	ldr	r0, [r3, #0]
 8007252:	f7ff bfd3 	b.w	80071fc <_raise_r>
 8007256:	bf00      	nop
 8007258:	2000004c 	.word	0x2000004c

0800725c <_kill_r>:
 800725c:	b538      	push	{r3, r4, r5, lr}
 800725e:	2300      	movs	r3, #0
 8007260:	4d06      	ldr	r5, [pc, #24]	@ (800727c <_kill_r+0x20>)
 8007262:	4604      	mov	r4, r0
 8007264:	4608      	mov	r0, r1
 8007266:	4611      	mov	r1, r2
 8007268:	602b      	str	r3, [r5, #0]
 800726a:	f7fc fbdf 	bl	8003a2c <_kill>
 800726e:	1c43      	adds	r3, r0, #1
 8007270:	d102      	bne.n	8007278 <_kill_r+0x1c>
 8007272:	682b      	ldr	r3, [r5, #0]
 8007274:	b103      	cbz	r3, 8007278 <_kill_r+0x1c>
 8007276:	6023      	str	r3, [r4, #0]
 8007278:	bd38      	pop	{r3, r4, r5, pc}
 800727a:	bf00      	nop
 800727c:	20004108 	.word	0x20004108

08007280 <_getpid_r>:
 8007280:	f7fc bbd2 	b.w	8003a28 <_getpid>

08007284 <_malloc_usable_size_r>:
 8007284:	f851 3c04 	ldr.w	r3, [r1, #-4]
 8007288:	1f18      	subs	r0, r3, #4
 800728a:	2b00      	cmp	r3, #0
 800728c:	bfbc      	itt	lt
 800728e:	580b      	ldrlt	r3, [r1, r0]
 8007290:	18c0      	addlt	r0, r0, r3
 8007292:	4770      	bx	lr

08007294 <__swhatbuf_r>:
 8007294:	b570      	push	{r4, r5, r6, lr}
 8007296:	460c      	mov	r4, r1
 8007298:	f9b1 100e 	ldrsh.w	r1, [r1, #14]
 800729c:	4615      	mov	r5, r2
 800729e:	2900      	cmp	r1, #0
 80072a0:	461e      	mov	r6, r3
 80072a2:	b096      	sub	sp, #88	@ 0x58
 80072a4:	da0c      	bge.n	80072c0 <__swhatbuf_r+0x2c>
 80072a6:	89a3      	ldrh	r3, [r4, #12]
 80072a8:	2100      	movs	r1, #0
 80072aa:	f013 0f80 	tst.w	r3, #128	@ 0x80
 80072ae:	bf14      	ite	ne
 80072b0:	2340      	movne	r3, #64	@ 0x40
 80072b2:	f44f 6380 	moveq.w	r3, #1024	@ 0x400
 80072b6:	2000      	movs	r0, #0
 80072b8:	6031      	str	r1, [r6, #0]
 80072ba:	602b      	str	r3, [r5, #0]
 80072bc:	b016      	add	sp, #88	@ 0x58
 80072be:	bd70      	pop	{r4, r5, r6, pc}
 80072c0:	466a      	mov	r2, sp
 80072c2:	f000 f849 	bl	8007358 <_fstat_r>
 80072c6:	2800      	cmp	r0, #0
 80072c8:	dbed      	blt.n	80072a6 <__swhatbuf_r+0x12>
 80072ca:	9901      	ldr	r1, [sp, #4]
 80072cc:	f401 4170 	and.w	r1, r1, #61440	@ 0xf000
 80072d0:	f5a1 5300 	sub.w	r3, r1, #8192	@ 0x2000
 80072d4:	4259      	negs	r1, r3
 80072d6:	4159      	adcs	r1, r3
 80072d8:	f44f 6380 	mov.w	r3, #1024	@ 0x400
 80072dc:	e7eb      	b.n	80072b6 <__swhatbuf_r+0x22>

080072de <__smakebuf_r>:
 80072de:	898b      	ldrh	r3, [r1, #12]
 80072e0:	b5f7      	push	{r0, r1, r2, r4, r5, r6, r7, lr}
 80072e2:	079d      	lsls	r5, r3, #30
 80072e4:	4606      	mov	r6, r0
 80072e6:	460c      	mov	r4, r1
 80072e8:	d507      	bpl.n	80072fa <__smakebuf_r+0x1c>
 80072ea:	f104 0347 	add.w	r3, r4, #71	@ 0x47
 80072ee:	6023      	str	r3, [r4, #0]
 80072f0:	6123      	str	r3, [r4, #16]
 80072f2:	2301      	movs	r3, #1
 80072f4:	6163      	str	r3, [r4, #20]
 80072f6:	b003      	add	sp, #12
 80072f8:	bdf0      	pop	{r4, r5, r6, r7, pc}
 80072fa:	466a      	mov	r2, sp
 80072fc:	ab01      	add	r3, sp, #4
 80072fe:	f7ff ffc9 	bl	8007294 <__swhatbuf_r>
 8007302:	9f00      	ldr	r7, [sp, #0]
 8007304:	4605      	mov	r5, r0
 8007306:	4639      	mov	r1, r7
 8007308:	4630      	mov	r0, r6
 800730a:	f7fe fe0b 	bl	8005f24 <_malloc_r>
 800730e:	b948      	cbnz	r0, 8007324 <__smakebuf_r+0x46>
 8007310:	f9b4 300c 	ldrsh.w	r3, [r4, #12]
 8007314:	059a      	lsls	r2, r3, #22
 8007316:	d4ee      	bmi.n	80072f6 <__smakebuf_r+0x18>
 8007318:	f023 0303 	bic.w	r3, r3, #3
 800731c:	f043 0302 	orr.w	r3, r3, #2
 8007320:	81a3      	strh	r3, [r4, #12]
 8007322:	e7e2      	b.n	80072ea <__smakebuf_r+0xc>
 8007324:	89a3      	ldrh	r3, [r4, #12]
 8007326:	e9c4 0704 	strd	r0, r7, [r4, #16]
 800732a:	f043 0380 	orr.w	r3, r3, #128	@ 0x80
 800732e:	81a3      	strh	r3, [r4, #12]
 8007330:	9b01      	ldr	r3, [sp, #4]
 8007332:	6020      	str	r0, [r4, #0]
 8007334:	b15b      	cbz	r3, 800734e <__smakebuf_r+0x70>
 8007336:	4630      	mov	r0, r6
 8007338:	f9b4 100e 	ldrsh.w	r1, [r4, #14]
 800733c:	f000 f81e 	bl	800737c <_isatty_r>
 8007340:	b128      	cbz	r0, 800734e <__smakebuf_r+0x70>
 8007342:	89a3      	ldrh	r3, [r4, #12]
 8007344:	f023 0303 	bic.w	r3, r3, #3
 8007348:	f043 0301 	orr.w	r3, r3, #1
 800734c:	81a3      	strh	r3, [r4, #12]
 800734e:	89a3      	ldrh	r3, [r4, #12]
 8007350:	431d      	orrs	r5, r3
 8007352:	81a5      	strh	r5, [r4, #12]
 8007354:	e7cf      	b.n	80072f6 <__smakebuf_r+0x18>
	...

08007358 <_fstat_r>:
 8007358:	b538      	push	{r3, r4, r5, lr}
 800735a:	2300      	movs	r3, #0
 800735c:	4d06      	ldr	r5, [pc, #24]	@ (8007378 <_fstat_r+0x20>)
 800735e:	4604      	mov	r4, r0
 8007360:	4608      	mov	r0, r1
 8007362:	4611      	mov	r1, r2
 8007364:	602b      	str	r3, [r5, #0]
 8007366:	f7fc fb8e 	bl	8003a86 <_fstat>
 800736a:	1c43      	adds	r3, r0, #1
 800736c:	d102      	bne.n	8007374 <_fstat_r+0x1c>
 800736e:	682b      	ldr	r3, [r5, #0]
 8007370:	b103      	cbz	r3, 8007374 <_fstat_r+0x1c>
 8007372:	6023      	str	r3, [r4, #0]
 8007374:	bd38      	pop	{r3, r4, r5, pc}
 8007376:	bf00      	nop
 8007378:	20004108 	.word	0x20004108

0800737c <_isatty_r>:
 800737c:	b538      	push	{r3, r4, r5, lr}
 800737e:	2300      	movs	r3, #0
 8007380:	4d05      	ldr	r5, [pc, #20]	@ (8007398 <_isatty_r+0x1c>)
 8007382:	4604      	mov	r4, r0
 8007384:	4608      	mov	r0, r1
 8007386:	602b      	str	r3, [r5, #0]
 8007388:	f7fc fb82 	bl	8003a90 <_isatty>
 800738c:	1c43      	adds	r3, r0, #1
 800738e:	d102      	bne.n	8007396 <_isatty_r+0x1a>
 8007390:	682b      	ldr	r3, [r5, #0]
 8007392:	b103      	cbz	r3, 8007396 <_isatty_r+0x1a>
 8007394:	6023      	str	r3, [r4, #0]
 8007396:	bd38      	pop	{r3, r4, r5, pc}
 8007398:	20004108 	.word	0x20004108

0800739c <_init>:
 800739c:	b5f8      	push	{r3, r4, r5, r6, r7, lr}
 800739e:	bf00      	nop
 80073a0:	bcf8      	pop	{r3, r4, r5, r6, r7}
 80073a2:	bc08      	pop	{r3}
 80073a4:	469e      	mov	lr, r3
 80073a6:	4770      	bx	lr

080073a8 <_fini>:
 80073a8:	b5f8      	push	{r3, r4, r5, r6, r7, lr}
 80073aa:	bf00      	nop
 80073ac:	bcf8      	pop	{r3, r4, r5, r6, r7}
 80073ae:	bc08      	pop	{r3}
 80073b0:	469e      	mov	lr, r3
 80073b2:	4770      	bx	lr
